ARM GAS  /tmp/ccnaAMFS.s 			page 1


   1              		.cpu cortex-m0
   2              		.eabi_attribute 20, 1
   3              		.eabi_attribute 21, 1
   4              		.eabi_attribute 23, 3
   5              		.eabi_attribute 24, 1
   6              		.eabi_attribute 25, 1
   7              		.eabi_attribute 26, 1
   8              		.eabi_attribute 30, 1
   9              		.eabi_attribute 34, 0
  10              		.eabi_attribute 18, 4
  11              		.file	"stm32f0xx_ll_usb.c"
  12              		.text
  13              	.Ltext0:
  14              		.cfi_sections	.debug_frame
  15              		.section	.text.USB_CoreInit,"ax",%progbits
  16              		.align	1
  17              		.global	USB_CoreInit
  18              		.arch armv6s-m
  19              		.syntax unified
  20              		.code	16
  21              		.thumb_func
  22              		.fpu softvfp
  24              	USB_CoreInit:
  25              	.LVL0:
  26              	.LFB40:
  27              		.file 1 "Drivers/STM32F0xx_HAL_Driver/Src/stm32f0xx_ll_usb.c"
   1:Drivers/STM32F0xx_HAL_Driver/Src/stm32f0xx_ll_usb.c **** /**
   2:Drivers/STM32F0xx_HAL_Driver/Src/stm32f0xx_ll_usb.c ****   ******************************************************************************
   3:Drivers/STM32F0xx_HAL_Driver/Src/stm32f0xx_ll_usb.c ****   * @file    stm32f0xx_ll_usb.c
   4:Drivers/STM32F0xx_HAL_Driver/Src/stm32f0xx_ll_usb.c ****   * @author  MCD Application Team
   5:Drivers/STM32F0xx_HAL_Driver/Src/stm32f0xx_ll_usb.c ****   * @brief   USB Low Layer HAL module driver.
   6:Drivers/STM32F0xx_HAL_Driver/Src/stm32f0xx_ll_usb.c ****   *
   7:Drivers/STM32F0xx_HAL_Driver/Src/stm32f0xx_ll_usb.c ****   *          This file provides firmware functions to manage the following
   8:Drivers/STM32F0xx_HAL_Driver/Src/stm32f0xx_ll_usb.c ****   *          functionalities of the USB Peripheral Controller:
   9:Drivers/STM32F0xx_HAL_Driver/Src/stm32f0xx_ll_usb.c ****   *           + Initialization/de-initialization functions
  10:Drivers/STM32F0xx_HAL_Driver/Src/stm32f0xx_ll_usb.c ****   *           + I/O operation functions
  11:Drivers/STM32F0xx_HAL_Driver/Src/stm32f0xx_ll_usb.c ****   *           + Peripheral Control functions
  12:Drivers/STM32F0xx_HAL_Driver/Src/stm32f0xx_ll_usb.c ****   *           + Peripheral State functions
  13:Drivers/STM32F0xx_HAL_Driver/Src/stm32f0xx_ll_usb.c ****   *
  14:Drivers/STM32F0xx_HAL_Driver/Src/stm32f0xx_ll_usb.c ****   @verbatim
  15:Drivers/STM32F0xx_HAL_Driver/Src/stm32f0xx_ll_usb.c ****   ==============================================================================
  16:Drivers/STM32F0xx_HAL_Driver/Src/stm32f0xx_ll_usb.c ****                     ##### How to use this driver #####
  17:Drivers/STM32F0xx_HAL_Driver/Src/stm32f0xx_ll_usb.c ****   ==============================================================================
  18:Drivers/STM32F0xx_HAL_Driver/Src/stm32f0xx_ll_usb.c ****     [..]
  19:Drivers/STM32F0xx_HAL_Driver/Src/stm32f0xx_ll_usb.c ****       (#) Fill parameters of Init structure in USB_OTG_CfgTypeDef structure.
  20:Drivers/STM32F0xx_HAL_Driver/Src/stm32f0xx_ll_usb.c **** 
  21:Drivers/STM32F0xx_HAL_Driver/Src/stm32f0xx_ll_usb.c ****       (#) Call USB_CoreInit() API to initialize the USB Core peripheral.
  22:Drivers/STM32F0xx_HAL_Driver/Src/stm32f0xx_ll_usb.c **** 
  23:Drivers/STM32F0xx_HAL_Driver/Src/stm32f0xx_ll_usb.c ****       (#) The upper HAL HCD/PCD driver will call the right routines for its internal processes.
  24:Drivers/STM32F0xx_HAL_Driver/Src/stm32f0xx_ll_usb.c **** 
  25:Drivers/STM32F0xx_HAL_Driver/Src/stm32f0xx_ll_usb.c ****   @endverbatim
  26:Drivers/STM32F0xx_HAL_Driver/Src/stm32f0xx_ll_usb.c ****   ******************************************************************************
  27:Drivers/STM32F0xx_HAL_Driver/Src/stm32f0xx_ll_usb.c ****   * @attention
  28:Drivers/STM32F0xx_HAL_Driver/Src/stm32f0xx_ll_usb.c ****   *
  29:Drivers/STM32F0xx_HAL_Driver/Src/stm32f0xx_ll_usb.c ****   * <h2><center>&copy; Copyright (c) 2016 STMicroelectronics.
  30:Drivers/STM32F0xx_HAL_Driver/Src/stm32f0xx_ll_usb.c ****   * All rights reserved.</center></h2>
  31:Drivers/STM32F0xx_HAL_Driver/Src/stm32f0xx_ll_usb.c ****   *
ARM GAS  /tmp/ccnaAMFS.s 			page 2


  32:Drivers/STM32F0xx_HAL_Driver/Src/stm32f0xx_ll_usb.c ****   * This software component is licensed by ST under BSD 3-Clause license,
  33:Drivers/STM32F0xx_HAL_Driver/Src/stm32f0xx_ll_usb.c ****   * the "License"; You may not use this file except in compliance with the
  34:Drivers/STM32F0xx_HAL_Driver/Src/stm32f0xx_ll_usb.c ****   * License. You may obtain a copy of the License at:
  35:Drivers/STM32F0xx_HAL_Driver/Src/stm32f0xx_ll_usb.c ****   *                        opensource.org/licenses/BSD-3-Clause
  36:Drivers/STM32F0xx_HAL_Driver/Src/stm32f0xx_ll_usb.c ****   *
  37:Drivers/STM32F0xx_HAL_Driver/Src/stm32f0xx_ll_usb.c ****   ******************************************************************************
  38:Drivers/STM32F0xx_HAL_Driver/Src/stm32f0xx_ll_usb.c ****   */
  39:Drivers/STM32F0xx_HAL_Driver/Src/stm32f0xx_ll_usb.c **** 
  40:Drivers/STM32F0xx_HAL_Driver/Src/stm32f0xx_ll_usb.c **** /* Includes ------------------------------------------------------------------*/
  41:Drivers/STM32F0xx_HAL_Driver/Src/stm32f0xx_ll_usb.c **** #include "stm32f0xx_hal.h"
  42:Drivers/STM32F0xx_HAL_Driver/Src/stm32f0xx_ll_usb.c **** 
  43:Drivers/STM32F0xx_HAL_Driver/Src/stm32f0xx_ll_usb.c **** /** @addtogroup STM32F0xx_LL_USB_DRIVER
  44:Drivers/STM32F0xx_HAL_Driver/Src/stm32f0xx_ll_usb.c ****   * @{
  45:Drivers/STM32F0xx_HAL_Driver/Src/stm32f0xx_ll_usb.c ****   */
  46:Drivers/STM32F0xx_HAL_Driver/Src/stm32f0xx_ll_usb.c **** 
  47:Drivers/STM32F0xx_HAL_Driver/Src/stm32f0xx_ll_usb.c **** #if defined (HAL_PCD_MODULE_ENABLED) || defined (HAL_HCD_MODULE_ENABLED)
  48:Drivers/STM32F0xx_HAL_Driver/Src/stm32f0xx_ll_usb.c **** #if defined (USB)
  49:Drivers/STM32F0xx_HAL_Driver/Src/stm32f0xx_ll_usb.c **** /* Private typedef -----------------------------------------------------------*/
  50:Drivers/STM32F0xx_HAL_Driver/Src/stm32f0xx_ll_usb.c **** /* Private define ------------------------------------------------------------*/
  51:Drivers/STM32F0xx_HAL_Driver/Src/stm32f0xx_ll_usb.c **** /* Private macro -------------------------------------------------------------*/
  52:Drivers/STM32F0xx_HAL_Driver/Src/stm32f0xx_ll_usb.c **** /* Private variables ---------------------------------------------------------*/
  53:Drivers/STM32F0xx_HAL_Driver/Src/stm32f0xx_ll_usb.c **** /* Private function prototypes -----------------------------------------------*/
  54:Drivers/STM32F0xx_HAL_Driver/Src/stm32f0xx_ll_usb.c **** /* Private functions ---------------------------------------------------------*/
  55:Drivers/STM32F0xx_HAL_Driver/Src/stm32f0xx_ll_usb.c **** 
  56:Drivers/STM32F0xx_HAL_Driver/Src/stm32f0xx_ll_usb.c **** 
  57:Drivers/STM32F0xx_HAL_Driver/Src/stm32f0xx_ll_usb.c **** /**
  58:Drivers/STM32F0xx_HAL_Driver/Src/stm32f0xx_ll_usb.c ****   * @brief  Initializes the USB Core
  59:Drivers/STM32F0xx_HAL_Driver/Src/stm32f0xx_ll_usb.c ****   * @param  USBx USB Instance
  60:Drivers/STM32F0xx_HAL_Driver/Src/stm32f0xx_ll_usb.c ****   * @param  cfg pointer to a USB_CfgTypeDef structure that contains
  61:Drivers/STM32F0xx_HAL_Driver/Src/stm32f0xx_ll_usb.c ****   *         the configuration information for the specified USBx peripheral.
  62:Drivers/STM32F0xx_HAL_Driver/Src/stm32f0xx_ll_usb.c ****   * @retval HAL status
  63:Drivers/STM32F0xx_HAL_Driver/Src/stm32f0xx_ll_usb.c ****   */
  64:Drivers/STM32F0xx_HAL_Driver/Src/stm32f0xx_ll_usb.c **** HAL_StatusTypeDef USB_CoreInit(USB_TypeDef *USBx, USB_CfgTypeDef cfg)
  65:Drivers/STM32F0xx_HAL_Driver/Src/stm32f0xx_ll_usb.c **** {
  28              		.loc 1 65 1 view -0
  29              		.cfi_startproc
  30              		@ args = 36, pretend = 16, frame = 0
  31              		@ frame_needed = 0, uses_anonymous_args = 0
  32              		@ link register save eliminated.
  33              		.loc 1 65 1 is_stmt 0 view .LVU1
  34 0000 84B0     		sub	sp, sp, #16
  35              	.LCFI0:
  36              		.cfi_def_cfa_offset 16
  37 0002 0191     		str	r1, [sp, #4]
  38 0004 0292     		str	r2, [sp, #8]
  39 0006 0393     		str	r3, [sp, #12]
  66:Drivers/STM32F0xx_HAL_Driver/Src/stm32f0xx_ll_usb.c ****   /* Prevent unused argument(s) compilation warning */
  67:Drivers/STM32F0xx_HAL_Driver/Src/stm32f0xx_ll_usb.c ****   UNUSED(USBx);
  40              		.loc 1 67 3 is_stmt 1 view .LVU2
  68:Drivers/STM32F0xx_HAL_Driver/Src/stm32f0xx_ll_usb.c ****   UNUSED(cfg);
  41              		.loc 1 68 3 view .LVU3
  69:Drivers/STM32F0xx_HAL_Driver/Src/stm32f0xx_ll_usb.c **** 
  70:Drivers/STM32F0xx_HAL_Driver/Src/stm32f0xx_ll_usb.c ****   /* NOTE : - This function is not required by USB Device FS peripheral, it is used
  71:Drivers/STM32F0xx_HAL_Driver/Src/stm32f0xx_ll_usb.c ****               only by USB OTG FS peripheral.
  72:Drivers/STM32F0xx_HAL_Driver/Src/stm32f0xx_ll_usb.c ****             - This function is added to ensure compatibility across platforms.
  73:Drivers/STM32F0xx_HAL_Driver/Src/stm32f0xx_ll_usb.c ****    */
  74:Drivers/STM32F0xx_HAL_Driver/Src/stm32f0xx_ll_usb.c **** 
ARM GAS  /tmp/ccnaAMFS.s 			page 3


  75:Drivers/STM32F0xx_HAL_Driver/Src/stm32f0xx_ll_usb.c ****   return HAL_OK;
  42              		.loc 1 75 3 view .LVU4
  76:Drivers/STM32F0xx_HAL_Driver/Src/stm32f0xx_ll_usb.c **** }
  43              		.loc 1 76 1 is_stmt 0 view .LVU5
  44 0008 0020     		movs	r0, #0
  45              	.LVL1:
  46              		.loc 1 76 1 view .LVU6
  47              		@ sp needed
  48 000a 04B0     		add	sp, sp, #16
  49 000c 7047     		bx	lr
  50              		.cfi_endproc
  51              	.LFE40:
  53              		.section	.text.USB_EnableGlobalInt,"ax",%progbits
  54              		.align	1
  55              		.global	USB_EnableGlobalInt
  56              		.syntax unified
  57              		.code	16
  58              		.thumb_func
  59              		.fpu softvfp
  61              	USB_EnableGlobalInt:
  62              	.LVL2:
  63              	.LFB41:
  77:Drivers/STM32F0xx_HAL_Driver/Src/stm32f0xx_ll_usb.c **** 
  78:Drivers/STM32F0xx_HAL_Driver/Src/stm32f0xx_ll_usb.c **** /**
  79:Drivers/STM32F0xx_HAL_Driver/Src/stm32f0xx_ll_usb.c ****   * @brief  USB_EnableGlobalInt
  80:Drivers/STM32F0xx_HAL_Driver/Src/stm32f0xx_ll_usb.c ****   *         Enables the controller's Global Int in the AHB Config reg
  81:Drivers/STM32F0xx_HAL_Driver/Src/stm32f0xx_ll_usb.c ****   * @param  USBx Selected device
  82:Drivers/STM32F0xx_HAL_Driver/Src/stm32f0xx_ll_usb.c ****   * @retval HAL status
  83:Drivers/STM32F0xx_HAL_Driver/Src/stm32f0xx_ll_usb.c ****   */
  84:Drivers/STM32F0xx_HAL_Driver/Src/stm32f0xx_ll_usb.c **** HAL_StatusTypeDef USB_EnableGlobalInt(USB_TypeDef *USBx)
  85:Drivers/STM32F0xx_HAL_Driver/Src/stm32f0xx_ll_usb.c **** {
  64              		.loc 1 85 1 is_stmt 1 view -0
  65              		.cfi_startproc
  66              		@ args = 0, pretend = 0, frame = 0
  67              		@ frame_needed = 0, uses_anonymous_args = 0
  68              		@ link register save eliminated.
  86:Drivers/STM32F0xx_HAL_Driver/Src/stm32f0xx_ll_usb.c ****   uint32_t winterruptmask;
  69              		.loc 1 86 3 view .LVU8
  87:Drivers/STM32F0xx_HAL_Driver/Src/stm32f0xx_ll_usb.c **** 
  88:Drivers/STM32F0xx_HAL_Driver/Src/stm32f0xx_ll_usb.c ****   /* Clear pending interrupts */
  89:Drivers/STM32F0xx_HAL_Driver/Src/stm32f0xx_ll_usb.c ****   USBx->ISTR = 0U;
  70              		.loc 1 89 3 view .LVU9
  71              		.loc 1 89 14 is_stmt 0 view .LVU10
  72 0000 4423     		movs	r3, #68
  73 0002 0022     		movs	r2, #0
  74 0004 C252     		strh	r2, [r0, r3]
  90:Drivers/STM32F0xx_HAL_Driver/Src/stm32f0xx_ll_usb.c **** 
  91:Drivers/STM32F0xx_HAL_Driver/Src/stm32f0xx_ll_usb.c ****   /* Set winterruptmask variable */
  92:Drivers/STM32F0xx_HAL_Driver/Src/stm32f0xx_ll_usb.c ****   winterruptmask = USB_CNTR_CTRM  | USB_CNTR_WKUPM |
  75              		.loc 1 92 3 is_stmt 1 view .LVU11
  76              	.LVL3:
  93:Drivers/STM32F0xx_HAL_Driver/Src/stm32f0xx_ll_usb.c ****                    USB_CNTR_SUSPM | USB_CNTR_ERRM |
  94:Drivers/STM32F0xx_HAL_Driver/Src/stm32f0xx_ll_usb.c ****                    USB_CNTR_SOFM | USB_CNTR_ESOFM |
  95:Drivers/STM32F0xx_HAL_Driver/Src/stm32f0xx_ll_usb.c ****                    USB_CNTR_RESETM | USB_CNTR_L1REQM;
  96:Drivers/STM32F0xx_HAL_Driver/Src/stm32f0xx_ll_usb.c **** 
  97:Drivers/STM32F0xx_HAL_Driver/Src/stm32f0xx_ll_usb.c ****   /* Set interrupt mask */
  98:Drivers/STM32F0xx_HAL_Driver/Src/stm32f0xx_ll_usb.c ****   USBx->CNTR = (uint16_t)winterruptmask;
ARM GAS  /tmp/ccnaAMFS.s 			page 4


  77              		.loc 1 98 3 view .LVU12
  78              		.loc 1 98 14 is_stmt 0 view .LVU13
  79 0006 043B     		subs	r3, r3, #4
  80 0008 014A     		ldr	r2, .L3
  81 000a C252     		strh	r2, [r0, r3]
  99:Drivers/STM32F0xx_HAL_Driver/Src/stm32f0xx_ll_usb.c **** 
 100:Drivers/STM32F0xx_HAL_Driver/Src/stm32f0xx_ll_usb.c ****   return HAL_OK;
  82              		.loc 1 100 3 is_stmt 1 view .LVU14
 101:Drivers/STM32F0xx_HAL_Driver/Src/stm32f0xx_ll_usb.c **** }
  83              		.loc 1 101 1 is_stmt 0 view .LVU15
  84 000c 0020     		movs	r0, #0
  85              	.LVL4:
  86              		.loc 1 101 1 view .LVU16
  87              		@ sp needed
  88 000e 7047     		bx	lr
  89              	.L4:
  90              		.align	2
  91              	.L3:
  92 0010 80BFFFFF 		.word	-16512
  93              		.cfi_endproc
  94              	.LFE41:
  96              		.section	.text.USB_DisableGlobalInt,"ax",%progbits
  97              		.align	1
  98              		.global	USB_DisableGlobalInt
  99              		.syntax unified
 100              		.code	16
 101              		.thumb_func
 102              		.fpu softvfp
 104              	USB_DisableGlobalInt:
 105              	.LVL5:
 106              	.LFB42:
 102:Drivers/STM32F0xx_HAL_Driver/Src/stm32f0xx_ll_usb.c **** 
 103:Drivers/STM32F0xx_HAL_Driver/Src/stm32f0xx_ll_usb.c **** /**
 104:Drivers/STM32F0xx_HAL_Driver/Src/stm32f0xx_ll_usb.c ****   * @brief  USB_DisableGlobalInt
 105:Drivers/STM32F0xx_HAL_Driver/Src/stm32f0xx_ll_usb.c ****   *         Disable the controller's Global Int in the AHB Config reg
 106:Drivers/STM32F0xx_HAL_Driver/Src/stm32f0xx_ll_usb.c ****   * @param  USBx Selected device
 107:Drivers/STM32F0xx_HAL_Driver/Src/stm32f0xx_ll_usb.c ****   * @retval HAL status
 108:Drivers/STM32F0xx_HAL_Driver/Src/stm32f0xx_ll_usb.c ****   */
 109:Drivers/STM32F0xx_HAL_Driver/Src/stm32f0xx_ll_usb.c **** HAL_StatusTypeDef USB_DisableGlobalInt(USB_TypeDef *USBx)
 110:Drivers/STM32F0xx_HAL_Driver/Src/stm32f0xx_ll_usb.c **** {
 107              		.loc 1 110 1 is_stmt 1 view -0
 108              		.cfi_startproc
 109              		@ args = 0, pretend = 0, frame = 0
 110              		@ frame_needed = 0, uses_anonymous_args = 0
 111              		@ link register save eliminated.
 111:Drivers/STM32F0xx_HAL_Driver/Src/stm32f0xx_ll_usb.c ****   uint32_t winterruptmask;
 112              		.loc 1 111 3 view .LVU18
 112:Drivers/STM32F0xx_HAL_Driver/Src/stm32f0xx_ll_usb.c **** 
 113:Drivers/STM32F0xx_HAL_Driver/Src/stm32f0xx_ll_usb.c ****   /* Set winterruptmask variable */
 114:Drivers/STM32F0xx_HAL_Driver/Src/stm32f0xx_ll_usb.c ****   winterruptmask = USB_CNTR_CTRM  | USB_CNTR_WKUPM |
 113              		.loc 1 114 3 view .LVU19
 115:Drivers/STM32F0xx_HAL_Driver/Src/stm32f0xx_ll_usb.c ****                    USB_CNTR_SUSPM | USB_CNTR_ERRM |
 116:Drivers/STM32F0xx_HAL_Driver/Src/stm32f0xx_ll_usb.c ****                    USB_CNTR_SOFM | USB_CNTR_ESOFM |
 117:Drivers/STM32F0xx_HAL_Driver/Src/stm32f0xx_ll_usb.c ****                    USB_CNTR_RESETM | USB_CNTR_L1REQM;
 118:Drivers/STM32F0xx_HAL_Driver/Src/stm32f0xx_ll_usb.c **** 
 119:Drivers/STM32F0xx_HAL_Driver/Src/stm32f0xx_ll_usb.c ****   /* Clear interrupt mask */
 120:Drivers/STM32F0xx_HAL_Driver/Src/stm32f0xx_ll_usb.c ****   USBx->CNTR &= (uint16_t)(~winterruptmask);
ARM GAS  /tmp/ccnaAMFS.s 			page 5


 114              		.loc 1 120 3 view .LVU20
 115              		.loc 1 120 14 is_stmt 0 view .LVU21
 116 0000 4022     		movs	r2, #64
 117 0002 835A     		ldrh	r3, [r0, r2]
 118 0004 0249     		ldr	r1, .L6
 119 0006 0B40     		ands	r3, r1
 120 0008 8352     		strh	r3, [r0, r2]
 121:Drivers/STM32F0xx_HAL_Driver/Src/stm32f0xx_ll_usb.c **** 
 122:Drivers/STM32F0xx_HAL_Driver/Src/stm32f0xx_ll_usb.c ****   return HAL_OK;
 121              		.loc 1 122 3 is_stmt 1 view .LVU22
 123:Drivers/STM32F0xx_HAL_Driver/Src/stm32f0xx_ll_usb.c **** }
 122              		.loc 1 123 1 is_stmt 0 view .LVU23
 123 000a 0020     		movs	r0, #0
 124              	.LVL6:
 125              		.loc 1 123 1 view .LVU24
 126              		@ sp needed
 127 000c 7047     		bx	lr
 128              	.L7:
 129 000e C046     		.align	2
 130              	.L6:
 131 0010 7F400000 		.word	16511
 132              		.cfi_endproc
 133              	.LFE42:
 135              		.section	.text.USB_SetCurrentMode,"ax",%progbits
 136              		.align	1
 137              		.global	USB_SetCurrentMode
 138              		.syntax unified
 139              		.code	16
 140              		.thumb_func
 141              		.fpu softvfp
 143              	USB_SetCurrentMode:
 144              	.LVL7:
 145              	.LFB43:
 124:Drivers/STM32F0xx_HAL_Driver/Src/stm32f0xx_ll_usb.c **** 
 125:Drivers/STM32F0xx_HAL_Driver/Src/stm32f0xx_ll_usb.c **** /**
 126:Drivers/STM32F0xx_HAL_Driver/Src/stm32f0xx_ll_usb.c ****   * @brief  USB_SetCurrentMode Set functional mode
 127:Drivers/STM32F0xx_HAL_Driver/Src/stm32f0xx_ll_usb.c ****   * @param  USBx Selected device
 128:Drivers/STM32F0xx_HAL_Driver/Src/stm32f0xx_ll_usb.c ****   * @param  mode current core mode
 129:Drivers/STM32F0xx_HAL_Driver/Src/stm32f0xx_ll_usb.c ****   *          This parameter can be one of the these values:
 130:Drivers/STM32F0xx_HAL_Driver/Src/stm32f0xx_ll_usb.c ****   *            @arg USB_DEVICE_MODE Peripheral mode
 131:Drivers/STM32F0xx_HAL_Driver/Src/stm32f0xx_ll_usb.c ****   * @retval HAL status
 132:Drivers/STM32F0xx_HAL_Driver/Src/stm32f0xx_ll_usb.c ****   */
 133:Drivers/STM32F0xx_HAL_Driver/Src/stm32f0xx_ll_usb.c **** HAL_StatusTypeDef USB_SetCurrentMode(USB_TypeDef *USBx, USB_ModeTypeDef mode)
 134:Drivers/STM32F0xx_HAL_Driver/Src/stm32f0xx_ll_usb.c **** {
 146              		.loc 1 134 1 is_stmt 1 view -0
 147              		.cfi_startproc
 148              		@ args = 0, pretend = 0, frame = 0
 149              		@ frame_needed = 0, uses_anonymous_args = 0
 150              		@ link register save eliminated.
 135:Drivers/STM32F0xx_HAL_Driver/Src/stm32f0xx_ll_usb.c ****   /* Prevent unused argument(s) compilation warning */
 136:Drivers/STM32F0xx_HAL_Driver/Src/stm32f0xx_ll_usb.c ****   UNUSED(USBx);
 151              		.loc 1 136 3 view .LVU26
 137:Drivers/STM32F0xx_HAL_Driver/Src/stm32f0xx_ll_usb.c ****   UNUSED(mode);
 152              		.loc 1 137 3 view .LVU27
 138:Drivers/STM32F0xx_HAL_Driver/Src/stm32f0xx_ll_usb.c **** 
 139:Drivers/STM32F0xx_HAL_Driver/Src/stm32f0xx_ll_usb.c ****   /* NOTE : - This function is not required by USB Device FS peripheral, it is used
 140:Drivers/STM32F0xx_HAL_Driver/Src/stm32f0xx_ll_usb.c ****               only by USB OTG FS peripheral.
ARM GAS  /tmp/ccnaAMFS.s 			page 6


 141:Drivers/STM32F0xx_HAL_Driver/Src/stm32f0xx_ll_usb.c ****             - This function is added to ensure compatibility across platforms.
 142:Drivers/STM32F0xx_HAL_Driver/Src/stm32f0xx_ll_usb.c ****    */
 143:Drivers/STM32F0xx_HAL_Driver/Src/stm32f0xx_ll_usb.c ****   return HAL_OK;
 153              		.loc 1 143 3 view .LVU28
 144:Drivers/STM32F0xx_HAL_Driver/Src/stm32f0xx_ll_usb.c **** }
 154              		.loc 1 144 1 is_stmt 0 view .LVU29
 155 0000 0020     		movs	r0, #0
 156              	.LVL8:
 157              		.loc 1 144 1 view .LVU30
 158              		@ sp needed
 159 0002 7047     		bx	lr
 160              		.cfi_endproc
 161              	.LFE43:
 163              		.section	.text.USB_DevInit,"ax",%progbits
 164              		.align	1
 165              		.global	USB_DevInit
 166              		.syntax unified
 167              		.code	16
 168              		.thumb_func
 169              		.fpu softvfp
 171              	USB_DevInit:
 172              	.LVL9:
 173              	.LFB44:
 145:Drivers/STM32F0xx_HAL_Driver/Src/stm32f0xx_ll_usb.c **** 
 146:Drivers/STM32F0xx_HAL_Driver/Src/stm32f0xx_ll_usb.c **** /**
 147:Drivers/STM32F0xx_HAL_Driver/Src/stm32f0xx_ll_usb.c ****   * @brief  USB_DevInit Initializes the USB controller registers
 148:Drivers/STM32F0xx_HAL_Driver/Src/stm32f0xx_ll_usb.c ****   *         for device mode
 149:Drivers/STM32F0xx_HAL_Driver/Src/stm32f0xx_ll_usb.c ****   * @param  USBx Selected device
 150:Drivers/STM32F0xx_HAL_Driver/Src/stm32f0xx_ll_usb.c ****   * @param  cfg  pointer to a USB_CfgTypeDef structure that contains
 151:Drivers/STM32F0xx_HAL_Driver/Src/stm32f0xx_ll_usb.c ****   *         the configuration information for the specified USBx peripheral.
 152:Drivers/STM32F0xx_HAL_Driver/Src/stm32f0xx_ll_usb.c ****   * @retval HAL status
 153:Drivers/STM32F0xx_HAL_Driver/Src/stm32f0xx_ll_usb.c ****   */
 154:Drivers/STM32F0xx_HAL_Driver/Src/stm32f0xx_ll_usb.c **** HAL_StatusTypeDef USB_DevInit(USB_TypeDef *USBx, USB_CfgTypeDef cfg)
 155:Drivers/STM32F0xx_HAL_Driver/Src/stm32f0xx_ll_usb.c **** {
 174              		.loc 1 155 1 is_stmt 1 view -0
 175              		.cfi_startproc
 176              		@ args = 36, pretend = 16, frame = 0
 177              		@ frame_needed = 0, uses_anonymous_args = 0
 178              		@ link register save eliminated.
 179              		.loc 1 155 1 is_stmt 0 view .LVU32
 180 0000 84B0     		sub	sp, sp, #16
 181              	.LCFI1:
 182              		.cfi_def_cfa_offset 16
 183 0002 0191     		str	r1, [sp, #4]
 184 0004 0292     		str	r2, [sp, #8]
 185 0006 0393     		str	r3, [sp, #12]
 156:Drivers/STM32F0xx_HAL_Driver/Src/stm32f0xx_ll_usb.c ****   /* Prevent unused argument(s) compilation warning */
 157:Drivers/STM32F0xx_HAL_Driver/Src/stm32f0xx_ll_usb.c ****   UNUSED(cfg);
 186              		.loc 1 157 3 is_stmt 1 view .LVU33
 158:Drivers/STM32F0xx_HAL_Driver/Src/stm32f0xx_ll_usb.c **** 
 159:Drivers/STM32F0xx_HAL_Driver/Src/stm32f0xx_ll_usb.c ****   /* Init Device */
 160:Drivers/STM32F0xx_HAL_Driver/Src/stm32f0xx_ll_usb.c ****   /* CNTR_FRES = 1 */
 161:Drivers/STM32F0xx_HAL_Driver/Src/stm32f0xx_ll_usb.c ****   USBx->CNTR = (uint16_t)USB_CNTR_FRES;
 187              		.loc 1 161 3 view .LVU34
 188              		.loc 1 161 14 is_stmt 0 view .LVU35
 189 0008 4022     		movs	r2, #64
 190 000a 0123     		movs	r3, #1
ARM GAS  /tmp/ccnaAMFS.s 			page 7


 191 000c 8352     		strh	r3, [r0, r2]
 162:Drivers/STM32F0xx_HAL_Driver/Src/stm32f0xx_ll_usb.c **** 
 163:Drivers/STM32F0xx_HAL_Driver/Src/stm32f0xx_ll_usb.c ****   /* CNTR_FRES = 0 */
 164:Drivers/STM32F0xx_HAL_Driver/Src/stm32f0xx_ll_usb.c ****   USBx->CNTR = 0U;
 192              		.loc 1 164 3 is_stmt 1 view .LVU36
 193              		.loc 1 164 14 is_stmt 0 view .LVU37
 194 000e 0023     		movs	r3, #0
 195 0010 8352     		strh	r3, [r0, r2]
 165:Drivers/STM32F0xx_HAL_Driver/Src/stm32f0xx_ll_usb.c **** 
 166:Drivers/STM32F0xx_HAL_Driver/Src/stm32f0xx_ll_usb.c ****   /* Clear pending interrupts */
 167:Drivers/STM32F0xx_HAL_Driver/Src/stm32f0xx_ll_usb.c ****   USBx->ISTR = 0U;
 196              		.loc 1 167 3 is_stmt 1 view .LVU38
 197              		.loc 1 167 14 is_stmt 0 view .LVU39
 198 0012 0432     		adds	r2, r2, #4
 199 0014 8352     		strh	r3, [r0, r2]
 168:Drivers/STM32F0xx_HAL_Driver/Src/stm32f0xx_ll_usb.c **** 
 169:Drivers/STM32F0xx_HAL_Driver/Src/stm32f0xx_ll_usb.c ****   /*Set Btable Address*/
 170:Drivers/STM32F0xx_HAL_Driver/Src/stm32f0xx_ll_usb.c ****   USBx->BTABLE = BTABLE_ADDRESS;
 200              		.loc 1 170 3 is_stmt 1 view .LVU40
 201              		.loc 1 170 16 is_stmt 0 view .LVU41
 202 0016 0C32     		adds	r2, r2, #12
 203 0018 8352     		strh	r3, [r0, r2]
 171:Drivers/STM32F0xx_HAL_Driver/Src/stm32f0xx_ll_usb.c **** 
 172:Drivers/STM32F0xx_HAL_Driver/Src/stm32f0xx_ll_usb.c ****   return HAL_OK;
 204              		.loc 1 172 3 is_stmt 1 view .LVU42
 173:Drivers/STM32F0xx_HAL_Driver/Src/stm32f0xx_ll_usb.c **** }
 205              		.loc 1 173 1 is_stmt 0 view .LVU43
 206 001a 0020     		movs	r0, #0
 207              	.LVL10:
 208              		.loc 1 173 1 view .LVU44
 209              		@ sp needed
 210 001c 04B0     		add	sp, sp, #16
 211 001e 7047     		bx	lr
 212              		.cfi_endproc
 213              	.LFE44:
 215              		.section	.text.USB_ActivateEndpoint,"ax",%progbits
 216              		.align	1
 217              		.global	USB_ActivateEndpoint
 218              		.syntax unified
 219              		.code	16
 220              		.thumb_func
 221              		.fpu softvfp
 223              	USB_ActivateEndpoint:
 224              	.LVL11:
 225              	.LFB45:
 174:Drivers/STM32F0xx_HAL_Driver/Src/stm32f0xx_ll_usb.c **** 
 175:Drivers/STM32F0xx_HAL_Driver/Src/stm32f0xx_ll_usb.c **** #if defined (HAL_PCD_MODULE_ENABLED)
 176:Drivers/STM32F0xx_HAL_Driver/Src/stm32f0xx_ll_usb.c **** /**
 177:Drivers/STM32F0xx_HAL_Driver/Src/stm32f0xx_ll_usb.c ****   * @brief  Activate and configure an endpoint
 178:Drivers/STM32F0xx_HAL_Driver/Src/stm32f0xx_ll_usb.c ****   * @param  USBx Selected device
 179:Drivers/STM32F0xx_HAL_Driver/Src/stm32f0xx_ll_usb.c ****   * @param  ep pointer to endpoint structure
 180:Drivers/STM32F0xx_HAL_Driver/Src/stm32f0xx_ll_usb.c ****   * @retval HAL status
 181:Drivers/STM32F0xx_HAL_Driver/Src/stm32f0xx_ll_usb.c ****   */
 182:Drivers/STM32F0xx_HAL_Driver/Src/stm32f0xx_ll_usb.c **** HAL_StatusTypeDef USB_ActivateEndpoint(USB_TypeDef *USBx, USB_EPTypeDef *ep)
 183:Drivers/STM32F0xx_HAL_Driver/Src/stm32f0xx_ll_usb.c **** {
 226              		.loc 1 183 1 is_stmt 1 view -0
 227              		.cfi_startproc
ARM GAS  /tmp/ccnaAMFS.s 			page 8


 228              		@ args = 0, pretend = 0, frame = 0
 229              		@ frame_needed = 0, uses_anonymous_args = 0
 230              		.loc 1 183 1 is_stmt 0 view .LVU46
 231 0000 F0B5     		push	{r4, r5, r6, r7, lr}
 232              	.LCFI2:
 233              		.cfi_def_cfa_offset 20
 234              		.cfi_offset 4, -20
 235              		.cfi_offset 5, -16
 236              		.cfi_offset 6, -12
 237              		.cfi_offset 7, -8
 238              		.cfi_offset 14, -4
 239 0002 0300     		movs	r3, r0
 184:Drivers/STM32F0xx_HAL_Driver/Src/stm32f0xx_ll_usb.c ****   HAL_StatusTypeDef ret = HAL_OK;
 240              		.loc 1 184 3 is_stmt 1 view .LVU47
 241              	.LVL12:
 185:Drivers/STM32F0xx_HAL_Driver/Src/stm32f0xx_ll_usb.c ****   uint16_t wEpRegVal;
 242              		.loc 1 185 3 view .LVU48
 186:Drivers/STM32F0xx_HAL_Driver/Src/stm32f0xx_ll_usb.c **** 
 187:Drivers/STM32F0xx_HAL_Driver/Src/stm32f0xx_ll_usb.c ****   wEpRegVal = PCD_GET_ENDPOINT(USBx, ep->num) & USB_EP_T_MASK;
 243              		.loc 1 187 3 view .LVU49
 244              		.loc 1 187 15 is_stmt 0 view .LVU50
 245 0004 0D78     		ldrb	r5, [r1]
 246 0006 AD00     		lsls	r5, r5, #2
 247 0008 4519     		adds	r5, r0, r5
 248              		.loc 1 187 47 view .LVU51
 249 000a 2A88     		ldrh	r2, [r5]
 250              		.loc 1 187 13 view .LVU52
 251 000c B148     		ldr	r0, .L40
 252              	.LVL13:
 253              		.loc 1 187 13 view .LVU53
 254 000e 0240     		ands	r2, r0
 255              	.LVL14:
 188:Drivers/STM32F0xx_HAL_Driver/Src/stm32f0xx_ll_usb.c **** 
 189:Drivers/STM32F0xx_HAL_Driver/Src/stm32f0xx_ll_usb.c ****   /* initialize Endpoint */
 190:Drivers/STM32F0xx_HAL_Driver/Src/stm32f0xx_ll_usb.c ****   switch (ep->type)
 256              		.loc 1 190 3 is_stmt 1 view .LVU54
 257              		.loc 1 190 13 is_stmt 0 view .LVU55
 258 0010 C878     		ldrb	r0, [r1, #3]
 259              		.loc 1 190 3 view .LVU56
 260 0012 0228     		cmp	r0, #2
 261 0014 5AD0     		beq	.L36
 262 0016 0AD8     		bhi	.L12
 263 0018 0028     		cmp	r0, #0
 264 001a 53D0     		beq	.L13
 265 001c 0128     		cmp	r0, #1
 266 001e 04D1     		bne	.L37
 191:Drivers/STM32F0xx_HAL_Driver/Src/stm32f0xx_ll_usb.c ****   {
 192:Drivers/STM32F0xx_HAL_Driver/Src/stm32f0xx_ll_usb.c ****     case EP_TYPE_CTRL:
 193:Drivers/STM32F0xx_HAL_Driver/Src/stm32f0xx_ll_usb.c ****       wEpRegVal |= USB_EP_CONTROL;
 194:Drivers/STM32F0xx_HAL_Driver/Src/stm32f0xx_ll_usb.c ****       break;
 195:Drivers/STM32F0xx_HAL_Driver/Src/stm32f0xx_ll_usb.c **** 
 196:Drivers/STM32F0xx_HAL_Driver/Src/stm32f0xx_ll_usb.c ****     case EP_TYPE_BULK:
 197:Drivers/STM32F0xx_HAL_Driver/Src/stm32f0xx_ll_usb.c ****       wEpRegVal |= USB_EP_BULK;
 198:Drivers/STM32F0xx_HAL_Driver/Src/stm32f0xx_ll_usb.c ****       break;
 199:Drivers/STM32F0xx_HAL_Driver/Src/stm32f0xx_ll_usb.c **** 
 200:Drivers/STM32F0xx_HAL_Driver/Src/stm32f0xx_ll_usb.c ****     case EP_TYPE_INTR:
 201:Drivers/STM32F0xx_HAL_Driver/Src/stm32f0xx_ll_usb.c ****       wEpRegVal |= USB_EP_INTERRUPT;
ARM GAS  /tmp/ccnaAMFS.s 			page 9


 202:Drivers/STM32F0xx_HAL_Driver/Src/stm32f0xx_ll_usb.c ****       break;
 203:Drivers/STM32F0xx_HAL_Driver/Src/stm32f0xx_ll_usb.c **** 
 204:Drivers/STM32F0xx_HAL_Driver/Src/stm32f0xx_ll_usb.c ****     case EP_TYPE_ISOC:
 205:Drivers/STM32F0xx_HAL_Driver/Src/stm32f0xx_ll_usb.c ****       wEpRegVal |= USB_EP_ISOCHRONOUS;
 267              		.loc 1 205 7 is_stmt 1 view .LVU57
 268              		.loc 1 205 17 is_stmt 0 view .LVU58
 269 0020 8020     		movs	r0, #128
 270 0022 C000     		lsls	r0, r0, #3
 271 0024 0243     		orrs	r2, r0
 272              	.LVL15:
 206:Drivers/STM32F0xx_HAL_Driver/Src/stm32f0xx_ll_usb.c ****       break;
 273              		.loc 1 206 7 is_stmt 1 view .LVU59
 184:Drivers/STM32F0xx_HAL_Driver/Src/stm32f0xx_ll_usb.c ****   uint16_t wEpRegVal;
 274              		.loc 1 184 21 is_stmt 0 view .LVU60
 275 0026 0020     		movs	r0, #0
 276              		.loc 1 206 7 view .LVU61
 277 0028 09E0     		b	.L11
 278              	.L37:
 207:Drivers/STM32F0xx_HAL_Driver/Src/stm32f0xx_ll_usb.c **** 
 208:Drivers/STM32F0xx_HAL_Driver/Src/stm32f0xx_ll_usb.c ****     default:
 209:Drivers/STM32F0xx_HAL_Driver/Src/stm32f0xx_ll_usb.c ****       ret = HAL_ERROR;
 279              		.loc 1 209 11 view .LVU62
 280 002a 0120     		movs	r0, #1
 281 002c 07E0     		b	.L11
 282              	.L12:
 190:Drivers/STM32F0xx_HAL_Driver/Src/stm32f0xx_ll_usb.c ****   {
 283              		.loc 1 190 3 view .LVU63
 284 002e 0328     		cmp	r0, #3
 285 0030 04D1     		bne	.L38
 201:Drivers/STM32F0xx_HAL_Driver/Src/stm32f0xx_ll_usb.c ****       break;
 286              		.loc 1 201 7 is_stmt 1 view .LVU64
 201:Drivers/STM32F0xx_HAL_Driver/Src/stm32f0xx_ll_usb.c ****       break;
 287              		.loc 1 201 17 is_stmt 0 view .LVU65
 288 0032 C020     		movs	r0, #192
 289 0034 C000     		lsls	r0, r0, #3
 290 0036 0243     		orrs	r2, r0
 291              	.LVL16:
 202:Drivers/STM32F0xx_HAL_Driver/Src/stm32f0xx_ll_usb.c **** 
 292              		.loc 1 202 7 is_stmt 1 view .LVU66
 184:Drivers/STM32F0xx_HAL_Driver/Src/stm32f0xx_ll_usb.c ****   uint16_t wEpRegVal;
 293              		.loc 1 184 21 is_stmt 0 view .LVU67
 294 0038 0020     		movs	r0, #0
 202:Drivers/STM32F0xx_HAL_Driver/Src/stm32f0xx_ll_usb.c **** 
 295              		.loc 1 202 7 view .LVU68
 296 003a 00E0     		b	.L11
 297              	.L38:
 298              		.loc 1 209 11 view .LVU69
 299 003c 0120     		movs	r0, #1
 300              	.L11:
 301              	.LVL17:
 210:Drivers/STM32F0xx_HAL_Driver/Src/stm32f0xx_ll_usb.c ****       break;
 211:Drivers/STM32F0xx_HAL_Driver/Src/stm32f0xx_ll_usb.c ****   }
 212:Drivers/STM32F0xx_HAL_Driver/Src/stm32f0xx_ll_usb.c **** 
 213:Drivers/STM32F0xx_HAL_Driver/Src/stm32f0xx_ll_usb.c ****   PCD_SET_ENDPOINT(USBx, ep->num, (wEpRegVal | USB_EP_CTR_RX | USB_EP_CTR_TX));
 302              		.loc 1 213 3 is_stmt 1 view .LVU70
 303 003e A64C     		ldr	r4, .L40+4
 304 0040 2243     		orrs	r2, r4
ARM GAS  /tmp/ccnaAMFS.s 			page 10


 305              	.LVL18:
 306              		.loc 1 213 3 is_stmt 0 view .LVU71
 307 0042 92B2     		uxth	r2, r2
 308 0044 2A80     		strh	r2, [r5]
 214:Drivers/STM32F0xx_HAL_Driver/Src/stm32f0xx_ll_usb.c **** 
 215:Drivers/STM32F0xx_HAL_Driver/Src/stm32f0xx_ll_usb.c ****   PCD_SET_EP_ADDRESS(USBx, ep->num, ep->num);
 309              		.loc 1 215 3 is_stmt 1 view .LVU72
 310              	.LBB2:
 311              		.loc 1 215 3 view .LVU73
 312              		.loc 1 215 3 view .LVU74
 313 0046 0A78     		ldrb	r2, [r1]
 314 0048 9600     		lsls	r6, r2, #2
 315 004a 9E19     		adds	r6, r3, r6
 316 004c 3588     		ldrh	r5, [r6]
 317 004e 2DB2     		sxth	r5, r5
 318 0050 A24F     		ldr	r7, .L40+8
 319 0052 3D40     		ands	r5, r7
 320 0054 2A43     		orrs	r2, r5
 321 0056 92B2     		uxth	r2, r2
 322              	.LVL19:
 323              		.loc 1 215 3 view .LVU75
 324 0058 1443     		orrs	r4, r2
 325 005a A4B2     		uxth	r4, r4
 326 005c 3480     		strh	r4, [r6]
 327              	.LBE2:
 328              		.loc 1 215 3 view .LVU76
 216:Drivers/STM32F0xx_HAL_Driver/Src/stm32f0xx_ll_usb.c **** 
 217:Drivers/STM32F0xx_HAL_Driver/Src/stm32f0xx_ll_usb.c ****   if (ep->doublebuffer == 0U)
 329              		.loc 1 217 3 view .LVU77
 330              		.loc 1 217 9 is_stmt 0 view .LVU78
 331 005e 0A7B     		ldrb	r2, [r1, #12]
 332              	.LVL20:
 333              		.loc 1 217 6 view .LVU79
 334 0060 002A     		cmp	r2, #0
 335 0062 00D0     		beq	.LCB256
 336 0064 90E0     		b	.L16	@long jump
 337              	.LCB256:
 218:Drivers/STM32F0xx_HAL_Driver/Src/stm32f0xx_ll_usb.c ****   {
 219:Drivers/STM32F0xx_HAL_Driver/Src/stm32f0xx_ll_usb.c ****     if (ep->is_in != 0U)
 338              		.loc 1 219 5 is_stmt 1 view .LVU80
 339              		.loc 1 219 11 is_stmt 0 view .LVU81
 340 0066 4A78     		ldrb	r2, [r1, #1]
 341              		.loc 1 219 8 view .LVU82
 342 0068 002A     		cmp	r2, #0
 343 006a 3CD0     		beq	.L17
 220:Drivers/STM32F0xx_HAL_Driver/Src/stm32f0xx_ll_usb.c ****     {
 221:Drivers/STM32F0xx_HAL_Driver/Src/stm32f0xx_ll_usb.c ****       /*Set the endpoint Transmit buffer address */
 222:Drivers/STM32F0xx_HAL_Driver/Src/stm32f0xx_ll_usb.c ****       PCD_SET_EP_TX_ADDRESS(USBx, ep->num, ep->pmaadress);
 344              		.loc 1 222 7 is_stmt 1 view .LVU83
 345              	.LBB3:
 346              		.loc 1 222 7 view .LVU84
 347              		.loc 1 222 7 view .LVU85
 348              	.LVL21:
 349              		.loc 1 222 7 view .LVU86
 350 006c 5022     		movs	r2, #80
 351 006e 9C5A     		ldrh	r4, [r3, r2]
 352 0070 1C19     		adds	r4, r3, r4
ARM GAS  /tmp/ccnaAMFS.s 			page 11


 353              	.LVL22:
 354              		.loc 1 222 7 view .LVU87
 355 0072 0A78     		ldrb	r2, [r1]
 356 0074 D200     		lsls	r2, r2, #3
 357 0076 1219     		adds	r2, r2, r4
 358 0078 8024     		movs	r4, #128
 359              	.LVL23:
 360              		.loc 1 222 7 is_stmt 0 view .LVU88
 361 007a E400     		lsls	r4, r4, #3
 362 007c A446     		mov	ip, r4
 363 007e 6244     		add	r2, r2, ip
 364              	.LVL24:
 365              		.loc 1 222 7 is_stmt 1 view .LVU89
 366 0080 CC88     		ldrh	r4, [r1, #6]
 367 0082 6408     		lsrs	r4, r4, #1
 368 0084 6400     		lsls	r4, r4, #1
 369 0086 1480     		strh	r4, [r2]
 370              	.LBE3:
 371              		.loc 1 222 7 view .LVU90
 223:Drivers/STM32F0xx_HAL_Driver/Src/stm32f0xx_ll_usb.c ****       PCD_CLEAR_TX_DTOG(USBx, ep->num);
 372              		.loc 1 223 7 view .LVU91
 373              	.LBB4:
 374              		.loc 1 223 7 view .LVU92
 375              		.loc 1 223 7 view .LVU93
 376 0088 0A78     		ldrb	r2, [r1]
 377              	.LVL25:
 378              		.loc 1 223 7 is_stmt 0 view .LVU94
 379 008a 9200     		lsls	r2, r2, #2
 380 008c 9A18     		adds	r2, r3, r2
 381 008e 1488     		ldrh	r4, [r2]
 382              	.LVL26:
 383              		.loc 1 223 7 is_stmt 1 view .LVU95
 384 0090 6406     		lsls	r4, r4, #25
 385 0092 06D5     		bpl	.L18
 386              	.LVL27:
 387              		.loc 1 223 7 discriminator 1 view .LVU96
 388              	.LBB5:
 389              		.loc 1 223 7 discriminator 1 view .LVU97
 390              		.loc 1 223 7 discriminator 1 view .LVU98
 391 0094 1488     		ldrh	r4, [r2]
 392 0096 3D00     		movs	r5, r7
 393 0098 2540     		ands	r5, r4
 394              	.LVL28:
 395              		.loc 1 223 7 discriminator 1 view .LVU99
 396 009a 914C     		ldr	r4, .L40+12
 397 009c 2C43     		orrs	r4, r5
 398 009e A4B2     		uxth	r4, r4
 399 00a0 1480     		strh	r4, [r2]
 400              	.LVL29:
 401              	.L18:
 402              		.loc 1 223 7 is_stmt 0 discriminator 1 view .LVU100
 403              	.LBE5:
 404              		.loc 1 223 7 is_stmt 1 discriminator 3 view .LVU101
 405              	.LBE4:
 406              		.loc 1 223 7 discriminator 3 view .LVU102
 224:Drivers/STM32F0xx_HAL_Driver/Src/stm32f0xx_ll_usb.c **** 
 225:Drivers/STM32F0xx_HAL_Driver/Src/stm32f0xx_ll_usb.c ****       if (ep->type != EP_TYPE_ISOC)
ARM GAS  /tmp/ccnaAMFS.s 			page 12


 407              		.loc 1 225 7 discriminator 3 view .LVU103
 408              		.loc 1 225 13 is_stmt 0 discriminator 3 view .LVU104
 409 00a2 CA78     		ldrb	r2, [r1, #3]
 410              		.loc 1 225 10 discriminator 3 view .LVU105
 411 00a4 012A     		cmp	r2, #1
 412 00a6 13D0     		beq	.L19
 226:Drivers/STM32F0xx_HAL_Driver/Src/stm32f0xx_ll_usb.c ****       {
 227:Drivers/STM32F0xx_HAL_Driver/Src/stm32f0xx_ll_usb.c ****         /* Configure NAK status for the Endpoint */
 228:Drivers/STM32F0xx_HAL_Driver/Src/stm32f0xx_ll_usb.c ****         PCD_SET_EP_TX_STATUS(USBx, ep->num, USB_EP_TX_NAK);
 413              		.loc 1 228 9 is_stmt 1 view .LVU106
 414              	.LBB6:
 415              		.loc 1 228 9 view .LVU107
 416              		.loc 1 228 9 view .LVU108
 417 00a8 0A78     		ldrb	r2, [r1]
 418 00aa 9200     		lsls	r2, r2, #2
 419 00ac 9B18     		adds	r3, r3, r2
 420              	.LVL30:
 421              		.loc 1 228 9 is_stmt 0 view .LVU109
 422 00ae 1A88     		ldrh	r2, [r3]
 423 00b0 8C49     		ldr	r1, .L40+16
 424              	.LVL31:
 425              		.loc 1 228 9 view .LVU110
 426 00b2 0A40     		ands	r2, r1
 427              	.LVL32:
 428              		.loc 1 228 9 is_stmt 1 view .LVU111
 429              		.loc 1 228 9 view .LVU112
 430              		.loc 1 228 9 view .LVU113
 431 00b4 2021     		movs	r1, #32
 432 00b6 4A40     		eors	r2, r1
 433              	.LVL33:
 434              		.loc 1 228 9 is_stmt 0 view .LVU114
 435 00b8 92B2     		uxth	r2, r2
 436              	.LVL34:
 437              		.loc 1 228 9 is_stmt 1 view .LVU115
 438 00ba 8749     		ldr	r1, .L40+4
 439 00bc 0A43     		orrs	r2, r1
 440              	.LVL35:
 441              		.loc 1 228 9 is_stmt 0 view .LVU116
 442 00be 92B2     		uxth	r2, r2
 443 00c0 1A80     		strh	r2, [r3]
 444              	.LBE6:
 445              		.loc 1 228 9 is_stmt 1 view .LVU117
 446 00c2 4BE0     		b	.L20
 447              	.LVL36:
 448              	.L13:
 193:Drivers/STM32F0xx_HAL_Driver/Src/stm32f0xx_ll_usb.c ****       break;
 449              		.loc 1 193 7 view .LVU118
 193:Drivers/STM32F0xx_HAL_Driver/Src/stm32f0xx_ll_usb.c ****       break;
 450              		.loc 1 193 17 is_stmt 0 view .LVU119
 451 00c4 8024     		movs	r4, #128
 452 00c6 A400     		lsls	r4, r4, #2
 453 00c8 2243     		orrs	r2, r4
 454              	.LVL37:
 194:Drivers/STM32F0xx_HAL_Driver/Src/stm32f0xx_ll_usb.c **** 
 455              		.loc 1 194 7 is_stmt 1 view .LVU120
 456 00ca B8E7     		b	.L11
 457              	.L36:
ARM GAS  /tmp/ccnaAMFS.s 			page 13


 190:Drivers/STM32F0xx_HAL_Driver/Src/stm32f0xx_ll_usb.c ****   {
 458              		.loc 1 190 3 is_stmt 0 view .LVU121
 459 00cc 0020     		movs	r0, #0
 460 00ce B6E7     		b	.L11
 461              	.LVL38:
 462              	.L19:
 229:Drivers/STM32F0xx_HAL_Driver/Src/stm32f0xx_ll_usb.c ****       }
 230:Drivers/STM32F0xx_HAL_Driver/Src/stm32f0xx_ll_usb.c ****       else
 231:Drivers/STM32F0xx_HAL_Driver/Src/stm32f0xx_ll_usb.c ****       {
 232:Drivers/STM32F0xx_HAL_Driver/Src/stm32f0xx_ll_usb.c ****         /* Configure TX Endpoint to disabled state */
 233:Drivers/STM32F0xx_HAL_Driver/Src/stm32f0xx_ll_usb.c ****         PCD_SET_EP_TX_STATUS(USBx, ep->num, USB_EP_TX_DIS);
 463              		.loc 1 233 9 is_stmt 1 view .LVU122
 464              	.LBB7:
 465              		.loc 1 233 9 view .LVU123
 466              		.loc 1 233 9 view .LVU124
 467 00d0 0A78     		ldrb	r2, [r1]
 468 00d2 9200     		lsls	r2, r2, #2
 469 00d4 9B18     		adds	r3, r3, r2
 470              	.LVL39:
 471              		.loc 1 233 9 is_stmt 0 view .LVU125
 472 00d6 1A88     		ldrh	r2, [r3]
 473 00d8 8249     		ldr	r1, .L40+16
 474              	.LVL40:
 475              		.loc 1 233 9 view .LVU126
 476 00da 1140     		ands	r1, r2
 477              	.LVL41:
 478              		.loc 1 233 9 is_stmt 1 view .LVU127
 479              		.loc 1 233 9 view .LVU128
 480              		.loc 1 233 9 view .LVU129
 481 00dc 7E4A     		ldr	r2, .L40+4
 482 00de 0A43     		orrs	r2, r1
 483 00e0 92B2     		uxth	r2, r2
 484 00e2 1A80     		strh	r2, [r3]
 485 00e4 3AE0     		b	.L20
 486              	.LVL42:
 487              	.L17:
 488              		.loc 1 233 9 is_stmt 0 view .LVU130
 489              	.LBE7:
 234:Drivers/STM32F0xx_HAL_Driver/Src/stm32f0xx_ll_usb.c ****       }
 235:Drivers/STM32F0xx_HAL_Driver/Src/stm32f0xx_ll_usb.c ****     }
 236:Drivers/STM32F0xx_HAL_Driver/Src/stm32f0xx_ll_usb.c ****     else
 237:Drivers/STM32F0xx_HAL_Driver/Src/stm32f0xx_ll_usb.c ****     {
 238:Drivers/STM32F0xx_HAL_Driver/Src/stm32f0xx_ll_usb.c ****       /* Set the endpoint Receive buffer address */
 239:Drivers/STM32F0xx_HAL_Driver/Src/stm32f0xx_ll_usb.c ****       PCD_SET_EP_RX_ADDRESS(USBx, ep->num, ep->pmaadress);
 490              		.loc 1 239 7 is_stmt 1 view .LVU131
 491              	.LBB8:
 492              		.loc 1 239 7 view .LVU132
 493              		.loc 1 239 7 view .LVU133
 494              		.loc 1 239 7 view .LVU134
 495 00e6 5025     		movs	r5, #80
 496 00e8 5C5B     		ldrh	r4, [r3, r5]
 497 00ea 1C19     		adds	r4, r3, r4
 498              	.LVL43:
 499              		.loc 1 239 7 view .LVU135
 500 00ec 0A78     		ldrb	r2, [r1]
 501 00ee D200     		lsls	r2, r2, #3
 502 00f0 1219     		adds	r2, r2, r4
ARM GAS  /tmp/ccnaAMFS.s 			page 14


 503 00f2 7D4C     		ldr	r4, .L40+20
 504              	.LVL44:
 505              		.loc 1 239 7 is_stmt 0 view .LVU136
 506 00f4 A446     		mov	ip, r4
 507 00f6 6244     		add	r2, r2, ip
 508              	.LVL45:
 509              		.loc 1 239 7 is_stmt 1 view .LVU137
 510 00f8 CC88     		ldrh	r4, [r1, #6]
 511 00fa 6408     		lsrs	r4, r4, #1
 512 00fc 6400     		lsls	r4, r4, #1
 513 00fe 1480     		strh	r4, [r2]
 514              	.LBE8:
 515              		.loc 1 239 7 view .LVU138
 240:Drivers/STM32F0xx_HAL_Driver/Src/stm32f0xx_ll_usb.c **** 
 241:Drivers/STM32F0xx_HAL_Driver/Src/stm32f0xx_ll_usb.c ****       /* Set the endpoint Receive buffer counter */
 242:Drivers/STM32F0xx_HAL_Driver/Src/stm32f0xx_ll_usb.c ****       PCD_SET_EP_RX_CNT(USBx, ep->num, ep->maxpacket);
 516              		.loc 1 242 7 view .LVU139
 517              	.LBB9:
 518              		.loc 1 242 7 view .LVU140
 519              	.LVL46:
 520              		.loc 1 242 7 view .LVU141
 521              		.loc 1 242 7 view .LVU142
 522 0100 5C5B     		ldrh	r4, [r3, r5]
 523 0102 1C19     		adds	r4, r3, r4
 524              	.LVL47:
 525              		.loc 1 242 7 view .LVU143
 526 0104 0A78     		ldrb	r2, [r1]
 527              	.LVL48:
 528              		.loc 1 242 7 is_stmt 0 view .LVU144
 529 0106 D200     		lsls	r2, r2, #3
 530 0108 1219     		adds	r2, r2, r4
 531 010a 784C     		ldr	r4, .L40+24
 532              	.LVL49:
 533              		.loc 1 242 7 view .LVU145
 534 010c A446     		mov	ip, r4
 535 010e 6244     		add	r2, r2, ip
 536              	.LVL50:
 537              		.loc 1 242 7 is_stmt 1 view .LVU146
 538              	.LBB10:
 539              		.loc 1 242 7 view .LVU147
 540              		.loc 1 242 7 view .LVU148
 541 0110 0C69     		ldr	r4, [r1, #16]
 542 0112 002C     		cmp	r4, #0
 543 0114 23D1     		bne	.L21
 544              		.loc 1 242 7 discriminator 1 view .LVU149
 545 0116 1488     		ldrh	r4, [r2]
 546 0118 754D     		ldr	r5, .L40+28
 547 011a 2C40     		ands	r4, r5
 548 011c 1480     		strh	r4, [r2]
 549              		.loc 1 242 7 discriminator 1 view .LVU150
 550 011e 1488     		ldrh	r4, [r2]
 551 0120 744D     		ldr	r5, .L40+32
 552 0122 2C43     		orrs	r4, r5
 553 0124 A4B2     		uxth	r4, r4
 554 0126 1480     		strh	r4, [r2]
 555              	.L22:
 556              		.loc 1 242 7 discriminator 13 view .LVU151
ARM GAS  /tmp/ccnaAMFS.s 			page 15


 557              	.LBE10:
 558              		.loc 1 242 7 discriminator 13 view .LVU152
 559              	.LBE9:
 560              		.loc 1 242 7 discriminator 13 view .LVU153
 243:Drivers/STM32F0xx_HAL_Driver/Src/stm32f0xx_ll_usb.c ****       PCD_CLEAR_RX_DTOG(USBx, ep->num);
 561              		.loc 1 243 7 discriminator 13 view .LVU154
 562              	.LBB12:
 563              		.loc 1 243 7 discriminator 13 view .LVU155
 564              		.loc 1 243 7 discriminator 13 view .LVU156
 565 0128 0A78     		ldrb	r2, [r1]
 566              	.LVL51:
 567              		.loc 1 243 7 is_stmt 0 discriminator 13 view .LVU157
 568 012a 9200     		lsls	r2, r2, #2
 569 012c 9A18     		adds	r2, r3, r2
 570 012e 1488     		ldrh	r4, [r2]
 571              	.LVL52:
 572              		.loc 1 243 7 is_stmt 1 discriminator 13 view .LVU158
 573 0130 6404     		lsls	r4, r4, #17
 574 0132 06D5     		bpl	.L26
 575              	.LVL53:
 576              		.loc 1 243 7 discriminator 1 view .LVU159
 577              	.LBB13:
 578              		.loc 1 243 7 discriminator 1 view .LVU160
 579              		.loc 1 243 7 discriminator 1 view .LVU161
 580 0134 1488     		ldrh	r4, [r2]
 581 0136 694D     		ldr	r5, .L40+8
 582 0138 2540     		ands	r5, r4
 583              	.LVL54:
 584              		.loc 1 243 7 discriminator 1 view .LVU162
 585 013a 6F4C     		ldr	r4, .L40+36
 586 013c 2C43     		orrs	r4, r5
 587 013e A4B2     		uxth	r4, r4
 588 0140 1480     		strh	r4, [r2]
 589              	.LVL55:
 590              	.L26:
 591              		.loc 1 243 7 is_stmt 0 discriminator 1 view .LVU163
 592              	.LBE13:
 593              		.loc 1 243 7 is_stmt 1 discriminator 3 view .LVU164
 594              	.LBE12:
 595              		.loc 1 243 7 discriminator 3 view .LVU165
 244:Drivers/STM32F0xx_HAL_Driver/Src/stm32f0xx_ll_usb.c **** 
 245:Drivers/STM32F0xx_HAL_Driver/Src/stm32f0xx_ll_usb.c ****       /* Configure VALID status for the Endpoint */
 246:Drivers/STM32F0xx_HAL_Driver/Src/stm32f0xx_ll_usb.c ****       PCD_SET_EP_RX_STATUS(USBx, ep->num, USB_EP_RX_VALID);
 596              		.loc 1 246 7 discriminator 3 view .LVU166
 597              	.LBB14:
 598              		.loc 1 246 7 discriminator 3 view .LVU167
 599              		.loc 1 246 7 discriminator 3 view .LVU168
 600 0142 0A78     		ldrb	r2, [r1]
 601 0144 9200     		lsls	r2, r2, #2
 602 0146 9B18     		adds	r3, r3, r2
 603              	.LVL56:
 604              		.loc 1 246 7 is_stmt 0 discriminator 3 view .LVU169
 605 0148 1988     		ldrh	r1, [r3]
 606              	.LVL57:
 607              		.loc 1 246 7 discriminator 3 view .LVU170
 608 014a 6C4A     		ldr	r2, .L40+40
 609 014c 1140     		ands	r1, r2
ARM GAS  /tmp/ccnaAMFS.s 			page 16


 610              	.LVL58:
 611              		.loc 1 246 7 is_stmt 1 discriminator 3 view .LVU171
 612              		.loc 1 246 7 discriminator 3 view .LVU172
 613              		.loc 1 246 7 discriminator 3 view .LVU173
 614              		.loc 1 246 7 discriminator 3 view .LVU174
 615 014e C022     		movs	r2, #192
 616 0150 9201     		lsls	r2, r2, #6
 617 0152 5140     		eors	r1, r2
 618              	.LVL59:
 619              		.loc 1 246 7 discriminator 3 view .LVU175
 620 0154 604A     		ldr	r2, .L40+4
 621 0156 0A43     		orrs	r2, r1
 622 0158 92B2     		uxth	r2, r2
 623 015a 1A80     		strh	r2, [r3]
 624              	.LVL60:
 625              	.L20:
 626              		.loc 1 246 7 is_stmt 0 discriminator 3 view .LVU176
 627              	.LBE14:
 247:Drivers/STM32F0xx_HAL_Driver/Src/stm32f0xx_ll_usb.c ****     }
 248:Drivers/STM32F0xx_HAL_Driver/Src/stm32f0xx_ll_usb.c ****   }
 249:Drivers/STM32F0xx_HAL_Driver/Src/stm32f0xx_ll_usb.c ****   /* Double Buffer */
 250:Drivers/STM32F0xx_HAL_Driver/Src/stm32f0xx_ll_usb.c ****   else
 251:Drivers/STM32F0xx_HAL_Driver/Src/stm32f0xx_ll_usb.c ****   {
 252:Drivers/STM32F0xx_HAL_Driver/Src/stm32f0xx_ll_usb.c ****     if (ep->type == EP_TYPE_BULK)
 253:Drivers/STM32F0xx_HAL_Driver/Src/stm32f0xx_ll_usb.c ****     {
 254:Drivers/STM32F0xx_HAL_Driver/Src/stm32f0xx_ll_usb.c ****       /* Set bulk endpoint as double buffered */
 255:Drivers/STM32F0xx_HAL_Driver/Src/stm32f0xx_ll_usb.c ****       PCD_SET_BULK_EP_DBUF(USBx, ep->num);
 256:Drivers/STM32F0xx_HAL_Driver/Src/stm32f0xx_ll_usb.c ****     }
 257:Drivers/STM32F0xx_HAL_Driver/Src/stm32f0xx_ll_usb.c ****     else
 258:Drivers/STM32F0xx_HAL_Driver/Src/stm32f0xx_ll_usb.c ****     {
 259:Drivers/STM32F0xx_HAL_Driver/Src/stm32f0xx_ll_usb.c ****       /* Set the ISOC endpoint in double buffer mode */
 260:Drivers/STM32F0xx_HAL_Driver/Src/stm32f0xx_ll_usb.c ****       PCD_CLEAR_EP_KIND(USBx, ep->num);
 261:Drivers/STM32F0xx_HAL_Driver/Src/stm32f0xx_ll_usb.c ****     }
 262:Drivers/STM32F0xx_HAL_Driver/Src/stm32f0xx_ll_usb.c **** 
 263:Drivers/STM32F0xx_HAL_Driver/Src/stm32f0xx_ll_usb.c ****     /* Set buffer address for double buffered mode */
 264:Drivers/STM32F0xx_HAL_Driver/Src/stm32f0xx_ll_usb.c ****     PCD_SET_EP_DBUF_ADDR(USBx, ep->num, ep->pmaaddr0, ep->pmaaddr1);
 265:Drivers/STM32F0xx_HAL_Driver/Src/stm32f0xx_ll_usb.c **** 
 266:Drivers/STM32F0xx_HAL_Driver/Src/stm32f0xx_ll_usb.c ****     if (ep->is_in == 0U)
 267:Drivers/STM32F0xx_HAL_Driver/Src/stm32f0xx_ll_usb.c ****     {
 268:Drivers/STM32F0xx_HAL_Driver/Src/stm32f0xx_ll_usb.c ****       /* Clear the data toggle bits for the endpoint IN/OUT */
 269:Drivers/STM32F0xx_HAL_Driver/Src/stm32f0xx_ll_usb.c ****       PCD_CLEAR_RX_DTOG(USBx, ep->num);
 270:Drivers/STM32F0xx_HAL_Driver/Src/stm32f0xx_ll_usb.c ****       PCD_CLEAR_TX_DTOG(USBx, ep->num);
 271:Drivers/STM32F0xx_HAL_Driver/Src/stm32f0xx_ll_usb.c **** 
 272:Drivers/STM32F0xx_HAL_Driver/Src/stm32f0xx_ll_usb.c ****       PCD_SET_EP_RX_STATUS(USBx, ep->num, USB_EP_RX_VALID);
 273:Drivers/STM32F0xx_HAL_Driver/Src/stm32f0xx_ll_usb.c ****       PCD_SET_EP_TX_STATUS(USBx, ep->num, USB_EP_TX_DIS);
 274:Drivers/STM32F0xx_HAL_Driver/Src/stm32f0xx_ll_usb.c ****     }
 275:Drivers/STM32F0xx_HAL_Driver/Src/stm32f0xx_ll_usb.c ****     else
 276:Drivers/STM32F0xx_HAL_Driver/Src/stm32f0xx_ll_usb.c ****     {
 277:Drivers/STM32F0xx_HAL_Driver/Src/stm32f0xx_ll_usb.c ****       /* Clear the data toggle bits for the endpoint IN/OUT */
 278:Drivers/STM32F0xx_HAL_Driver/Src/stm32f0xx_ll_usb.c ****       PCD_CLEAR_RX_DTOG(USBx, ep->num);
 279:Drivers/STM32F0xx_HAL_Driver/Src/stm32f0xx_ll_usb.c ****       PCD_CLEAR_TX_DTOG(USBx, ep->num);
 280:Drivers/STM32F0xx_HAL_Driver/Src/stm32f0xx_ll_usb.c **** 
 281:Drivers/STM32F0xx_HAL_Driver/Src/stm32f0xx_ll_usb.c ****       if (ep->type != EP_TYPE_ISOC)
 282:Drivers/STM32F0xx_HAL_Driver/Src/stm32f0xx_ll_usb.c ****       {
 283:Drivers/STM32F0xx_HAL_Driver/Src/stm32f0xx_ll_usb.c ****         /* Configure NAK status for the Endpoint */
 284:Drivers/STM32F0xx_HAL_Driver/Src/stm32f0xx_ll_usb.c ****         PCD_SET_EP_TX_STATUS(USBx, ep->num, USB_EP_TX_NAK);
 285:Drivers/STM32F0xx_HAL_Driver/Src/stm32f0xx_ll_usb.c ****       }
ARM GAS  /tmp/ccnaAMFS.s 			page 17


 286:Drivers/STM32F0xx_HAL_Driver/Src/stm32f0xx_ll_usb.c ****       else
 287:Drivers/STM32F0xx_HAL_Driver/Src/stm32f0xx_ll_usb.c ****       {
 288:Drivers/STM32F0xx_HAL_Driver/Src/stm32f0xx_ll_usb.c ****         /* Configure TX Endpoint to disabled state */
 289:Drivers/STM32F0xx_HAL_Driver/Src/stm32f0xx_ll_usb.c ****         PCD_SET_EP_TX_STATUS(USBx, ep->num, USB_EP_TX_DIS);
 290:Drivers/STM32F0xx_HAL_Driver/Src/stm32f0xx_ll_usb.c ****       }
 291:Drivers/STM32F0xx_HAL_Driver/Src/stm32f0xx_ll_usb.c **** 
 292:Drivers/STM32F0xx_HAL_Driver/Src/stm32f0xx_ll_usb.c ****       PCD_SET_EP_RX_STATUS(USBx, ep->num, USB_EP_RX_DIS);
 628              		.loc 1 292 7 is_stmt 1 discriminator 7 view .LVU177
 293:Drivers/STM32F0xx_HAL_Driver/Src/stm32f0xx_ll_usb.c ****     }
 294:Drivers/STM32F0xx_HAL_Driver/Src/stm32f0xx_ll_usb.c ****   }
 295:Drivers/STM32F0xx_HAL_Driver/Src/stm32f0xx_ll_usb.c **** 
 296:Drivers/STM32F0xx_HAL_Driver/Src/stm32f0xx_ll_usb.c ****   return ret;
 629              		.loc 1 296 3 discriminator 7 view .LVU178
 297:Drivers/STM32F0xx_HAL_Driver/Src/stm32f0xx_ll_usb.c **** }
 630              		.loc 1 297 1 is_stmt 0 discriminator 7 view .LVU179
 631              		@ sp needed
 632 015c F0BD     		pop	{r4, r5, r6, r7, pc}
 633              	.LVL61:
 634              	.L21:
 635              	.LBB15:
 636              	.LBB11:
 242:Drivers/STM32F0xx_HAL_Driver/Src/stm32f0xx_ll_usb.c ****       PCD_CLEAR_RX_DTOG(USBx, ep->num);
 637              		.loc 1 242 7 is_stmt 1 discriminator 2 view .LVU180
 638 015e 3E2C     		cmp	r4, #62
 639 0160 07D8     		bhi	.L23
 242:Drivers/STM32F0xx_HAL_Driver/Src/stm32f0xx_ll_usb.c ****       PCD_CLEAR_RX_DTOG(USBx, ep->num);
 640              		.loc 1 242 7 discriminator 4 view .LVU181
 242:Drivers/STM32F0xx_HAL_Driver/Src/stm32f0xx_ll_usb.c ****       PCD_CLEAR_RX_DTOG(USBx, ep->num);
 641              		.loc 1 242 7 discriminator 4 view .LVU182
 642 0162 6508     		lsrs	r5, r4, #1
 643              	.LVL62:
 242:Drivers/STM32F0xx_HAL_Driver/Src/stm32f0xx_ll_usb.c ****       PCD_CLEAR_RX_DTOG(USBx, ep->num);
 644              		.loc 1 242 7 discriminator 4 view .LVU183
 645 0164 E407     		lsls	r4, r4, #31
 646 0166 00D5     		bpl	.L24
 242:Drivers/STM32F0xx_HAL_Driver/Src/stm32f0xx_ll_usb.c ****       PCD_CLEAR_RX_DTOG(USBx, ep->num);
 647              		.loc 1 242 7 discriminator 6 view .LVU184
 648 0168 0135     		adds	r5, r5, #1
 649              	.LVL63:
 650              	.L24:
 242:Drivers/STM32F0xx_HAL_Driver/Src/stm32f0xx_ll_usb.c ****       PCD_CLEAR_RX_DTOG(USBx, ep->num);
 651              		.loc 1 242 7 discriminator 8 view .LVU185
 652 016a AD02     		lsls	r5, r5, #10
 653              	.LVL64:
 242:Drivers/STM32F0xx_HAL_Driver/Src/stm32f0xx_ll_usb.c ****       PCD_CLEAR_RX_DTOG(USBx, ep->num);
 654              		.loc 1 242 7 is_stmt 0 discriminator 8 view .LVU186
 655 016c ADB2     		uxth	r5, r5
 656 016e 1580     		strh	r5, [r2]
 242:Drivers/STM32F0xx_HAL_Driver/Src/stm32f0xx_ll_usb.c ****       PCD_CLEAR_RX_DTOG(USBx, ep->num);
 657              		.loc 1 242 7 is_stmt 1 discriminator 8 view .LVU187
 658 0170 DAE7     		b	.L22
 659              	.L23:
 242:Drivers/STM32F0xx_HAL_Driver/Src/stm32f0xx_ll_usb.c ****       PCD_CLEAR_RX_DTOG(USBx, ep->num);
 660              		.loc 1 242 7 discriminator 5 view .LVU188
 242:Drivers/STM32F0xx_HAL_Driver/Src/stm32f0xx_ll_usb.c ****       PCD_CLEAR_RX_DTOG(USBx, ep->num);
 661              		.loc 1 242 7 discriminator 5 view .LVU189
 662 0172 6509     		lsrs	r5, r4, #5
ARM GAS  /tmp/ccnaAMFS.s 			page 18


 663              	.LVL65:
 242:Drivers/STM32F0xx_HAL_Driver/Src/stm32f0xx_ll_usb.c ****       PCD_CLEAR_RX_DTOG(USBx, ep->num);
 664              		.loc 1 242 7 discriminator 5 view .LVU190
 665 0174 E406     		lsls	r4, r4, #27
 666 0176 00D1     		bne	.L25
 242:Drivers/STM32F0xx_HAL_Driver/Src/stm32f0xx_ll_usb.c ****       PCD_CLEAR_RX_DTOG(USBx, ep->num);
 667              		.loc 1 242 7 discriminator 10 view .LVU191
 668 0178 013D     		subs	r5, r5, #1
 669              	.LVL66:
 670              	.L25:
 242:Drivers/STM32F0xx_HAL_Driver/Src/stm32f0xx_ll_usb.c ****       PCD_CLEAR_RX_DTOG(USBx, ep->num);
 671              		.loc 1 242 7 discriminator 12 view .LVU192
 672 017a AD02     		lsls	r5, r5, #10
 673              	.LVL67:
 242:Drivers/STM32F0xx_HAL_Driver/Src/stm32f0xx_ll_usb.c ****       PCD_CLEAR_RX_DTOG(USBx, ep->num);
 674              		.loc 1 242 7 is_stmt 0 discriminator 12 view .LVU193
 675 017c ADB2     		uxth	r5, r5
 676 017e 5D4C     		ldr	r4, .L40+32
 677 0180 2543     		orrs	r5, r4
 678 0182 ADB2     		uxth	r5, r5
 679 0184 1580     		strh	r5, [r2]
 680 0186 CFE7     		b	.L22
 681              	.LVL68:
 682              	.L16:
 242:Drivers/STM32F0xx_HAL_Driver/Src/stm32f0xx_ll_usb.c ****       PCD_CLEAR_RX_DTOG(USBx, ep->num);
 683              		.loc 1 242 7 discriminator 12 view .LVU194
 684              	.LBE11:
 685              	.LBE15:
 252:Drivers/STM32F0xx_HAL_Driver/Src/stm32f0xx_ll_usb.c ****     {
 686              		.loc 1 252 5 is_stmt 1 view .LVU195
 252:Drivers/STM32F0xx_HAL_Driver/Src/stm32f0xx_ll_usb.c ****     {
 687              		.loc 1 252 11 is_stmt 0 view .LVU196
 688 0188 CA78     		ldrb	r2, [r1, #3]
 252:Drivers/STM32F0xx_HAL_Driver/Src/stm32f0xx_ll_usb.c ****     {
 689              		.loc 1 252 8 view .LVU197
 690 018a 022A     		cmp	r2, #2
 691 018c 57D0     		beq	.L39
 260:Drivers/STM32F0xx_HAL_Driver/Src/stm32f0xx_ll_usb.c ****     }
 692              		.loc 1 260 7 is_stmt 1 view .LVU198
 693              	.LBB16:
 260:Drivers/STM32F0xx_HAL_Driver/Src/stm32f0xx_ll_usb.c ****     }
 694              		.loc 1 260 7 view .LVU199
 260:Drivers/STM32F0xx_HAL_Driver/Src/stm32f0xx_ll_usb.c ****     }
 695              		.loc 1 260 7 view .LVU200
 696 018e 0A78     		ldrb	r2, [r1]
 697 0190 9200     		lsls	r2, r2, #2
 698 0192 9A18     		adds	r2, r3, r2
 699 0194 1488     		ldrh	r4, [r2]
 700 0196 5A4D     		ldr	r5, .L40+44
 701 0198 2540     		ands	r5, r4
 702              	.LVL69:
 260:Drivers/STM32F0xx_HAL_Driver/Src/stm32f0xx_ll_usb.c ****     }
 703              		.loc 1 260 7 view .LVU201
 704 019a 4F4C     		ldr	r4, .L40+4
 705 019c 2C43     		orrs	r4, r5
 706 019e A4B2     		uxth	r4, r4
 707 01a0 1480     		strh	r4, [r2]
ARM GAS  /tmp/ccnaAMFS.s 			page 19


 708              	.LVL70:
 709              	.L28:
 260:Drivers/STM32F0xx_HAL_Driver/Src/stm32f0xx_ll_usb.c ****     }
 710              		.loc 1 260 7 is_stmt 0 view .LVU202
 711              	.LBE16:
 260:Drivers/STM32F0xx_HAL_Driver/Src/stm32f0xx_ll_usb.c ****     }
 712              		.loc 1 260 7 is_stmt 1 discriminator 1 view .LVU203
 264:Drivers/STM32F0xx_HAL_Driver/Src/stm32f0xx_ll_usb.c **** 
 713              		.loc 1 264 5 discriminator 1 view .LVU204
 264:Drivers/STM32F0xx_HAL_Driver/Src/stm32f0xx_ll_usb.c **** 
 714              		.loc 1 264 5 discriminator 1 view .LVU205
 264:Drivers/STM32F0xx_HAL_Driver/Src/stm32f0xx_ll_usb.c **** 
 715              		.loc 1 264 5 discriminator 1 view .LVU206
 716              	.LBB17:
 264:Drivers/STM32F0xx_HAL_Driver/Src/stm32f0xx_ll_usb.c **** 
 717              		.loc 1 264 5 discriminator 1 view .LVU207
 264:Drivers/STM32F0xx_HAL_Driver/Src/stm32f0xx_ll_usb.c **** 
 718              		.loc 1 264 5 discriminator 1 view .LVU208
 264:Drivers/STM32F0xx_HAL_Driver/Src/stm32f0xx_ll_usb.c **** 
 719              		.loc 1 264 5 discriminator 1 view .LVU209
 720 01a2 5025     		movs	r5, #80
 721 01a4 5C5B     		ldrh	r4, [r3, r5]
 722 01a6 1C19     		adds	r4, r3, r4
 723              	.LVL71:
 264:Drivers/STM32F0xx_HAL_Driver/Src/stm32f0xx_ll_usb.c **** 
 724              		.loc 1 264 5 discriminator 1 view .LVU210
 725 01a8 0A78     		ldrb	r2, [r1]
 726 01aa D200     		lsls	r2, r2, #3
 727 01ac 1219     		adds	r2, r2, r4
 728 01ae 8024     		movs	r4, #128
 729              	.LVL72:
 264:Drivers/STM32F0xx_HAL_Driver/Src/stm32f0xx_ll_usb.c **** 
 730              		.loc 1 264 5 is_stmt 0 discriminator 1 view .LVU211
 731 01b0 E400     		lsls	r4, r4, #3
 732 01b2 A446     		mov	ip, r4
 733 01b4 6244     		add	r2, r2, ip
 734              	.LVL73:
 264:Drivers/STM32F0xx_HAL_Driver/Src/stm32f0xx_ll_usb.c **** 
 735              		.loc 1 264 5 is_stmt 1 discriminator 1 view .LVU212
 736 01b6 0C89     		ldrh	r4, [r1, #8]
 737 01b8 6408     		lsrs	r4, r4, #1
 738 01ba 6400     		lsls	r4, r4, #1
 739 01bc 1480     		strh	r4, [r2]
 740              	.LBE17:
 264:Drivers/STM32F0xx_HAL_Driver/Src/stm32f0xx_ll_usb.c **** 
 741              		.loc 1 264 5 discriminator 1 view .LVU213
 264:Drivers/STM32F0xx_HAL_Driver/Src/stm32f0xx_ll_usb.c **** 
 742              		.loc 1 264 5 discriminator 1 view .LVU214
 264:Drivers/STM32F0xx_HAL_Driver/Src/stm32f0xx_ll_usb.c **** 
 743              		.loc 1 264 5 discriminator 1 view .LVU215
 264:Drivers/STM32F0xx_HAL_Driver/Src/stm32f0xx_ll_usb.c **** 
 744              		.loc 1 264 5 discriminator 1 view .LVU216
 745              	.LBB18:
 264:Drivers/STM32F0xx_HAL_Driver/Src/stm32f0xx_ll_usb.c **** 
 746              		.loc 1 264 5 discriminator 1 view .LVU217
 264:Drivers/STM32F0xx_HAL_Driver/Src/stm32f0xx_ll_usb.c **** 
 747              		.loc 1 264 5 discriminator 1 view .LVU218
ARM GAS  /tmp/ccnaAMFS.s 			page 20


 748              	.LVL74:
 264:Drivers/STM32F0xx_HAL_Driver/Src/stm32f0xx_ll_usb.c **** 
 749              		.loc 1 264 5 discriminator 1 view .LVU219
 750 01be 5C5B     		ldrh	r4, [r3, r5]
 751 01c0 1C19     		adds	r4, r3, r4
 752              	.LVL75:
 264:Drivers/STM32F0xx_HAL_Driver/Src/stm32f0xx_ll_usb.c **** 
 753              		.loc 1 264 5 discriminator 1 view .LVU220
 754 01c2 0A78     		ldrb	r2, [r1]
 755              	.LVL76:
 264:Drivers/STM32F0xx_HAL_Driver/Src/stm32f0xx_ll_usb.c **** 
 756              		.loc 1 264 5 is_stmt 0 discriminator 1 view .LVU221
 757 01c4 D200     		lsls	r2, r2, #3
 758 01c6 1219     		adds	r2, r2, r4
 759 01c8 474C     		ldr	r4, .L40+20
 760              	.LVL77:
 264:Drivers/STM32F0xx_HAL_Driver/Src/stm32f0xx_ll_usb.c **** 
 761              		.loc 1 264 5 discriminator 1 view .LVU222
 762 01ca A446     		mov	ip, r4
 763 01cc 6244     		add	r2, r2, ip
 764              	.LVL78:
 264:Drivers/STM32F0xx_HAL_Driver/Src/stm32f0xx_ll_usb.c **** 
 765              		.loc 1 264 5 is_stmt 1 discriminator 1 view .LVU223
 766 01ce 4C89     		ldrh	r4, [r1, #10]
 767 01d0 6408     		lsrs	r4, r4, #1
 768 01d2 6400     		lsls	r4, r4, #1
 769 01d4 1480     		strh	r4, [r2]
 770              	.LBE18:
 264:Drivers/STM32F0xx_HAL_Driver/Src/stm32f0xx_ll_usb.c **** 
 771              		.loc 1 264 5 discriminator 1 view .LVU224
 264:Drivers/STM32F0xx_HAL_Driver/Src/stm32f0xx_ll_usb.c **** 
 772              		.loc 1 264 5 discriminator 1 view .LVU225
 264:Drivers/STM32F0xx_HAL_Driver/Src/stm32f0xx_ll_usb.c **** 
 773              		.loc 1 264 5 discriminator 1 view .LVU226
 266:Drivers/STM32F0xx_HAL_Driver/Src/stm32f0xx_ll_usb.c ****     {
 774              		.loc 1 266 5 discriminator 1 view .LVU227
 266:Drivers/STM32F0xx_HAL_Driver/Src/stm32f0xx_ll_usb.c ****     {
 775              		.loc 1 266 11 is_stmt 0 discriminator 1 view .LVU228
 776 01d6 4A78     		ldrb	r2, [r1, #1]
 777              	.LVL79:
 266:Drivers/STM32F0xx_HAL_Driver/Src/stm32f0xx_ll_usb.c ****     {
 778              		.loc 1 266 8 discriminator 1 view .LVU229
 779 01d8 002A     		cmp	r2, #0
 780 01da 3BD1     		bne	.L29
 269:Drivers/STM32F0xx_HAL_Driver/Src/stm32f0xx_ll_usb.c ****       PCD_CLEAR_TX_DTOG(USBx, ep->num);
 781              		.loc 1 269 7 is_stmt 1 view .LVU230
 782              	.LBB19:
 269:Drivers/STM32F0xx_HAL_Driver/Src/stm32f0xx_ll_usb.c ****       PCD_CLEAR_TX_DTOG(USBx, ep->num);
 783              		.loc 1 269 7 view .LVU231
 269:Drivers/STM32F0xx_HAL_Driver/Src/stm32f0xx_ll_usb.c ****       PCD_CLEAR_TX_DTOG(USBx, ep->num);
 784              		.loc 1 269 7 view .LVU232
 785 01dc 0A78     		ldrb	r2, [r1]
 786 01de 9200     		lsls	r2, r2, #2
 787 01e0 9A18     		adds	r2, r3, r2
 788 01e2 1488     		ldrh	r4, [r2]
 789              	.LVL80:
 269:Drivers/STM32F0xx_HAL_Driver/Src/stm32f0xx_ll_usb.c ****       PCD_CLEAR_TX_DTOG(USBx, ep->num);
ARM GAS  /tmp/ccnaAMFS.s 			page 21


 790              		.loc 1 269 7 view .LVU233
 791 01e4 6404     		lsls	r4, r4, #17
 792 01e6 06D5     		bpl	.L30
 793              	.LVL81:
 269:Drivers/STM32F0xx_HAL_Driver/Src/stm32f0xx_ll_usb.c ****       PCD_CLEAR_TX_DTOG(USBx, ep->num);
 794              		.loc 1 269 7 discriminator 1 view .LVU234
 795              	.LBB20:
 269:Drivers/STM32F0xx_HAL_Driver/Src/stm32f0xx_ll_usb.c ****       PCD_CLEAR_TX_DTOG(USBx, ep->num);
 796              		.loc 1 269 7 discriminator 1 view .LVU235
 269:Drivers/STM32F0xx_HAL_Driver/Src/stm32f0xx_ll_usb.c ****       PCD_CLEAR_TX_DTOG(USBx, ep->num);
 797              		.loc 1 269 7 discriminator 1 view .LVU236
 798 01e8 1488     		ldrh	r4, [r2]
 799 01ea 3C4D     		ldr	r5, .L40+8
 800 01ec 2540     		ands	r5, r4
 801              	.LVL82:
 269:Drivers/STM32F0xx_HAL_Driver/Src/stm32f0xx_ll_usb.c ****       PCD_CLEAR_TX_DTOG(USBx, ep->num);
 802              		.loc 1 269 7 discriminator 1 view .LVU237
 803 01ee 424C     		ldr	r4, .L40+36
 804 01f0 2C43     		orrs	r4, r5
 805 01f2 A4B2     		uxth	r4, r4
 806 01f4 1480     		strh	r4, [r2]
 807              	.LVL83:
 808              	.L30:
 269:Drivers/STM32F0xx_HAL_Driver/Src/stm32f0xx_ll_usb.c ****       PCD_CLEAR_TX_DTOG(USBx, ep->num);
 809              		.loc 1 269 7 is_stmt 0 discriminator 1 view .LVU238
 810              	.LBE20:
 269:Drivers/STM32F0xx_HAL_Driver/Src/stm32f0xx_ll_usb.c ****       PCD_CLEAR_TX_DTOG(USBx, ep->num);
 811              		.loc 1 269 7 is_stmt 1 discriminator 3 view .LVU239
 812              	.LBE19:
 269:Drivers/STM32F0xx_HAL_Driver/Src/stm32f0xx_ll_usb.c ****       PCD_CLEAR_TX_DTOG(USBx, ep->num);
 813              		.loc 1 269 7 discriminator 3 view .LVU240
 270:Drivers/STM32F0xx_HAL_Driver/Src/stm32f0xx_ll_usb.c **** 
 814              		.loc 1 270 7 discriminator 3 view .LVU241
 815              	.LBB21:
 270:Drivers/STM32F0xx_HAL_Driver/Src/stm32f0xx_ll_usb.c **** 
 816              		.loc 1 270 7 discriminator 3 view .LVU242
 270:Drivers/STM32F0xx_HAL_Driver/Src/stm32f0xx_ll_usb.c **** 
 817              		.loc 1 270 7 discriminator 3 view .LVU243
 818 01f6 0A78     		ldrb	r2, [r1]
 819 01f8 9200     		lsls	r2, r2, #2
 820 01fa 9A18     		adds	r2, r3, r2
 821 01fc 1488     		ldrh	r4, [r2]
 822              	.LVL84:
 270:Drivers/STM32F0xx_HAL_Driver/Src/stm32f0xx_ll_usb.c **** 
 823              		.loc 1 270 7 discriminator 3 view .LVU244
 824 01fe 6406     		lsls	r4, r4, #25
 825 0200 06D5     		bpl	.L31
 826              	.LVL85:
 270:Drivers/STM32F0xx_HAL_Driver/Src/stm32f0xx_ll_usb.c **** 
 827              		.loc 1 270 7 discriminator 1 view .LVU245
 828              	.LBB22:
 270:Drivers/STM32F0xx_HAL_Driver/Src/stm32f0xx_ll_usb.c **** 
 829              		.loc 1 270 7 discriminator 1 view .LVU246
 270:Drivers/STM32F0xx_HAL_Driver/Src/stm32f0xx_ll_usb.c **** 
 830              		.loc 1 270 7 discriminator 1 view .LVU247
 831 0202 1488     		ldrh	r4, [r2]
 832 0204 354D     		ldr	r5, .L40+8
ARM GAS  /tmp/ccnaAMFS.s 			page 22


 833 0206 2540     		ands	r5, r4
 834              	.LVL86:
 270:Drivers/STM32F0xx_HAL_Driver/Src/stm32f0xx_ll_usb.c **** 
 835              		.loc 1 270 7 discriminator 1 view .LVU248
 836 0208 354C     		ldr	r4, .L40+12
 837 020a 2C43     		orrs	r4, r5
 838 020c A4B2     		uxth	r4, r4
 839 020e 1480     		strh	r4, [r2]
 840              	.LVL87:
 841              	.L31:
 270:Drivers/STM32F0xx_HAL_Driver/Src/stm32f0xx_ll_usb.c **** 
 842              		.loc 1 270 7 is_stmt 0 discriminator 1 view .LVU249
 843              	.LBE22:
 270:Drivers/STM32F0xx_HAL_Driver/Src/stm32f0xx_ll_usb.c **** 
 844              		.loc 1 270 7 is_stmt 1 discriminator 3 view .LVU250
 845              	.LBE21:
 270:Drivers/STM32F0xx_HAL_Driver/Src/stm32f0xx_ll_usb.c **** 
 846              		.loc 1 270 7 discriminator 3 view .LVU251
 272:Drivers/STM32F0xx_HAL_Driver/Src/stm32f0xx_ll_usb.c ****       PCD_SET_EP_TX_STATUS(USBx, ep->num, USB_EP_TX_DIS);
 847              		.loc 1 272 7 discriminator 3 view .LVU252
 848              	.LBB23:
 272:Drivers/STM32F0xx_HAL_Driver/Src/stm32f0xx_ll_usb.c ****       PCD_SET_EP_TX_STATUS(USBx, ep->num, USB_EP_TX_DIS);
 849              		.loc 1 272 7 discriminator 3 view .LVU253
 272:Drivers/STM32F0xx_HAL_Driver/Src/stm32f0xx_ll_usb.c ****       PCD_SET_EP_TX_STATUS(USBx, ep->num, USB_EP_TX_DIS);
 850              		.loc 1 272 7 discriminator 3 view .LVU254
 851 0210 0C78     		ldrb	r4, [r1]
 852 0212 A400     		lsls	r4, r4, #2
 853 0214 1C19     		adds	r4, r3, r4
 854 0216 2288     		ldrh	r2, [r4]
 855 0218 384D     		ldr	r5, .L40+40
 856 021a 1540     		ands	r5, r2
 857              	.LVL88:
 272:Drivers/STM32F0xx_HAL_Driver/Src/stm32f0xx_ll_usb.c ****       PCD_SET_EP_TX_STATUS(USBx, ep->num, USB_EP_TX_DIS);
 858              		.loc 1 272 7 discriminator 3 view .LVU255
 272:Drivers/STM32F0xx_HAL_Driver/Src/stm32f0xx_ll_usb.c ****       PCD_SET_EP_TX_STATUS(USBx, ep->num, USB_EP_TX_DIS);
 859              		.loc 1 272 7 discriminator 3 view .LVU256
 272:Drivers/STM32F0xx_HAL_Driver/Src/stm32f0xx_ll_usb.c ****       PCD_SET_EP_TX_STATUS(USBx, ep->num, USB_EP_TX_DIS);
 860              		.loc 1 272 7 discriminator 3 view .LVU257
 272:Drivers/STM32F0xx_HAL_Driver/Src/stm32f0xx_ll_usb.c ****       PCD_SET_EP_TX_STATUS(USBx, ep->num, USB_EP_TX_DIS);
 861              		.loc 1 272 7 discriminator 3 view .LVU258
 862 021c C022     		movs	r2, #192
 863 021e 9201     		lsls	r2, r2, #6
 864 0220 6A40     		eors	r2, r5
 865              	.LVL89:
 272:Drivers/STM32F0xx_HAL_Driver/Src/stm32f0xx_ll_usb.c ****       PCD_SET_EP_TX_STATUS(USBx, ep->num, USB_EP_TX_DIS);
 866              		.loc 1 272 7 discriminator 3 view .LVU259
 867 0222 2D4D     		ldr	r5, .L40+4
 868 0224 2A43     		orrs	r2, r5
 869              	.LVL90:
 272:Drivers/STM32F0xx_HAL_Driver/Src/stm32f0xx_ll_usb.c ****       PCD_SET_EP_TX_STATUS(USBx, ep->num, USB_EP_TX_DIS);
 870              		.loc 1 272 7 is_stmt 0 discriminator 3 view .LVU260
 871 0226 92B2     		uxth	r2, r2
 872 0228 2280     		strh	r2, [r4]
 873              	.LBE23:
 272:Drivers/STM32F0xx_HAL_Driver/Src/stm32f0xx_ll_usb.c ****       PCD_SET_EP_TX_STATUS(USBx, ep->num, USB_EP_TX_DIS);
 874              		.loc 1 272 7 is_stmt 1 discriminator 3 view .LVU261
 273:Drivers/STM32F0xx_HAL_Driver/Src/stm32f0xx_ll_usb.c ****     }
ARM GAS  /tmp/ccnaAMFS.s 			page 23


 875              		.loc 1 273 7 discriminator 3 view .LVU262
 876              	.LBB24:
 273:Drivers/STM32F0xx_HAL_Driver/Src/stm32f0xx_ll_usb.c ****     }
 877              		.loc 1 273 7 discriminator 3 view .LVU263
 273:Drivers/STM32F0xx_HAL_Driver/Src/stm32f0xx_ll_usb.c ****     }
 878              		.loc 1 273 7 discriminator 3 view .LVU264
 879 022a 0A78     		ldrb	r2, [r1]
 880 022c 9200     		lsls	r2, r2, #2
 881 022e 9B18     		adds	r3, r3, r2
 882              	.LVL91:
 273:Drivers/STM32F0xx_HAL_Driver/Src/stm32f0xx_ll_usb.c ****     }
 883              		.loc 1 273 7 is_stmt 0 discriminator 3 view .LVU265
 884 0230 1A88     		ldrh	r2, [r3]
 885 0232 2C49     		ldr	r1, .L40+16
 886              	.LVL92:
 273:Drivers/STM32F0xx_HAL_Driver/Src/stm32f0xx_ll_usb.c ****     }
 887              		.loc 1 273 7 discriminator 3 view .LVU266
 888 0234 0A40     		ands	r2, r1
 889              	.LVL93:
 273:Drivers/STM32F0xx_HAL_Driver/Src/stm32f0xx_ll_usb.c ****     }
 890              		.loc 1 273 7 is_stmt 1 discriminator 3 view .LVU267
 273:Drivers/STM32F0xx_HAL_Driver/Src/stm32f0xx_ll_usb.c ****     }
 891              		.loc 1 273 7 discriminator 3 view .LVU268
 273:Drivers/STM32F0xx_HAL_Driver/Src/stm32f0xx_ll_usb.c ****     }
 892              		.loc 1 273 7 discriminator 3 view .LVU269
 893 0236 2A43     		orrs	r2, r5
 894              	.LVL94:
 273:Drivers/STM32F0xx_HAL_Driver/Src/stm32f0xx_ll_usb.c ****     }
 895              		.loc 1 273 7 is_stmt 0 discriminator 3 view .LVU270
 896 0238 92B2     		uxth	r2, r2
 897 023a 1A80     		strh	r2, [r3]
 898              	.LBE24:
 273:Drivers/STM32F0xx_HAL_Driver/Src/stm32f0xx_ll_usb.c ****     }
 899              		.loc 1 273 7 is_stmt 1 discriminator 3 view .LVU271
 900 023c 8EE7     		b	.L20
 901              	.LVL95:
 902              	.L39:
 255:Drivers/STM32F0xx_HAL_Driver/Src/stm32f0xx_ll_usb.c ****     }
 903              		.loc 1 255 7 view .LVU272
 904              	.LBB25:
 255:Drivers/STM32F0xx_HAL_Driver/Src/stm32f0xx_ll_usb.c ****     }
 905              		.loc 1 255 7 view .LVU273
 255:Drivers/STM32F0xx_HAL_Driver/Src/stm32f0xx_ll_usb.c ****     }
 906              		.loc 1 255 7 view .LVU274
 907 023e 0A78     		ldrb	r2, [r1]
 908 0240 9200     		lsls	r2, r2, #2
 909 0242 9A18     		adds	r2, r3, r2
 910 0244 1488     		ldrh	r4, [r2]
 911 0246 254D     		ldr	r5, .L40+8
 912 0248 2540     		ands	r5, r4
 913              	.LVL96:
 255:Drivers/STM32F0xx_HAL_Driver/Src/stm32f0xx_ll_usb.c ****     }
 914              		.loc 1 255 7 view .LVU275
 915 024a 2E4C     		ldr	r4, .L40+48
 916 024c 2C43     		orrs	r4, r5
 917 024e A4B2     		uxth	r4, r4
 918 0250 1480     		strh	r4, [r2]
ARM GAS  /tmp/ccnaAMFS.s 			page 24


 919              	.LBE25:
 255:Drivers/STM32F0xx_HAL_Driver/Src/stm32f0xx_ll_usb.c ****     }
 920              		.loc 1 255 7 view .LVU276
 921 0252 A6E7     		b	.L28
 922              	.LVL97:
 923              	.L29:
 278:Drivers/STM32F0xx_HAL_Driver/Src/stm32f0xx_ll_usb.c ****       PCD_CLEAR_TX_DTOG(USBx, ep->num);
 924              		.loc 1 278 7 view .LVU277
 925              	.LBB26:
 278:Drivers/STM32F0xx_HAL_Driver/Src/stm32f0xx_ll_usb.c ****       PCD_CLEAR_TX_DTOG(USBx, ep->num);
 926              		.loc 1 278 7 view .LVU278
 278:Drivers/STM32F0xx_HAL_Driver/Src/stm32f0xx_ll_usb.c ****       PCD_CLEAR_TX_DTOG(USBx, ep->num);
 927              		.loc 1 278 7 view .LVU279
 928 0254 0A78     		ldrb	r2, [r1]
 929 0256 9200     		lsls	r2, r2, #2
 930 0258 9A18     		adds	r2, r3, r2
 931 025a 1488     		ldrh	r4, [r2]
 932              	.LVL98:
 278:Drivers/STM32F0xx_HAL_Driver/Src/stm32f0xx_ll_usb.c ****       PCD_CLEAR_TX_DTOG(USBx, ep->num);
 933              		.loc 1 278 7 view .LVU280
 934 025c 6404     		lsls	r4, r4, #17
 935 025e 06D5     		bpl	.L32
 936              	.LVL99:
 278:Drivers/STM32F0xx_HAL_Driver/Src/stm32f0xx_ll_usb.c ****       PCD_CLEAR_TX_DTOG(USBx, ep->num);
 937              		.loc 1 278 7 discriminator 1 view .LVU281
 938              	.LBB27:
 278:Drivers/STM32F0xx_HAL_Driver/Src/stm32f0xx_ll_usb.c ****       PCD_CLEAR_TX_DTOG(USBx, ep->num);
 939              		.loc 1 278 7 discriminator 1 view .LVU282
 278:Drivers/STM32F0xx_HAL_Driver/Src/stm32f0xx_ll_usb.c ****       PCD_CLEAR_TX_DTOG(USBx, ep->num);
 940              		.loc 1 278 7 discriminator 1 view .LVU283
 941 0260 1488     		ldrh	r4, [r2]
 942 0262 1E4D     		ldr	r5, .L40+8
 943 0264 2540     		ands	r5, r4
 944              	.LVL100:
 278:Drivers/STM32F0xx_HAL_Driver/Src/stm32f0xx_ll_usb.c ****       PCD_CLEAR_TX_DTOG(USBx, ep->num);
 945              		.loc 1 278 7 discriminator 1 view .LVU284
 946 0266 244C     		ldr	r4, .L40+36
 947 0268 2C43     		orrs	r4, r5
 948 026a A4B2     		uxth	r4, r4
 949 026c 1480     		strh	r4, [r2]
 950              	.LVL101:
 951              	.L32:
 278:Drivers/STM32F0xx_HAL_Driver/Src/stm32f0xx_ll_usb.c ****       PCD_CLEAR_TX_DTOG(USBx, ep->num);
 952              		.loc 1 278 7 is_stmt 0 discriminator 1 view .LVU285
 953              	.LBE27:
 278:Drivers/STM32F0xx_HAL_Driver/Src/stm32f0xx_ll_usb.c ****       PCD_CLEAR_TX_DTOG(USBx, ep->num);
 954              		.loc 1 278 7 is_stmt 1 discriminator 3 view .LVU286
 955              	.LBE26:
 278:Drivers/STM32F0xx_HAL_Driver/Src/stm32f0xx_ll_usb.c ****       PCD_CLEAR_TX_DTOG(USBx, ep->num);
 956              		.loc 1 278 7 discriminator 3 view .LVU287
 279:Drivers/STM32F0xx_HAL_Driver/Src/stm32f0xx_ll_usb.c **** 
 957              		.loc 1 279 7 discriminator 3 view .LVU288
 958              	.LBB28:
 279:Drivers/STM32F0xx_HAL_Driver/Src/stm32f0xx_ll_usb.c **** 
 959              		.loc 1 279 7 discriminator 3 view .LVU289
 279:Drivers/STM32F0xx_HAL_Driver/Src/stm32f0xx_ll_usb.c **** 
 960              		.loc 1 279 7 discriminator 3 view .LVU290
ARM GAS  /tmp/ccnaAMFS.s 			page 25


 961 026e 0A78     		ldrb	r2, [r1]
 962 0270 9200     		lsls	r2, r2, #2
 963 0272 9A18     		adds	r2, r3, r2
 964 0274 1488     		ldrh	r4, [r2]
 965              	.LVL102:
 279:Drivers/STM32F0xx_HAL_Driver/Src/stm32f0xx_ll_usb.c **** 
 966              		.loc 1 279 7 discriminator 3 view .LVU291
 967 0276 6406     		lsls	r4, r4, #25
 968 0278 06D5     		bpl	.L33
 969              	.LVL103:
 279:Drivers/STM32F0xx_HAL_Driver/Src/stm32f0xx_ll_usb.c **** 
 970              		.loc 1 279 7 discriminator 1 view .LVU292
 971              	.LBB29:
 279:Drivers/STM32F0xx_HAL_Driver/Src/stm32f0xx_ll_usb.c **** 
 972              		.loc 1 279 7 discriminator 1 view .LVU293
 279:Drivers/STM32F0xx_HAL_Driver/Src/stm32f0xx_ll_usb.c **** 
 973              		.loc 1 279 7 discriminator 1 view .LVU294
 974 027a 1488     		ldrh	r4, [r2]
 975 027c 174D     		ldr	r5, .L40+8
 976 027e 2540     		ands	r5, r4
 977              	.LVL104:
 279:Drivers/STM32F0xx_HAL_Driver/Src/stm32f0xx_ll_usb.c **** 
 978              		.loc 1 279 7 discriminator 1 view .LVU295
 979 0280 174C     		ldr	r4, .L40+12
 980 0282 2C43     		orrs	r4, r5
 981 0284 A4B2     		uxth	r4, r4
 982 0286 1480     		strh	r4, [r2]
 983              	.LVL105:
 984              	.L33:
 279:Drivers/STM32F0xx_HAL_Driver/Src/stm32f0xx_ll_usb.c **** 
 985              		.loc 1 279 7 is_stmt 0 discriminator 1 view .LVU296
 986              	.LBE29:
 279:Drivers/STM32F0xx_HAL_Driver/Src/stm32f0xx_ll_usb.c **** 
 987              		.loc 1 279 7 is_stmt 1 discriminator 3 view .LVU297
 988              	.LBE28:
 279:Drivers/STM32F0xx_HAL_Driver/Src/stm32f0xx_ll_usb.c **** 
 989              		.loc 1 279 7 discriminator 3 view .LVU298
 281:Drivers/STM32F0xx_HAL_Driver/Src/stm32f0xx_ll_usb.c ****       {
 990              		.loc 1 281 7 discriminator 3 view .LVU299
 281:Drivers/STM32F0xx_HAL_Driver/Src/stm32f0xx_ll_usb.c ****       {
 991              		.loc 1 281 13 is_stmt 0 discriminator 3 view .LVU300
 992 0288 CA78     		ldrb	r2, [r1, #3]
 281:Drivers/STM32F0xx_HAL_Driver/Src/stm32f0xx_ll_usb.c ****       {
 993              		.loc 1 281 10 discriminator 3 view .LVU301
 994 028a 012A     		cmp	r2, #1
 995 028c 17D0     		beq	.L34
 284:Drivers/STM32F0xx_HAL_Driver/Src/stm32f0xx_ll_usb.c ****       }
 996              		.loc 1 284 9 is_stmt 1 view .LVU302
 997              	.LBB30:
 284:Drivers/STM32F0xx_HAL_Driver/Src/stm32f0xx_ll_usb.c ****       }
 998              		.loc 1 284 9 view .LVU303
 284:Drivers/STM32F0xx_HAL_Driver/Src/stm32f0xx_ll_usb.c ****       }
 999              		.loc 1 284 9 view .LVU304
 1000 028e 0C78     		ldrb	r4, [r1]
 1001 0290 A400     		lsls	r4, r4, #2
 1002 0292 1C19     		adds	r4, r3, r4
 1003 0294 2288     		ldrh	r2, [r4]
ARM GAS  /tmp/ccnaAMFS.s 			page 26


 1004 0296 134D     		ldr	r5, .L40+16
 1005 0298 2A40     		ands	r2, r5
 1006              	.LVL106:
 284:Drivers/STM32F0xx_HAL_Driver/Src/stm32f0xx_ll_usb.c ****       }
 1007              		.loc 1 284 9 view .LVU305
 284:Drivers/STM32F0xx_HAL_Driver/Src/stm32f0xx_ll_usb.c ****       }
 1008              		.loc 1 284 9 view .LVU306
 284:Drivers/STM32F0xx_HAL_Driver/Src/stm32f0xx_ll_usb.c ****       }
 1009              		.loc 1 284 9 view .LVU307
 1010 029a 2025     		movs	r5, #32
 1011 029c 6A40     		eors	r2, r5
 1012              	.LVL107:
 284:Drivers/STM32F0xx_HAL_Driver/Src/stm32f0xx_ll_usb.c ****       }
 1013              		.loc 1 284 9 is_stmt 0 view .LVU308
 1014 029e 92B2     		uxth	r2, r2
 1015              	.LVL108:
 284:Drivers/STM32F0xx_HAL_Driver/Src/stm32f0xx_ll_usb.c ****       }
 1016              		.loc 1 284 9 is_stmt 1 view .LVU309
 1017 02a0 0D4D     		ldr	r5, .L40+4
 1018 02a2 2A43     		orrs	r2, r5
 1019              	.LVL109:
 284:Drivers/STM32F0xx_HAL_Driver/Src/stm32f0xx_ll_usb.c ****       }
 1020              		.loc 1 284 9 is_stmt 0 view .LVU310
 1021 02a4 92B2     		uxth	r2, r2
 1022 02a6 2280     		strh	r2, [r4]
 1023              	.LBE30:
 284:Drivers/STM32F0xx_HAL_Driver/Src/stm32f0xx_ll_usb.c ****       }
 1024              		.loc 1 284 9 is_stmt 1 view .LVU311
 1025              	.L35:
 289:Drivers/STM32F0xx_HAL_Driver/Src/stm32f0xx_ll_usb.c ****       }
 1026              		.loc 1 289 9 discriminator 7 view .LVU312
 292:Drivers/STM32F0xx_HAL_Driver/Src/stm32f0xx_ll_usb.c ****     }
 1027              		.loc 1 292 7 discriminator 7 view .LVU313
 1028              	.LBB31:
 292:Drivers/STM32F0xx_HAL_Driver/Src/stm32f0xx_ll_usb.c ****     }
 1029              		.loc 1 292 7 discriminator 7 view .LVU314
 292:Drivers/STM32F0xx_HAL_Driver/Src/stm32f0xx_ll_usb.c ****     }
 1030              		.loc 1 292 7 discriminator 7 view .LVU315
 1031 02a8 0A78     		ldrb	r2, [r1]
 1032 02aa 9200     		lsls	r2, r2, #2
 1033 02ac 9B18     		adds	r3, r3, r2
 1034              	.LVL110:
 292:Drivers/STM32F0xx_HAL_Driver/Src/stm32f0xx_ll_usb.c ****     }
 1035              		.loc 1 292 7 is_stmt 0 discriminator 7 view .LVU316
 1036 02ae 1A88     		ldrh	r2, [r3]
 1037 02b0 1249     		ldr	r1, .L40+40
 1038              	.LVL111:
 292:Drivers/STM32F0xx_HAL_Driver/Src/stm32f0xx_ll_usb.c ****     }
 1039              		.loc 1 292 7 discriminator 7 view .LVU317
 1040 02b2 1140     		ands	r1, r2
 1041              	.LVL112:
 292:Drivers/STM32F0xx_HAL_Driver/Src/stm32f0xx_ll_usb.c ****     }
 1042              		.loc 1 292 7 is_stmt 1 discriminator 7 view .LVU318
 292:Drivers/STM32F0xx_HAL_Driver/Src/stm32f0xx_ll_usb.c ****     }
 1043              		.loc 1 292 7 discriminator 7 view .LVU319
 292:Drivers/STM32F0xx_HAL_Driver/Src/stm32f0xx_ll_usb.c ****     }
 1044              		.loc 1 292 7 discriminator 7 view .LVU320
ARM GAS  /tmp/ccnaAMFS.s 			page 27


 1045 02b4 084A     		ldr	r2, .L40+4
 1046 02b6 0A43     		orrs	r2, r1
 1047 02b8 92B2     		uxth	r2, r2
 1048 02ba 1A80     		strh	r2, [r3]
 1049 02bc 4EE7     		b	.L20
 1050              	.LVL113:
 1051              	.L34:
 292:Drivers/STM32F0xx_HAL_Driver/Src/stm32f0xx_ll_usb.c ****     }
 1052              		.loc 1 292 7 is_stmt 0 discriminator 7 view .LVU321
 1053              	.LBE31:
 289:Drivers/STM32F0xx_HAL_Driver/Src/stm32f0xx_ll_usb.c ****       }
 1054              		.loc 1 289 9 is_stmt 1 view .LVU322
 1055              	.LBB32:
 289:Drivers/STM32F0xx_HAL_Driver/Src/stm32f0xx_ll_usb.c ****       }
 1056              		.loc 1 289 9 view .LVU323
 289:Drivers/STM32F0xx_HAL_Driver/Src/stm32f0xx_ll_usb.c ****       }
 1057              		.loc 1 289 9 view .LVU324
 1058 02be 0A78     		ldrb	r2, [r1]
 1059 02c0 9200     		lsls	r2, r2, #2
 1060 02c2 9A18     		adds	r2, r3, r2
 1061 02c4 1488     		ldrh	r4, [r2]
 1062 02c6 074D     		ldr	r5, .L40+16
 1063 02c8 2540     		ands	r5, r4
 1064              	.LVL114:
 289:Drivers/STM32F0xx_HAL_Driver/Src/stm32f0xx_ll_usb.c ****       }
 1065              		.loc 1 289 9 view .LVU325
 289:Drivers/STM32F0xx_HAL_Driver/Src/stm32f0xx_ll_usb.c ****       }
 1066              		.loc 1 289 9 view .LVU326
 289:Drivers/STM32F0xx_HAL_Driver/Src/stm32f0xx_ll_usb.c ****       }
 1067              		.loc 1 289 9 view .LVU327
 1068 02ca 034C     		ldr	r4, .L40+4
 1069 02cc 2C43     		orrs	r4, r5
 1070 02ce A4B2     		uxth	r4, r4
 1071 02d0 1480     		strh	r4, [r2]
 1072 02d2 E9E7     		b	.L35
 1073              	.L41:
 1074              		.align	2
 1075              	.L40:
 1076 02d4 8F89FFFF 		.word	-30321
 1077 02d8 8080FFFF 		.word	-32640
 1078 02dc 8F8FFFFF 		.word	-28785
 1079 02e0 C080FFFF 		.word	-32576
 1080 02e4 BF8FFFFF 		.word	-28737
 1081 02e8 04040000 		.word	1028
 1082 02ec 06040000 		.word	1030
 1083 02f0 FF83FFFF 		.word	-31745
 1084 02f4 0080FFFF 		.word	-32768
 1085 02f8 80C0FFFF 		.word	-16256
 1086 02fc 8FBFFFFF 		.word	-16497
 1087 0300 8F8EFFFF 		.word	-29041
 1088 0304 8081FFFF 		.word	-32384
 1089              	.LBE32:
 1090              		.cfi_endproc
 1091              	.LFE45:
 1093              		.section	.text.USB_DeactivateEndpoint,"ax",%progbits
 1094              		.align	1
 1095              		.global	USB_DeactivateEndpoint
ARM GAS  /tmp/ccnaAMFS.s 			page 28


 1096              		.syntax unified
 1097              		.code	16
 1098              		.thumb_func
 1099              		.fpu softvfp
 1101              	USB_DeactivateEndpoint:
 1102              	.LVL115:
 1103              	.LFB46:
 298:Drivers/STM32F0xx_HAL_Driver/Src/stm32f0xx_ll_usb.c **** 
 299:Drivers/STM32F0xx_HAL_Driver/Src/stm32f0xx_ll_usb.c **** /**
 300:Drivers/STM32F0xx_HAL_Driver/Src/stm32f0xx_ll_usb.c ****   * @brief  De-activate and de-initialize an endpoint
 301:Drivers/STM32F0xx_HAL_Driver/Src/stm32f0xx_ll_usb.c ****   * @param  USBx Selected device
 302:Drivers/STM32F0xx_HAL_Driver/Src/stm32f0xx_ll_usb.c ****   * @param  ep pointer to endpoint structure
 303:Drivers/STM32F0xx_HAL_Driver/Src/stm32f0xx_ll_usb.c ****   * @retval HAL status
 304:Drivers/STM32F0xx_HAL_Driver/Src/stm32f0xx_ll_usb.c ****   */
 305:Drivers/STM32F0xx_HAL_Driver/Src/stm32f0xx_ll_usb.c **** HAL_StatusTypeDef USB_DeactivateEndpoint(USB_TypeDef *USBx, USB_EPTypeDef *ep)
 306:Drivers/STM32F0xx_HAL_Driver/Src/stm32f0xx_ll_usb.c **** {
 1104              		.loc 1 306 1 view -0
 1105              		.cfi_startproc
 1106              		@ args = 0, pretend = 0, frame = 0
 1107              		@ frame_needed = 0, uses_anonymous_args = 0
 1108              		.loc 1 306 1 is_stmt 0 view .LVU329
 1109 0000 10B5     		push	{r4, lr}
 1110              	.LCFI3:
 1111              		.cfi_def_cfa_offset 8
 1112              		.cfi_offset 4, -8
 1113              		.cfi_offset 14, -4
 307:Drivers/STM32F0xx_HAL_Driver/Src/stm32f0xx_ll_usb.c ****   if (ep->doublebuffer == 0U)
 1114              		.loc 1 307 3 is_stmt 1 view .LVU330
 1115              		.loc 1 307 9 is_stmt 0 view .LVU331
 1116 0002 0B7B     		ldrb	r3, [r1, #12]
 1117              		.loc 1 307 6 view .LVU332
 1118 0004 002B     		cmp	r3, #0
 1119 0006 33D1     		bne	.L43
 308:Drivers/STM32F0xx_HAL_Driver/Src/stm32f0xx_ll_usb.c ****   {
 309:Drivers/STM32F0xx_HAL_Driver/Src/stm32f0xx_ll_usb.c ****     if (ep->is_in != 0U)
 1120              		.loc 1 309 5 is_stmt 1 view .LVU333
 1121              		.loc 1 309 11 is_stmt 0 view .LVU334
 1122 0008 4B78     		ldrb	r3, [r1, #1]
 1123              		.loc 1 309 8 view .LVU335
 1124 000a 002B     		cmp	r3, #0
 1125 000c 18D0     		beq	.L44
 310:Drivers/STM32F0xx_HAL_Driver/Src/stm32f0xx_ll_usb.c ****     {
 311:Drivers/STM32F0xx_HAL_Driver/Src/stm32f0xx_ll_usb.c ****       PCD_CLEAR_TX_DTOG(USBx, ep->num);
 1126              		.loc 1 311 7 is_stmt 1 view .LVU336
 1127              	.LBB33:
 1128              		.loc 1 311 7 view .LVU337
 1129              		.loc 1 311 7 view .LVU338
 1130 000e 0B78     		ldrb	r3, [r1]
 1131 0010 9B00     		lsls	r3, r3, #2
 1132 0012 C318     		adds	r3, r0, r3
 1133 0014 1A88     		ldrh	r2, [r3]
 1134              	.LVL116:
 1135              		.loc 1 311 7 view .LVU339
 1136 0016 5206     		lsls	r2, r2, #25
 1137 0018 06D5     		bpl	.L45
 1138              	.LVL117:
 1139              		.loc 1 311 7 discriminator 1 view .LVU340
ARM GAS  /tmp/ccnaAMFS.s 			page 29


 1140              	.LBB34:
 1141              		.loc 1 311 7 discriminator 1 view .LVU341
 1142              		.loc 1 311 7 discriminator 1 view .LVU342
 1143 001a 1A88     		ldrh	r2, [r3]
 1144 001c 4E4C     		ldr	r4, .L53
 1145 001e 1440     		ands	r4, r2
 1146              	.LVL118:
 1147              		.loc 1 311 7 discriminator 1 view .LVU343
 1148 0020 4E4A     		ldr	r2, .L53+4
 1149 0022 2243     		orrs	r2, r4
 1150 0024 92B2     		uxth	r2, r2
 1151 0026 1A80     		strh	r2, [r3]
 1152              	.LVL119:
 1153              	.L45:
 1154              		.loc 1 311 7 is_stmt 0 discriminator 1 view .LVU344
 1155              	.LBE34:
 1156              		.loc 1 311 7 is_stmt 1 discriminator 3 view .LVU345
 1157              	.LBE33:
 1158              		.loc 1 311 7 discriminator 3 view .LVU346
 312:Drivers/STM32F0xx_HAL_Driver/Src/stm32f0xx_ll_usb.c **** 
 313:Drivers/STM32F0xx_HAL_Driver/Src/stm32f0xx_ll_usb.c ****       /* Configure DISABLE status for the Endpoint*/
 314:Drivers/STM32F0xx_HAL_Driver/Src/stm32f0xx_ll_usb.c ****       PCD_SET_EP_TX_STATUS(USBx, ep->num, USB_EP_TX_DIS);
 1159              		.loc 1 314 7 discriminator 3 view .LVU347
 1160              	.LBB35:
 1161              		.loc 1 314 7 discriminator 3 view .LVU348
 1162              		.loc 1 314 7 discriminator 3 view .LVU349
 1163 0028 0B78     		ldrb	r3, [r1]
 1164 002a 9B00     		lsls	r3, r3, #2
 1165 002c C018     		adds	r0, r0, r3
 1166              	.LVL120:
 1167              		.loc 1 314 7 is_stmt 0 discriminator 3 view .LVU350
 1168 002e 0388     		ldrh	r3, [r0]
 1169 0030 4B4A     		ldr	r2, .L53+8
 1170 0032 1A40     		ands	r2, r3
 1171              	.LVL121:
 1172              		.loc 1 314 7 is_stmt 1 discriminator 3 view .LVU351
 1173              		.loc 1 314 7 discriminator 3 view .LVU352
 1174              		.loc 1 314 7 discriminator 3 view .LVU353
 1175 0034 4B4B     		ldr	r3, .L53+12
 1176 0036 1343     		orrs	r3, r2
 1177 0038 9BB2     		uxth	r3, r3
 1178 003a 0380     		strh	r3, [r0]
 1179              	.LBE35:
 1180              		.loc 1 314 7 discriminator 3 view .LVU354
 1181              	.LVL122:
 1182              	.L46:
 315:Drivers/STM32F0xx_HAL_Driver/Src/stm32f0xx_ll_usb.c ****     }
 316:Drivers/STM32F0xx_HAL_Driver/Src/stm32f0xx_ll_usb.c ****     else
 317:Drivers/STM32F0xx_HAL_Driver/Src/stm32f0xx_ll_usb.c ****     {
 318:Drivers/STM32F0xx_HAL_Driver/Src/stm32f0xx_ll_usb.c ****       PCD_CLEAR_RX_DTOG(USBx, ep->num);
 319:Drivers/STM32F0xx_HAL_Driver/Src/stm32f0xx_ll_usb.c **** 
 320:Drivers/STM32F0xx_HAL_Driver/Src/stm32f0xx_ll_usb.c ****       /* Configure DISABLE status for the Endpoint*/
 321:Drivers/STM32F0xx_HAL_Driver/Src/stm32f0xx_ll_usb.c ****       PCD_SET_EP_RX_STATUS(USBx, ep->num, USB_EP_RX_DIS);
 322:Drivers/STM32F0xx_HAL_Driver/Src/stm32f0xx_ll_usb.c ****     }
 323:Drivers/STM32F0xx_HAL_Driver/Src/stm32f0xx_ll_usb.c ****   }
 324:Drivers/STM32F0xx_HAL_Driver/Src/stm32f0xx_ll_usb.c ****   /*Double Buffer*/
 325:Drivers/STM32F0xx_HAL_Driver/Src/stm32f0xx_ll_usb.c ****   else
ARM GAS  /tmp/ccnaAMFS.s 			page 30


 326:Drivers/STM32F0xx_HAL_Driver/Src/stm32f0xx_ll_usb.c ****   {
 327:Drivers/STM32F0xx_HAL_Driver/Src/stm32f0xx_ll_usb.c ****     if (ep->is_in == 0U)
 328:Drivers/STM32F0xx_HAL_Driver/Src/stm32f0xx_ll_usb.c ****     {
 329:Drivers/STM32F0xx_HAL_Driver/Src/stm32f0xx_ll_usb.c ****       /* Clear the data toggle bits for the endpoint IN/OUT*/
 330:Drivers/STM32F0xx_HAL_Driver/Src/stm32f0xx_ll_usb.c ****       PCD_CLEAR_RX_DTOG(USBx, ep->num);
 331:Drivers/STM32F0xx_HAL_Driver/Src/stm32f0xx_ll_usb.c ****       PCD_CLEAR_TX_DTOG(USBx, ep->num);
 332:Drivers/STM32F0xx_HAL_Driver/Src/stm32f0xx_ll_usb.c **** 
 333:Drivers/STM32F0xx_HAL_Driver/Src/stm32f0xx_ll_usb.c ****       /* Reset value of the data toggle bits for the endpoint out*/
 334:Drivers/STM32F0xx_HAL_Driver/Src/stm32f0xx_ll_usb.c ****       PCD_TX_DTOG(USBx, ep->num);
 335:Drivers/STM32F0xx_HAL_Driver/Src/stm32f0xx_ll_usb.c **** 
 336:Drivers/STM32F0xx_HAL_Driver/Src/stm32f0xx_ll_usb.c ****       PCD_SET_EP_RX_STATUS(USBx, ep->num, USB_EP_RX_DIS);
 337:Drivers/STM32F0xx_HAL_Driver/Src/stm32f0xx_ll_usb.c ****       PCD_SET_EP_TX_STATUS(USBx, ep->num, USB_EP_TX_DIS);
 338:Drivers/STM32F0xx_HAL_Driver/Src/stm32f0xx_ll_usb.c ****     }
 339:Drivers/STM32F0xx_HAL_Driver/Src/stm32f0xx_ll_usb.c ****     else
 340:Drivers/STM32F0xx_HAL_Driver/Src/stm32f0xx_ll_usb.c ****     {
 341:Drivers/STM32F0xx_HAL_Driver/Src/stm32f0xx_ll_usb.c ****       /* Clear the data toggle bits for the endpoint IN/OUT*/
 342:Drivers/STM32F0xx_HAL_Driver/Src/stm32f0xx_ll_usb.c ****       PCD_CLEAR_RX_DTOG(USBx, ep->num);
 343:Drivers/STM32F0xx_HAL_Driver/Src/stm32f0xx_ll_usb.c ****       PCD_CLEAR_TX_DTOG(USBx, ep->num);
 344:Drivers/STM32F0xx_HAL_Driver/Src/stm32f0xx_ll_usb.c ****       PCD_RX_DTOG(USBx, ep->num);
 345:Drivers/STM32F0xx_HAL_Driver/Src/stm32f0xx_ll_usb.c **** 
 346:Drivers/STM32F0xx_HAL_Driver/Src/stm32f0xx_ll_usb.c ****       /* Configure DISABLE status for the Endpoint*/
 347:Drivers/STM32F0xx_HAL_Driver/Src/stm32f0xx_ll_usb.c ****       PCD_SET_EP_TX_STATUS(USBx, ep->num, USB_EP_TX_DIS);
 348:Drivers/STM32F0xx_HAL_Driver/Src/stm32f0xx_ll_usb.c ****       PCD_SET_EP_RX_STATUS(USBx, ep->num, USB_EP_RX_DIS);
 1183              		.loc 1 348 7 discriminator 7 view .LVU355
 349:Drivers/STM32F0xx_HAL_Driver/Src/stm32f0xx_ll_usb.c ****     }
 350:Drivers/STM32F0xx_HAL_Driver/Src/stm32f0xx_ll_usb.c ****   }
 351:Drivers/STM32F0xx_HAL_Driver/Src/stm32f0xx_ll_usb.c **** 
 352:Drivers/STM32F0xx_HAL_Driver/Src/stm32f0xx_ll_usb.c ****   return HAL_OK;
 1184              		.loc 1 352 3 discriminator 7 view .LVU356
 353:Drivers/STM32F0xx_HAL_Driver/Src/stm32f0xx_ll_usb.c **** }
 1185              		.loc 1 353 1 is_stmt 0 discriminator 7 view .LVU357
 1186 003c 0020     		movs	r0, #0
 1187              		@ sp needed
 1188 003e 10BD     		pop	{r4, pc}
 1189              	.LVL123:
 1190              	.L44:
 318:Drivers/STM32F0xx_HAL_Driver/Src/stm32f0xx_ll_usb.c **** 
 1191              		.loc 1 318 7 is_stmt 1 view .LVU358
 1192              	.LBB36:
 318:Drivers/STM32F0xx_HAL_Driver/Src/stm32f0xx_ll_usb.c **** 
 1193              		.loc 1 318 7 view .LVU359
 318:Drivers/STM32F0xx_HAL_Driver/Src/stm32f0xx_ll_usb.c **** 
 1194              		.loc 1 318 7 view .LVU360
 1195 0040 0B78     		ldrb	r3, [r1]
 1196 0042 9B00     		lsls	r3, r3, #2
 1197 0044 C318     		adds	r3, r0, r3
 1198 0046 1A88     		ldrh	r2, [r3]
 1199              	.LVL124:
 318:Drivers/STM32F0xx_HAL_Driver/Src/stm32f0xx_ll_usb.c **** 
 1200              		.loc 1 318 7 view .LVU361
 1201 0048 5204     		lsls	r2, r2, #17
 1202 004a 06D5     		bpl	.L47
 1203              	.LVL125:
 318:Drivers/STM32F0xx_HAL_Driver/Src/stm32f0xx_ll_usb.c **** 
 1204              		.loc 1 318 7 discriminator 1 view .LVU362
 1205              	.LBB37:
 318:Drivers/STM32F0xx_HAL_Driver/Src/stm32f0xx_ll_usb.c **** 
ARM GAS  /tmp/ccnaAMFS.s 			page 31


 1206              		.loc 1 318 7 discriminator 1 view .LVU363
 318:Drivers/STM32F0xx_HAL_Driver/Src/stm32f0xx_ll_usb.c **** 
 1207              		.loc 1 318 7 discriminator 1 view .LVU364
 1208 004c 1A88     		ldrh	r2, [r3]
 1209 004e 424C     		ldr	r4, .L53
 1210 0050 1440     		ands	r4, r2
 1211              	.LVL126:
 318:Drivers/STM32F0xx_HAL_Driver/Src/stm32f0xx_ll_usb.c **** 
 1212              		.loc 1 318 7 discriminator 1 view .LVU365
 1213 0052 454A     		ldr	r2, .L53+16
 1214 0054 2243     		orrs	r2, r4
 1215 0056 92B2     		uxth	r2, r2
 1216 0058 1A80     		strh	r2, [r3]
 1217              	.LVL127:
 1218              	.L47:
 318:Drivers/STM32F0xx_HAL_Driver/Src/stm32f0xx_ll_usb.c **** 
 1219              		.loc 1 318 7 is_stmt 0 discriminator 1 view .LVU366
 1220              	.LBE37:
 318:Drivers/STM32F0xx_HAL_Driver/Src/stm32f0xx_ll_usb.c **** 
 1221              		.loc 1 318 7 is_stmt 1 discriminator 3 view .LVU367
 1222              	.LBE36:
 318:Drivers/STM32F0xx_HAL_Driver/Src/stm32f0xx_ll_usb.c **** 
 1223              		.loc 1 318 7 discriminator 3 view .LVU368
 321:Drivers/STM32F0xx_HAL_Driver/Src/stm32f0xx_ll_usb.c ****     }
 1224              		.loc 1 321 7 discriminator 3 view .LVU369
 1225              	.LBB38:
 321:Drivers/STM32F0xx_HAL_Driver/Src/stm32f0xx_ll_usb.c ****     }
 1226              		.loc 1 321 7 discriminator 3 view .LVU370
 321:Drivers/STM32F0xx_HAL_Driver/Src/stm32f0xx_ll_usb.c ****     }
 1227              		.loc 1 321 7 discriminator 3 view .LVU371
 1228 005a 0B78     		ldrb	r3, [r1]
 1229 005c 9B00     		lsls	r3, r3, #2
 1230 005e C018     		adds	r0, r0, r3
 1231              	.LVL128:
 321:Drivers/STM32F0xx_HAL_Driver/Src/stm32f0xx_ll_usb.c ****     }
 1232              		.loc 1 321 7 is_stmt 0 discriminator 3 view .LVU372
 1233 0060 0388     		ldrh	r3, [r0]
 1234 0062 424A     		ldr	r2, .L53+20
 1235 0064 1A40     		ands	r2, r3
 1236              	.LVL129:
 321:Drivers/STM32F0xx_HAL_Driver/Src/stm32f0xx_ll_usb.c ****     }
 1237              		.loc 1 321 7 is_stmt 1 discriminator 3 view .LVU373
 321:Drivers/STM32F0xx_HAL_Driver/Src/stm32f0xx_ll_usb.c ****     }
 1238              		.loc 1 321 7 discriminator 3 view .LVU374
 321:Drivers/STM32F0xx_HAL_Driver/Src/stm32f0xx_ll_usb.c ****     }
 1239              		.loc 1 321 7 discriminator 3 view .LVU375
 1240 0066 3F4B     		ldr	r3, .L53+12
 1241 0068 1343     		orrs	r3, r2
 1242 006a 9BB2     		uxth	r3, r3
 1243 006c 0380     		strh	r3, [r0]
 1244 006e E5E7     		b	.L46
 1245              	.LVL130:
 1246              	.L43:
 321:Drivers/STM32F0xx_HAL_Driver/Src/stm32f0xx_ll_usb.c ****     }
 1247              		.loc 1 321 7 is_stmt 0 discriminator 3 view .LVU376
 1248              	.LBE38:
 327:Drivers/STM32F0xx_HAL_Driver/Src/stm32f0xx_ll_usb.c ****     {
ARM GAS  /tmp/ccnaAMFS.s 			page 32


 1249              		.loc 1 327 5 is_stmt 1 view .LVU377
 327:Drivers/STM32F0xx_HAL_Driver/Src/stm32f0xx_ll_usb.c ****     {
 1250              		.loc 1 327 11 is_stmt 0 view .LVU378
 1251 0070 4B78     		ldrb	r3, [r1, #1]
 327:Drivers/STM32F0xx_HAL_Driver/Src/stm32f0xx_ll_usb.c ****     {
 1252              		.loc 1 327 8 view .LVU379
 1253 0072 002B     		cmp	r3, #0
 1254 0074 37D1     		bne	.L48
 330:Drivers/STM32F0xx_HAL_Driver/Src/stm32f0xx_ll_usb.c ****       PCD_CLEAR_TX_DTOG(USBx, ep->num);
 1255              		.loc 1 330 7 is_stmt 1 view .LVU380
 1256              	.LBB39:
 330:Drivers/STM32F0xx_HAL_Driver/Src/stm32f0xx_ll_usb.c ****       PCD_CLEAR_TX_DTOG(USBx, ep->num);
 1257              		.loc 1 330 7 view .LVU381
 330:Drivers/STM32F0xx_HAL_Driver/Src/stm32f0xx_ll_usb.c ****       PCD_CLEAR_TX_DTOG(USBx, ep->num);
 1258              		.loc 1 330 7 view .LVU382
 1259 0076 0B78     		ldrb	r3, [r1]
 1260 0078 9B00     		lsls	r3, r3, #2
 1261 007a C318     		adds	r3, r0, r3
 1262 007c 1A88     		ldrh	r2, [r3]
 1263              	.LVL131:
 330:Drivers/STM32F0xx_HAL_Driver/Src/stm32f0xx_ll_usb.c ****       PCD_CLEAR_TX_DTOG(USBx, ep->num);
 1264              		.loc 1 330 7 view .LVU383
 1265 007e 5204     		lsls	r2, r2, #17
 1266 0080 06D5     		bpl	.L49
 1267              	.LVL132:
 330:Drivers/STM32F0xx_HAL_Driver/Src/stm32f0xx_ll_usb.c ****       PCD_CLEAR_TX_DTOG(USBx, ep->num);
 1268              		.loc 1 330 7 discriminator 1 view .LVU384
 1269              	.LBB40:
 330:Drivers/STM32F0xx_HAL_Driver/Src/stm32f0xx_ll_usb.c ****       PCD_CLEAR_TX_DTOG(USBx, ep->num);
 1270              		.loc 1 330 7 discriminator 1 view .LVU385
 330:Drivers/STM32F0xx_HAL_Driver/Src/stm32f0xx_ll_usb.c ****       PCD_CLEAR_TX_DTOG(USBx, ep->num);
 1271              		.loc 1 330 7 discriminator 1 view .LVU386
 1272 0082 1A88     		ldrh	r2, [r3]
 1273 0084 344C     		ldr	r4, .L53
 1274 0086 1440     		ands	r4, r2
 1275              	.LVL133:
 330:Drivers/STM32F0xx_HAL_Driver/Src/stm32f0xx_ll_usb.c ****       PCD_CLEAR_TX_DTOG(USBx, ep->num);
 1276              		.loc 1 330 7 discriminator 1 view .LVU387
 1277 0088 374A     		ldr	r2, .L53+16
 1278 008a 2243     		orrs	r2, r4
 1279 008c 92B2     		uxth	r2, r2
 1280 008e 1A80     		strh	r2, [r3]
 1281              	.LVL134:
 1282              	.L49:
 330:Drivers/STM32F0xx_HAL_Driver/Src/stm32f0xx_ll_usb.c ****       PCD_CLEAR_TX_DTOG(USBx, ep->num);
 1283              		.loc 1 330 7 is_stmt 0 discriminator 1 view .LVU388
 1284              	.LBE40:
 330:Drivers/STM32F0xx_HAL_Driver/Src/stm32f0xx_ll_usb.c ****       PCD_CLEAR_TX_DTOG(USBx, ep->num);
 1285              		.loc 1 330 7 is_stmt 1 discriminator 3 view .LVU389
 1286              	.LBE39:
 330:Drivers/STM32F0xx_HAL_Driver/Src/stm32f0xx_ll_usb.c ****       PCD_CLEAR_TX_DTOG(USBx, ep->num);
 1287              		.loc 1 330 7 discriminator 3 view .LVU390
 331:Drivers/STM32F0xx_HAL_Driver/Src/stm32f0xx_ll_usb.c **** 
 1288              		.loc 1 331 7 discriminator 3 view .LVU391
 1289              	.LBB41:
 331:Drivers/STM32F0xx_HAL_Driver/Src/stm32f0xx_ll_usb.c **** 
 1290              		.loc 1 331 7 discriminator 3 view .LVU392
ARM GAS  /tmp/ccnaAMFS.s 			page 33


 331:Drivers/STM32F0xx_HAL_Driver/Src/stm32f0xx_ll_usb.c **** 
 1291              		.loc 1 331 7 discriminator 3 view .LVU393
 1292 0090 0B78     		ldrb	r3, [r1]
 1293 0092 9B00     		lsls	r3, r3, #2
 1294 0094 C318     		adds	r3, r0, r3
 1295 0096 1A88     		ldrh	r2, [r3]
 1296              	.LVL135:
 331:Drivers/STM32F0xx_HAL_Driver/Src/stm32f0xx_ll_usb.c **** 
 1297              		.loc 1 331 7 discriminator 3 view .LVU394
 1298 0098 5206     		lsls	r2, r2, #25
 1299 009a 06D5     		bpl	.L50
 1300              	.LVL136:
 331:Drivers/STM32F0xx_HAL_Driver/Src/stm32f0xx_ll_usb.c **** 
 1301              		.loc 1 331 7 discriminator 1 view .LVU395
 1302              	.LBB42:
 331:Drivers/STM32F0xx_HAL_Driver/Src/stm32f0xx_ll_usb.c **** 
 1303              		.loc 1 331 7 discriminator 1 view .LVU396
 331:Drivers/STM32F0xx_HAL_Driver/Src/stm32f0xx_ll_usb.c **** 
 1304              		.loc 1 331 7 discriminator 1 view .LVU397
 1305 009c 1A88     		ldrh	r2, [r3]
 1306 009e 2E4C     		ldr	r4, .L53
 1307 00a0 1440     		ands	r4, r2
 1308              	.LVL137:
 331:Drivers/STM32F0xx_HAL_Driver/Src/stm32f0xx_ll_usb.c **** 
 1309              		.loc 1 331 7 discriminator 1 view .LVU398
 1310 00a2 2E4A     		ldr	r2, .L53+4
 1311 00a4 2243     		orrs	r2, r4
 1312 00a6 92B2     		uxth	r2, r2
 1313 00a8 1A80     		strh	r2, [r3]
 1314              	.LVL138:
 1315              	.L50:
 331:Drivers/STM32F0xx_HAL_Driver/Src/stm32f0xx_ll_usb.c **** 
 1316              		.loc 1 331 7 is_stmt 0 discriminator 1 view .LVU399
 1317              	.LBE42:
 331:Drivers/STM32F0xx_HAL_Driver/Src/stm32f0xx_ll_usb.c **** 
 1318              		.loc 1 331 7 is_stmt 1 discriminator 3 view .LVU400
 1319              	.LBE41:
 331:Drivers/STM32F0xx_HAL_Driver/Src/stm32f0xx_ll_usb.c **** 
 1320              		.loc 1 331 7 discriminator 3 view .LVU401
 334:Drivers/STM32F0xx_HAL_Driver/Src/stm32f0xx_ll_usb.c **** 
 1321              		.loc 1 334 7 discriminator 3 view .LVU402
 1322              	.LBB43:
 334:Drivers/STM32F0xx_HAL_Driver/Src/stm32f0xx_ll_usb.c **** 
 1323              		.loc 1 334 7 discriminator 3 view .LVU403
 334:Drivers/STM32F0xx_HAL_Driver/Src/stm32f0xx_ll_usb.c **** 
 1324              		.loc 1 334 7 discriminator 3 view .LVU404
 1325 00aa 0B78     		ldrb	r3, [r1]
 1326 00ac 9B00     		lsls	r3, r3, #2
 1327 00ae C318     		adds	r3, r0, r3
 1328 00b0 1A88     		ldrh	r2, [r3]
 1329 00b2 294C     		ldr	r4, .L53
 1330 00b4 1440     		ands	r4, r2
 1331              	.LVL139:
 334:Drivers/STM32F0xx_HAL_Driver/Src/stm32f0xx_ll_usb.c **** 
 1332              		.loc 1 334 7 discriminator 3 view .LVU405
 1333 00b6 294A     		ldr	r2, .L53+4
 1334 00b8 2243     		orrs	r2, r4
ARM GAS  /tmp/ccnaAMFS.s 			page 34


 1335 00ba 92B2     		uxth	r2, r2
 1336 00bc 1A80     		strh	r2, [r3]
 1337              	.LBE43:
 334:Drivers/STM32F0xx_HAL_Driver/Src/stm32f0xx_ll_usb.c **** 
 1338              		.loc 1 334 7 discriminator 3 view .LVU406
 336:Drivers/STM32F0xx_HAL_Driver/Src/stm32f0xx_ll_usb.c ****       PCD_SET_EP_TX_STATUS(USBx, ep->num, USB_EP_TX_DIS);
 1339              		.loc 1 336 7 discriminator 3 view .LVU407
 1340              	.LBB44:
 336:Drivers/STM32F0xx_HAL_Driver/Src/stm32f0xx_ll_usb.c ****       PCD_SET_EP_TX_STATUS(USBx, ep->num, USB_EP_TX_DIS);
 1341              		.loc 1 336 7 discriminator 3 view .LVU408
 336:Drivers/STM32F0xx_HAL_Driver/Src/stm32f0xx_ll_usb.c ****       PCD_SET_EP_TX_STATUS(USBx, ep->num, USB_EP_TX_DIS);
 1342              		.loc 1 336 7 discriminator 3 view .LVU409
 1343 00be 0C78     		ldrb	r4, [r1]
 1344              	.LVL140:
 336:Drivers/STM32F0xx_HAL_Driver/Src/stm32f0xx_ll_usb.c ****       PCD_SET_EP_TX_STATUS(USBx, ep->num, USB_EP_TX_DIS);
 1345              		.loc 1 336 7 is_stmt 0 discriminator 3 view .LVU410
 1346 00c0 A400     		lsls	r4, r4, #2
 1347 00c2 0419     		adds	r4, r0, r4
 1348 00c4 2388     		ldrh	r3, [r4]
 1349 00c6 294A     		ldr	r2, .L53+20
 1350 00c8 1340     		ands	r3, r2
 1351              	.LVL141:
 336:Drivers/STM32F0xx_HAL_Driver/Src/stm32f0xx_ll_usb.c ****       PCD_SET_EP_TX_STATUS(USBx, ep->num, USB_EP_TX_DIS);
 1352              		.loc 1 336 7 is_stmt 1 discriminator 3 view .LVU411
 336:Drivers/STM32F0xx_HAL_Driver/Src/stm32f0xx_ll_usb.c ****       PCD_SET_EP_TX_STATUS(USBx, ep->num, USB_EP_TX_DIS);
 1353              		.loc 1 336 7 discriminator 3 view .LVU412
 336:Drivers/STM32F0xx_HAL_Driver/Src/stm32f0xx_ll_usb.c ****       PCD_SET_EP_TX_STATUS(USBx, ep->num, USB_EP_TX_DIS);
 1354              		.loc 1 336 7 discriminator 3 view .LVU413
 1355 00ca 264A     		ldr	r2, .L53+12
 1356 00cc 1343     		orrs	r3, r2
 1357              	.LVL142:
 336:Drivers/STM32F0xx_HAL_Driver/Src/stm32f0xx_ll_usb.c ****       PCD_SET_EP_TX_STATUS(USBx, ep->num, USB_EP_TX_DIS);
 1358              		.loc 1 336 7 is_stmt 0 discriminator 3 view .LVU414
 1359 00ce 9BB2     		uxth	r3, r3
 1360 00d0 2380     		strh	r3, [r4]
 1361              	.LBE44:
 336:Drivers/STM32F0xx_HAL_Driver/Src/stm32f0xx_ll_usb.c ****       PCD_SET_EP_TX_STATUS(USBx, ep->num, USB_EP_TX_DIS);
 1362              		.loc 1 336 7 is_stmt 1 discriminator 3 view .LVU415
 337:Drivers/STM32F0xx_HAL_Driver/Src/stm32f0xx_ll_usb.c ****     }
 1363              		.loc 1 337 7 discriminator 3 view .LVU416
 1364              	.LBB45:
 337:Drivers/STM32F0xx_HAL_Driver/Src/stm32f0xx_ll_usb.c ****     }
 1365              		.loc 1 337 7 discriminator 3 view .LVU417
 337:Drivers/STM32F0xx_HAL_Driver/Src/stm32f0xx_ll_usb.c ****     }
 1366              		.loc 1 337 7 discriminator 3 view .LVU418
 1367 00d2 0B78     		ldrb	r3, [r1]
 1368 00d4 9B00     		lsls	r3, r3, #2
 1369 00d6 C018     		adds	r0, r0, r3
 1370              	.LVL143:
 337:Drivers/STM32F0xx_HAL_Driver/Src/stm32f0xx_ll_usb.c ****     }
 1371              		.loc 1 337 7 is_stmt 0 discriminator 3 view .LVU419
 1372 00d8 0388     		ldrh	r3, [r0]
 1373 00da 2149     		ldr	r1, .L53+8
 1374              	.LVL144:
 337:Drivers/STM32F0xx_HAL_Driver/Src/stm32f0xx_ll_usb.c ****     }
 1375              		.loc 1 337 7 discriminator 3 view .LVU420
 1376 00dc 0B40     		ands	r3, r1
ARM GAS  /tmp/ccnaAMFS.s 			page 35


 1377              	.LVL145:
 337:Drivers/STM32F0xx_HAL_Driver/Src/stm32f0xx_ll_usb.c ****     }
 1378              		.loc 1 337 7 is_stmt 1 discriminator 3 view .LVU421
 337:Drivers/STM32F0xx_HAL_Driver/Src/stm32f0xx_ll_usb.c ****     }
 1379              		.loc 1 337 7 discriminator 3 view .LVU422
 337:Drivers/STM32F0xx_HAL_Driver/Src/stm32f0xx_ll_usb.c ****     }
 1380              		.loc 1 337 7 discriminator 3 view .LVU423
 1381 00de 1A43     		orrs	r2, r3
 1382 00e0 92B2     		uxth	r2, r2
 1383 00e2 0280     		strh	r2, [r0]
 1384              	.LBE45:
 337:Drivers/STM32F0xx_HAL_Driver/Src/stm32f0xx_ll_usb.c ****     }
 1385              		.loc 1 337 7 discriminator 3 view .LVU424
 1386 00e4 AAE7     		b	.L46
 1387              	.LVL146:
 1388              	.L48:
 342:Drivers/STM32F0xx_HAL_Driver/Src/stm32f0xx_ll_usb.c ****       PCD_CLEAR_TX_DTOG(USBx, ep->num);
 1389              		.loc 1 342 7 view .LVU425
 1390              	.LBB46:
 342:Drivers/STM32F0xx_HAL_Driver/Src/stm32f0xx_ll_usb.c ****       PCD_CLEAR_TX_DTOG(USBx, ep->num);
 1391              		.loc 1 342 7 view .LVU426
 342:Drivers/STM32F0xx_HAL_Driver/Src/stm32f0xx_ll_usb.c ****       PCD_CLEAR_TX_DTOG(USBx, ep->num);
 1392              		.loc 1 342 7 view .LVU427
 1393 00e6 0B78     		ldrb	r3, [r1]
 1394 00e8 9B00     		lsls	r3, r3, #2
 1395 00ea C318     		adds	r3, r0, r3
 1396 00ec 1A88     		ldrh	r2, [r3]
 1397              	.LVL147:
 342:Drivers/STM32F0xx_HAL_Driver/Src/stm32f0xx_ll_usb.c ****       PCD_CLEAR_TX_DTOG(USBx, ep->num);
 1398              		.loc 1 342 7 view .LVU428
 1399 00ee 5204     		lsls	r2, r2, #17
 1400 00f0 06D5     		bpl	.L51
 1401              	.LVL148:
 342:Drivers/STM32F0xx_HAL_Driver/Src/stm32f0xx_ll_usb.c ****       PCD_CLEAR_TX_DTOG(USBx, ep->num);
 1402              		.loc 1 342 7 discriminator 1 view .LVU429
 1403              	.LBB47:
 342:Drivers/STM32F0xx_HAL_Driver/Src/stm32f0xx_ll_usb.c ****       PCD_CLEAR_TX_DTOG(USBx, ep->num);
 1404              		.loc 1 342 7 discriminator 1 view .LVU430
 342:Drivers/STM32F0xx_HAL_Driver/Src/stm32f0xx_ll_usb.c ****       PCD_CLEAR_TX_DTOG(USBx, ep->num);
 1405              		.loc 1 342 7 discriminator 1 view .LVU431
 1406 00f2 1A88     		ldrh	r2, [r3]
 1407 00f4 184C     		ldr	r4, .L53
 1408 00f6 1440     		ands	r4, r2
 1409              	.LVL149:
 342:Drivers/STM32F0xx_HAL_Driver/Src/stm32f0xx_ll_usb.c ****       PCD_CLEAR_TX_DTOG(USBx, ep->num);
 1410              		.loc 1 342 7 discriminator 1 view .LVU432
 1411 00f8 1B4A     		ldr	r2, .L53+16
 1412 00fa 2243     		orrs	r2, r4
 1413 00fc 92B2     		uxth	r2, r2
 1414 00fe 1A80     		strh	r2, [r3]
 1415              	.LVL150:
 1416              	.L51:
 342:Drivers/STM32F0xx_HAL_Driver/Src/stm32f0xx_ll_usb.c ****       PCD_CLEAR_TX_DTOG(USBx, ep->num);
 1417              		.loc 1 342 7 is_stmt 0 discriminator 1 view .LVU433
 1418              	.LBE47:
 342:Drivers/STM32F0xx_HAL_Driver/Src/stm32f0xx_ll_usb.c ****       PCD_CLEAR_TX_DTOG(USBx, ep->num);
 1419              		.loc 1 342 7 is_stmt 1 discriminator 3 view .LVU434
ARM GAS  /tmp/ccnaAMFS.s 			page 36


 1420              	.LBE46:
 342:Drivers/STM32F0xx_HAL_Driver/Src/stm32f0xx_ll_usb.c ****       PCD_CLEAR_TX_DTOG(USBx, ep->num);
 1421              		.loc 1 342 7 discriminator 3 view .LVU435
 343:Drivers/STM32F0xx_HAL_Driver/Src/stm32f0xx_ll_usb.c ****       PCD_RX_DTOG(USBx, ep->num);
 1422              		.loc 1 343 7 discriminator 3 view .LVU436
 1423              	.LBB48:
 343:Drivers/STM32F0xx_HAL_Driver/Src/stm32f0xx_ll_usb.c ****       PCD_RX_DTOG(USBx, ep->num);
 1424              		.loc 1 343 7 discriminator 3 view .LVU437
 343:Drivers/STM32F0xx_HAL_Driver/Src/stm32f0xx_ll_usb.c ****       PCD_RX_DTOG(USBx, ep->num);
 1425              		.loc 1 343 7 discriminator 3 view .LVU438
 1426 0100 0B78     		ldrb	r3, [r1]
 1427 0102 9B00     		lsls	r3, r3, #2
 1428 0104 C318     		adds	r3, r0, r3
 1429 0106 1A88     		ldrh	r2, [r3]
 1430              	.LVL151:
 343:Drivers/STM32F0xx_HAL_Driver/Src/stm32f0xx_ll_usb.c ****       PCD_RX_DTOG(USBx, ep->num);
 1431              		.loc 1 343 7 discriminator 3 view .LVU439
 1432 0108 5206     		lsls	r2, r2, #25
 1433 010a 06D5     		bpl	.L52
 1434              	.LVL152:
 343:Drivers/STM32F0xx_HAL_Driver/Src/stm32f0xx_ll_usb.c ****       PCD_RX_DTOG(USBx, ep->num);
 1435              		.loc 1 343 7 discriminator 1 view .LVU440
 1436              	.LBB49:
 343:Drivers/STM32F0xx_HAL_Driver/Src/stm32f0xx_ll_usb.c ****       PCD_RX_DTOG(USBx, ep->num);
 1437              		.loc 1 343 7 discriminator 1 view .LVU441
 343:Drivers/STM32F0xx_HAL_Driver/Src/stm32f0xx_ll_usb.c ****       PCD_RX_DTOG(USBx, ep->num);
 1438              		.loc 1 343 7 discriminator 1 view .LVU442
 1439 010c 1A88     		ldrh	r2, [r3]
 1440 010e 124C     		ldr	r4, .L53
 1441 0110 1440     		ands	r4, r2
 1442              	.LVL153:
 343:Drivers/STM32F0xx_HAL_Driver/Src/stm32f0xx_ll_usb.c ****       PCD_RX_DTOG(USBx, ep->num);
 1443              		.loc 1 343 7 discriminator 1 view .LVU443
 1444 0112 124A     		ldr	r2, .L53+4
 1445 0114 2243     		orrs	r2, r4
 1446 0116 92B2     		uxth	r2, r2
 1447 0118 1A80     		strh	r2, [r3]
 1448              	.LVL154:
 1449              	.L52:
 343:Drivers/STM32F0xx_HAL_Driver/Src/stm32f0xx_ll_usb.c ****       PCD_RX_DTOG(USBx, ep->num);
 1450              		.loc 1 343 7 is_stmt 0 discriminator 1 view .LVU444
 1451              	.LBE49:
 343:Drivers/STM32F0xx_HAL_Driver/Src/stm32f0xx_ll_usb.c ****       PCD_RX_DTOG(USBx, ep->num);
 1452              		.loc 1 343 7 is_stmt 1 discriminator 3 view .LVU445
 1453              	.LBE48:
 343:Drivers/STM32F0xx_HAL_Driver/Src/stm32f0xx_ll_usb.c ****       PCD_RX_DTOG(USBx, ep->num);
 1454              		.loc 1 343 7 discriminator 3 view .LVU446
 344:Drivers/STM32F0xx_HAL_Driver/Src/stm32f0xx_ll_usb.c **** 
 1455              		.loc 1 344 7 discriminator 3 view .LVU447
 1456              	.LBB50:
 344:Drivers/STM32F0xx_HAL_Driver/Src/stm32f0xx_ll_usb.c **** 
 1457              		.loc 1 344 7 discriminator 3 view .LVU448
 344:Drivers/STM32F0xx_HAL_Driver/Src/stm32f0xx_ll_usb.c **** 
 1458              		.loc 1 344 7 discriminator 3 view .LVU449
 1459 011a 0B78     		ldrb	r3, [r1]
 1460 011c 9B00     		lsls	r3, r3, #2
 1461 011e C318     		adds	r3, r0, r3
ARM GAS  /tmp/ccnaAMFS.s 			page 37


 1462 0120 1A88     		ldrh	r2, [r3]
 1463 0122 0D4C     		ldr	r4, .L53
 1464 0124 1440     		ands	r4, r2
 1465              	.LVL155:
 344:Drivers/STM32F0xx_HAL_Driver/Src/stm32f0xx_ll_usb.c **** 
 1466              		.loc 1 344 7 discriminator 3 view .LVU450
 1467 0126 104A     		ldr	r2, .L53+16
 1468 0128 2243     		orrs	r2, r4
 1469 012a 92B2     		uxth	r2, r2
 1470 012c 1A80     		strh	r2, [r3]
 1471              	.LBE50:
 344:Drivers/STM32F0xx_HAL_Driver/Src/stm32f0xx_ll_usb.c **** 
 1472              		.loc 1 344 7 discriminator 3 view .LVU451
 347:Drivers/STM32F0xx_HAL_Driver/Src/stm32f0xx_ll_usb.c ****       PCD_SET_EP_RX_STATUS(USBx, ep->num, USB_EP_RX_DIS);
 1473              		.loc 1 347 7 discriminator 3 view .LVU452
 1474              	.LBB51:
 347:Drivers/STM32F0xx_HAL_Driver/Src/stm32f0xx_ll_usb.c ****       PCD_SET_EP_RX_STATUS(USBx, ep->num, USB_EP_RX_DIS);
 1475              		.loc 1 347 7 discriminator 3 view .LVU453
 347:Drivers/STM32F0xx_HAL_Driver/Src/stm32f0xx_ll_usb.c ****       PCD_SET_EP_RX_STATUS(USBx, ep->num, USB_EP_RX_DIS);
 1476              		.loc 1 347 7 discriminator 3 view .LVU454
 1477 012e 0C78     		ldrb	r4, [r1]
 1478              	.LVL156:
 347:Drivers/STM32F0xx_HAL_Driver/Src/stm32f0xx_ll_usb.c ****       PCD_SET_EP_RX_STATUS(USBx, ep->num, USB_EP_RX_DIS);
 1479              		.loc 1 347 7 is_stmt 0 discriminator 3 view .LVU455
 1480 0130 A400     		lsls	r4, r4, #2
 1481 0132 0419     		adds	r4, r0, r4
 1482 0134 2388     		ldrh	r3, [r4]
 1483 0136 0A4A     		ldr	r2, .L53+8
 1484 0138 1340     		ands	r3, r2
 1485              	.LVL157:
 347:Drivers/STM32F0xx_HAL_Driver/Src/stm32f0xx_ll_usb.c ****       PCD_SET_EP_RX_STATUS(USBx, ep->num, USB_EP_RX_DIS);
 1486              		.loc 1 347 7 is_stmt 1 discriminator 3 view .LVU456
 347:Drivers/STM32F0xx_HAL_Driver/Src/stm32f0xx_ll_usb.c ****       PCD_SET_EP_RX_STATUS(USBx, ep->num, USB_EP_RX_DIS);
 1487              		.loc 1 347 7 discriminator 3 view .LVU457
 347:Drivers/STM32F0xx_HAL_Driver/Src/stm32f0xx_ll_usb.c ****       PCD_SET_EP_RX_STATUS(USBx, ep->num, USB_EP_RX_DIS);
 1488              		.loc 1 347 7 discriminator 3 view .LVU458
 1489 013a 0A4A     		ldr	r2, .L53+12
 1490 013c 1343     		orrs	r3, r2
 1491              	.LVL158:
 347:Drivers/STM32F0xx_HAL_Driver/Src/stm32f0xx_ll_usb.c ****       PCD_SET_EP_RX_STATUS(USBx, ep->num, USB_EP_RX_DIS);
 1492              		.loc 1 347 7 is_stmt 0 discriminator 3 view .LVU459
 1493 013e 9BB2     		uxth	r3, r3
 1494 0140 2380     		strh	r3, [r4]
 1495              	.LBE51:
 347:Drivers/STM32F0xx_HAL_Driver/Src/stm32f0xx_ll_usb.c ****       PCD_SET_EP_RX_STATUS(USBx, ep->num, USB_EP_RX_DIS);
 1496              		.loc 1 347 7 is_stmt 1 discriminator 3 view .LVU460
 348:Drivers/STM32F0xx_HAL_Driver/Src/stm32f0xx_ll_usb.c ****     }
 1497              		.loc 1 348 7 discriminator 3 view .LVU461
 1498              	.LBB52:
 348:Drivers/STM32F0xx_HAL_Driver/Src/stm32f0xx_ll_usb.c ****     }
 1499              		.loc 1 348 7 discriminator 3 view .LVU462
 348:Drivers/STM32F0xx_HAL_Driver/Src/stm32f0xx_ll_usb.c ****     }
 1500              		.loc 1 348 7 discriminator 3 view .LVU463
 1501 0142 0B78     		ldrb	r3, [r1]
 1502 0144 9B00     		lsls	r3, r3, #2
 1503 0146 C018     		adds	r0, r0, r3
 1504              	.LVL159:
ARM GAS  /tmp/ccnaAMFS.s 			page 38


 348:Drivers/STM32F0xx_HAL_Driver/Src/stm32f0xx_ll_usb.c ****     }
 1505              		.loc 1 348 7 is_stmt 0 discriminator 3 view .LVU464
 1506 0148 0388     		ldrh	r3, [r0]
 1507 014a 0849     		ldr	r1, .L53+20
 1508              	.LVL160:
 348:Drivers/STM32F0xx_HAL_Driver/Src/stm32f0xx_ll_usb.c ****     }
 1509              		.loc 1 348 7 discriminator 3 view .LVU465
 1510 014c 0B40     		ands	r3, r1
 1511              	.LVL161:
 348:Drivers/STM32F0xx_HAL_Driver/Src/stm32f0xx_ll_usb.c ****     }
 1512              		.loc 1 348 7 is_stmt 1 discriminator 3 view .LVU466
 348:Drivers/STM32F0xx_HAL_Driver/Src/stm32f0xx_ll_usb.c ****     }
 1513              		.loc 1 348 7 discriminator 3 view .LVU467
 348:Drivers/STM32F0xx_HAL_Driver/Src/stm32f0xx_ll_usb.c ****     }
 1514              		.loc 1 348 7 discriminator 3 view .LVU468
 1515 014e 1A43     		orrs	r2, r3
 1516 0150 92B2     		uxth	r2, r2
 1517 0152 0280     		strh	r2, [r0]
 1518 0154 72E7     		b	.L46
 1519              	.L54:
 1520 0156 C046     		.align	2
 1521              	.L53:
 1522 0158 8F8FFFFF 		.word	-28785
 1523 015c C080FFFF 		.word	-32576
 1524 0160 BF8FFFFF 		.word	-28737
 1525 0164 8080FFFF 		.word	-32640
 1526 0168 80C0FFFF 		.word	-16256
 1527 016c 8FBFFFFF 		.word	-16497
 1528              	.LBE52:
 1529              		.cfi_endproc
 1530              	.LFE46:
 1532              		.section	.text.USB_EPSetStall,"ax",%progbits
 1533              		.align	1
 1534              		.global	USB_EPSetStall
 1535              		.syntax unified
 1536              		.code	16
 1537              		.thumb_func
 1538              		.fpu softvfp
 1540              	USB_EPSetStall:
 1541              	.LVL162:
 1542              	.LFB48:
 354:Drivers/STM32F0xx_HAL_Driver/Src/stm32f0xx_ll_usb.c **** 
 355:Drivers/STM32F0xx_HAL_Driver/Src/stm32f0xx_ll_usb.c **** /**
 356:Drivers/STM32F0xx_HAL_Driver/Src/stm32f0xx_ll_usb.c ****   * @brief  USB_EPStartXfer setup and starts a transfer over an EP
 357:Drivers/STM32F0xx_HAL_Driver/Src/stm32f0xx_ll_usb.c ****   * @param  USBx Selected device
 358:Drivers/STM32F0xx_HAL_Driver/Src/stm32f0xx_ll_usb.c ****   * @param  ep pointer to endpoint structure
 359:Drivers/STM32F0xx_HAL_Driver/Src/stm32f0xx_ll_usb.c ****   * @retval HAL status
 360:Drivers/STM32F0xx_HAL_Driver/Src/stm32f0xx_ll_usb.c ****   */
 361:Drivers/STM32F0xx_HAL_Driver/Src/stm32f0xx_ll_usb.c **** HAL_StatusTypeDef USB_EPStartXfer(USB_TypeDef *USBx, USB_EPTypeDef *ep)
 362:Drivers/STM32F0xx_HAL_Driver/Src/stm32f0xx_ll_usb.c **** {
 363:Drivers/STM32F0xx_HAL_Driver/Src/stm32f0xx_ll_usb.c ****   uint32_t len;
 364:Drivers/STM32F0xx_HAL_Driver/Src/stm32f0xx_ll_usb.c ****   uint16_t pmabuffer;
 365:Drivers/STM32F0xx_HAL_Driver/Src/stm32f0xx_ll_usb.c ****   uint16_t wEPVal;
 366:Drivers/STM32F0xx_HAL_Driver/Src/stm32f0xx_ll_usb.c **** 
 367:Drivers/STM32F0xx_HAL_Driver/Src/stm32f0xx_ll_usb.c ****   /* IN endpoint */
 368:Drivers/STM32F0xx_HAL_Driver/Src/stm32f0xx_ll_usb.c ****   if (ep->is_in == 1U)
 369:Drivers/STM32F0xx_HAL_Driver/Src/stm32f0xx_ll_usb.c ****   {
ARM GAS  /tmp/ccnaAMFS.s 			page 39


 370:Drivers/STM32F0xx_HAL_Driver/Src/stm32f0xx_ll_usb.c ****     /*Multi packet transfer*/
 371:Drivers/STM32F0xx_HAL_Driver/Src/stm32f0xx_ll_usb.c ****     if (ep->xfer_len > ep->maxpacket)
 372:Drivers/STM32F0xx_HAL_Driver/Src/stm32f0xx_ll_usb.c ****     {
 373:Drivers/STM32F0xx_HAL_Driver/Src/stm32f0xx_ll_usb.c ****       len = ep->maxpacket;
 374:Drivers/STM32F0xx_HAL_Driver/Src/stm32f0xx_ll_usb.c ****     }
 375:Drivers/STM32F0xx_HAL_Driver/Src/stm32f0xx_ll_usb.c ****     else
 376:Drivers/STM32F0xx_HAL_Driver/Src/stm32f0xx_ll_usb.c ****     {
 377:Drivers/STM32F0xx_HAL_Driver/Src/stm32f0xx_ll_usb.c ****       len = ep->xfer_len;
 378:Drivers/STM32F0xx_HAL_Driver/Src/stm32f0xx_ll_usb.c ****     }
 379:Drivers/STM32F0xx_HAL_Driver/Src/stm32f0xx_ll_usb.c **** 
 380:Drivers/STM32F0xx_HAL_Driver/Src/stm32f0xx_ll_usb.c ****     /* configure and validate Tx endpoint */
 381:Drivers/STM32F0xx_HAL_Driver/Src/stm32f0xx_ll_usb.c ****     if (ep->doublebuffer == 0U)
 382:Drivers/STM32F0xx_HAL_Driver/Src/stm32f0xx_ll_usb.c ****     {
 383:Drivers/STM32F0xx_HAL_Driver/Src/stm32f0xx_ll_usb.c ****       USB_WritePMA(USBx, ep->xfer_buff, ep->pmaadress, (uint16_t)len);
 384:Drivers/STM32F0xx_HAL_Driver/Src/stm32f0xx_ll_usb.c ****       PCD_SET_EP_TX_CNT(USBx, ep->num, len);
 385:Drivers/STM32F0xx_HAL_Driver/Src/stm32f0xx_ll_usb.c ****     }
 386:Drivers/STM32F0xx_HAL_Driver/Src/stm32f0xx_ll_usb.c ****     else
 387:Drivers/STM32F0xx_HAL_Driver/Src/stm32f0xx_ll_usb.c ****     {
 388:Drivers/STM32F0xx_HAL_Driver/Src/stm32f0xx_ll_usb.c ****       /* double buffer bulk management */
 389:Drivers/STM32F0xx_HAL_Driver/Src/stm32f0xx_ll_usb.c ****       if (ep->type == EP_TYPE_BULK)
 390:Drivers/STM32F0xx_HAL_Driver/Src/stm32f0xx_ll_usb.c ****       {
 391:Drivers/STM32F0xx_HAL_Driver/Src/stm32f0xx_ll_usb.c ****         if (ep->xfer_len_db > ep->maxpacket)
 392:Drivers/STM32F0xx_HAL_Driver/Src/stm32f0xx_ll_usb.c ****         {
 393:Drivers/STM32F0xx_HAL_Driver/Src/stm32f0xx_ll_usb.c ****           /* enable double buffer */
 394:Drivers/STM32F0xx_HAL_Driver/Src/stm32f0xx_ll_usb.c ****           PCD_SET_BULK_EP_DBUF(USBx, ep->num);
 395:Drivers/STM32F0xx_HAL_Driver/Src/stm32f0xx_ll_usb.c **** 
 396:Drivers/STM32F0xx_HAL_Driver/Src/stm32f0xx_ll_usb.c ****           /* each Time to write in PMA xfer_len_db will */
 397:Drivers/STM32F0xx_HAL_Driver/Src/stm32f0xx_ll_usb.c ****           ep->xfer_len_db -= len;
 398:Drivers/STM32F0xx_HAL_Driver/Src/stm32f0xx_ll_usb.c **** 
 399:Drivers/STM32F0xx_HAL_Driver/Src/stm32f0xx_ll_usb.c ****           /* Fill the two first buffer in the Buffer0 & Buffer1 */
 400:Drivers/STM32F0xx_HAL_Driver/Src/stm32f0xx_ll_usb.c ****           if ((PCD_GET_ENDPOINT(USBx, ep->num) & USB_EP_DTOG_TX) != 0U)
 401:Drivers/STM32F0xx_HAL_Driver/Src/stm32f0xx_ll_usb.c ****           {
 402:Drivers/STM32F0xx_HAL_Driver/Src/stm32f0xx_ll_usb.c ****             /* Set the Double buffer counter for pmabuffer1 */
 403:Drivers/STM32F0xx_HAL_Driver/Src/stm32f0xx_ll_usb.c ****             PCD_SET_EP_DBUF1_CNT(USBx, ep->num, ep->is_in, len);
 404:Drivers/STM32F0xx_HAL_Driver/Src/stm32f0xx_ll_usb.c ****             pmabuffer = ep->pmaaddr1;
 405:Drivers/STM32F0xx_HAL_Driver/Src/stm32f0xx_ll_usb.c **** 
 406:Drivers/STM32F0xx_HAL_Driver/Src/stm32f0xx_ll_usb.c ****             /* Write the user buffer to USB PMA */
 407:Drivers/STM32F0xx_HAL_Driver/Src/stm32f0xx_ll_usb.c ****             USB_WritePMA(USBx, ep->xfer_buff, pmabuffer, (uint16_t)len);
 408:Drivers/STM32F0xx_HAL_Driver/Src/stm32f0xx_ll_usb.c ****             ep->xfer_buff += len;
 409:Drivers/STM32F0xx_HAL_Driver/Src/stm32f0xx_ll_usb.c **** 
 410:Drivers/STM32F0xx_HAL_Driver/Src/stm32f0xx_ll_usb.c ****             if (ep->xfer_len_db > ep->maxpacket)
 411:Drivers/STM32F0xx_HAL_Driver/Src/stm32f0xx_ll_usb.c ****             {
 412:Drivers/STM32F0xx_HAL_Driver/Src/stm32f0xx_ll_usb.c ****               ep->xfer_len_db -= len;
 413:Drivers/STM32F0xx_HAL_Driver/Src/stm32f0xx_ll_usb.c ****             }
 414:Drivers/STM32F0xx_HAL_Driver/Src/stm32f0xx_ll_usb.c ****             else
 415:Drivers/STM32F0xx_HAL_Driver/Src/stm32f0xx_ll_usb.c ****             {
 416:Drivers/STM32F0xx_HAL_Driver/Src/stm32f0xx_ll_usb.c ****               len = ep->xfer_len_db;
 417:Drivers/STM32F0xx_HAL_Driver/Src/stm32f0xx_ll_usb.c ****               ep->xfer_len_db = 0U;
 418:Drivers/STM32F0xx_HAL_Driver/Src/stm32f0xx_ll_usb.c ****             }
 419:Drivers/STM32F0xx_HAL_Driver/Src/stm32f0xx_ll_usb.c **** 
 420:Drivers/STM32F0xx_HAL_Driver/Src/stm32f0xx_ll_usb.c ****             /* Set the Double buffer counter for pmabuffer0 */
 421:Drivers/STM32F0xx_HAL_Driver/Src/stm32f0xx_ll_usb.c ****             PCD_SET_EP_DBUF0_CNT(USBx, ep->num, ep->is_in, len);
 422:Drivers/STM32F0xx_HAL_Driver/Src/stm32f0xx_ll_usb.c ****             pmabuffer = ep->pmaaddr0;
 423:Drivers/STM32F0xx_HAL_Driver/Src/stm32f0xx_ll_usb.c **** 
 424:Drivers/STM32F0xx_HAL_Driver/Src/stm32f0xx_ll_usb.c ****             /* Write the user buffer to USB PMA */
 425:Drivers/STM32F0xx_HAL_Driver/Src/stm32f0xx_ll_usb.c ****             USB_WritePMA(USBx, ep->xfer_buff, pmabuffer, (uint16_t)len);
 426:Drivers/STM32F0xx_HAL_Driver/Src/stm32f0xx_ll_usb.c ****           }
ARM GAS  /tmp/ccnaAMFS.s 			page 40


 427:Drivers/STM32F0xx_HAL_Driver/Src/stm32f0xx_ll_usb.c ****           else
 428:Drivers/STM32F0xx_HAL_Driver/Src/stm32f0xx_ll_usb.c ****           {
 429:Drivers/STM32F0xx_HAL_Driver/Src/stm32f0xx_ll_usb.c ****             /* Set the Double buffer counter for pmabuffer0 */
 430:Drivers/STM32F0xx_HAL_Driver/Src/stm32f0xx_ll_usb.c ****             PCD_SET_EP_DBUF0_CNT(USBx, ep->num, ep->is_in, len);
 431:Drivers/STM32F0xx_HAL_Driver/Src/stm32f0xx_ll_usb.c ****             pmabuffer = ep->pmaaddr0;
 432:Drivers/STM32F0xx_HAL_Driver/Src/stm32f0xx_ll_usb.c **** 
 433:Drivers/STM32F0xx_HAL_Driver/Src/stm32f0xx_ll_usb.c ****             /* Write the user buffer to USB PMA */
 434:Drivers/STM32F0xx_HAL_Driver/Src/stm32f0xx_ll_usb.c ****             USB_WritePMA(USBx, ep->xfer_buff, pmabuffer, (uint16_t)len);
 435:Drivers/STM32F0xx_HAL_Driver/Src/stm32f0xx_ll_usb.c ****             ep->xfer_buff += len;
 436:Drivers/STM32F0xx_HAL_Driver/Src/stm32f0xx_ll_usb.c **** 
 437:Drivers/STM32F0xx_HAL_Driver/Src/stm32f0xx_ll_usb.c ****             if (ep->xfer_len_db > ep->maxpacket)
 438:Drivers/STM32F0xx_HAL_Driver/Src/stm32f0xx_ll_usb.c ****             {
 439:Drivers/STM32F0xx_HAL_Driver/Src/stm32f0xx_ll_usb.c ****               ep->xfer_len_db -= len;
 440:Drivers/STM32F0xx_HAL_Driver/Src/stm32f0xx_ll_usb.c ****             }
 441:Drivers/STM32F0xx_HAL_Driver/Src/stm32f0xx_ll_usb.c ****             else
 442:Drivers/STM32F0xx_HAL_Driver/Src/stm32f0xx_ll_usb.c ****             {
 443:Drivers/STM32F0xx_HAL_Driver/Src/stm32f0xx_ll_usb.c ****               len = ep->xfer_len_db;
 444:Drivers/STM32F0xx_HAL_Driver/Src/stm32f0xx_ll_usb.c ****               ep->xfer_len_db = 0U;
 445:Drivers/STM32F0xx_HAL_Driver/Src/stm32f0xx_ll_usb.c ****             }
 446:Drivers/STM32F0xx_HAL_Driver/Src/stm32f0xx_ll_usb.c **** 
 447:Drivers/STM32F0xx_HAL_Driver/Src/stm32f0xx_ll_usb.c ****             /* Set the Double buffer counter for pmabuffer1 */
 448:Drivers/STM32F0xx_HAL_Driver/Src/stm32f0xx_ll_usb.c ****             PCD_SET_EP_DBUF1_CNT(USBx, ep->num, ep->is_in, len);
 449:Drivers/STM32F0xx_HAL_Driver/Src/stm32f0xx_ll_usb.c ****             pmabuffer = ep->pmaaddr1;
 450:Drivers/STM32F0xx_HAL_Driver/Src/stm32f0xx_ll_usb.c **** 
 451:Drivers/STM32F0xx_HAL_Driver/Src/stm32f0xx_ll_usb.c ****             /* Write the user buffer to USB PMA */
 452:Drivers/STM32F0xx_HAL_Driver/Src/stm32f0xx_ll_usb.c ****             USB_WritePMA(USBx, ep->xfer_buff, pmabuffer, (uint16_t)len);
 453:Drivers/STM32F0xx_HAL_Driver/Src/stm32f0xx_ll_usb.c ****           }
 454:Drivers/STM32F0xx_HAL_Driver/Src/stm32f0xx_ll_usb.c ****         }
 455:Drivers/STM32F0xx_HAL_Driver/Src/stm32f0xx_ll_usb.c ****         /* auto Switch to single buffer mode when transfer <Mps no need to manage in double buffer 
 456:Drivers/STM32F0xx_HAL_Driver/Src/stm32f0xx_ll_usb.c ****         else
 457:Drivers/STM32F0xx_HAL_Driver/Src/stm32f0xx_ll_usb.c ****         {
 458:Drivers/STM32F0xx_HAL_Driver/Src/stm32f0xx_ll_usb.c ****           len = ep->xfer_len_db;
 459:Drivers/STM32F0xx_HAL_Driver/Src/stm32f0xx_ll_usb.c **** 
 460:Drivers/STM32F0xx_HAL_Driver/Src/stm32f0xx_ll_usb.c ****           /* disable double buffer mode for Bulk endpoint */
 461:Drivers/STM32F0xx_HAL_Driver/Src/stm32f0xx_ll_usb.c ****           PCD_CLEAR_BULK_EP_DBUF(USBx, ep->num);
 462:Drivers/STM32F0xx_HAL_Driver/Src/stm32f0xx_ll_usb.c **** 
 463:Drivers/STM32F0xx_HAL_Driver/Src/stm32f0xx_ll_usb.c ****           /* Set Tx count with nbre of byte to be transmitted */
 464:Drivers/STM32F0xx_HAL_Driver/Src/stm32f0xx_ll_usb.c ****           PCD_SET_EP_TX_CNT(USBx, ep->num, len);
 465:Drivers/STM32F0xx_HAL_Driver/Src/stm32f0xx_ll_usb.c ****           pmabuffer = ep->pmaaddr0;
 466:Drivers/STM32F0xx_HAL_Driver/Src/stm32f0xx_ll_usb.c **** 
 467:Drivers/STM32F0xx_HAL_Driver/Src/stm32f0xx_ll_usb.c ****           /* Write the user buffer to USB PMA */
 468:Drivers/STM32F0xx_HAL_Driver/Src/stm32f0xx_ll_usb.c ****           USB_WritePMA(USBx, ep->xfer_buff, pmabuffer, (uint16_t)len);
 469:Drivers/STM32F0xx_HAL_Driver/Src/stm32f0xx_ll_usb.c ****         }
 470:Drivers/STM32F0xx_HAL_Driver/Src/stm32f0xx_ll_usb.c ****       }
 471:Drivers/STM32F0xx_HAL_Driver/Src/stm32f0xx_ll_usb.c ****       else /* manage isochronous double buffer IN mode */
 472:Drivers/STM32F0xx_HAL_Driver/Src/stm32f0xx_ll_usb.c ****       {
 473:Drivers/STM32F0xx_HAL_Driver/Src/stm32f0xx_ll_usb.c ****         /* each Time to write in PMA xfer_len_db will */
 474:Drivers/STM32F0xx_HAL_Driver/Src/stm32f0xx_ll_usb.c ****         ep->xfer_len_db -= len;
 475:Drivers/STM32F0xx_HAL_Driver/Src/stm32f0xx_ll_usb.c **** 
 476:Drivers/STM32F0xx_HAL_Driver/Src/stm32f0xx_ll_usb.c ****         /* Fill the data buffer */
 477:Drivers/STM32F0xx_HAL_Driver/Src/stm32f0xx_ll_usb.c ****         if ((PCD_GET_ENDPOINT(USBx, ep->num) & USB_EP_DTOG_TX) != 0U)
 478:Drivers/STM32F0xx_HAL_Driver/Src/stm32f0xx_ll_usb.c ****         {
 479:Drivers/STM32F0xx_HAL_Driver/Src/stm32f0xx_ll_usb.c ****           /* Set the Double buffer counter for pmabuffer1 */
 480:Drivers/STM32F0xx_HAL_Driver/Src/stm32f0xx_ll_usb.c ****           PCD_SET_EP_DBUF1_CNT(USBx, ep->num, ep->is_in, len);
 481:Drivers/STM32F0xx_HAL_Driver/Src/stm32f0xx_ll_usb.c ****           pmabuffer = ep->pmaaddr1;
 482:Drivers/STM32F0xx_HAL_Driver/Src/stm32f0xx_ll_usb.c **** 
 483:Drivers/STM32F0xx_HAL_Driver/Src/stm32f0xx_ll_usb.c ****           /* Write the user buffer to USB PMA */
ARM GAS  /tmp/ccnaAMFS.s 			page 41


 484:Drivers/STM32F0xx_HAL_Driver/Src/stm32f0xx_ll_usb.c ****           USB_WritePMA(USBx, ep->xfer_buff, pmabuffer, (uint16_t)len);
 485:Drivers/STM32F0xx_HAL_Driver/Src/stm32f0xx_ll_usb.c ****         }
 486:Drivers/STM32F0xx_HAL_Driver/Src/stm32f0xx_ll_usb.c ****         else
 487:Drivers/STM32F0xx_HAL_Driver/Src/stm32f0xx_ll_usb.c ****         {
 488:Drivers/STM32F0xx_HAL_Driver/Src/stm32f0xx_ll_usb.c ****           /* Set the Double buffer counter for pmabuffer0 */
 489:Drivers/STM32F0xx_HAL_Driver/Src/stm32f0xx_ll_usb.c ****           PCD_SET_EP_DBUF0_CNT(USBx, ep->num, ep->is_in, len);
 490:Drivers/STM32F0xx_HAL_Driver/Src/stm32f0xx_ll_usb.c ****           pmabuffer = ep->pmaaddr0;
 491:Drivers/STM32F0xx_HAL_Driver/Src/stm32f0xx_ll_usb.c **** 
 492:Drivers/STM32F0xx_HAL_Driver/Src/stm32f0xx_ll_usb.c ****           /* Write the user buffer to USB PMA */
 493:Drivers/STM32F0xx_HAL_Driver/Src/stm32f0xx_ll_usb.c ****           USB_WritePMA(USBx, ep->xfer_buff, pmabuffer, (uint16_t)len);
 494:Drivers/STM32F0xx_HAL_Driver/Src/stm32f0xx_ll_usb.c ****         }
 495:Drivers/STM32F0xx_HAL_Driver/Src/stm32f0xx_ll_usb.c ****       }
 496:Drivers/STM32F0xx_HAL_Driver/Src/stm32f0xx_ll_usb.c ****     }
 497:Drivers/STM32F0xx_HAL_Driver/Src/stm32f0xx_ll_usb.c **** 
 498:Drivers/STM32F0xx_HAL_Driver/Src/stm32f0xx_ll_usb.c ****     PCD_SET_EP_TX_STATUS(USBx, ep->num, USB_EP_TX_VALID);
 499:Drivers/STM32F0xx_HAL_Driver/Src/stm32f0xx_ll_usb.c ****   }
 500:Drivers/STM32F0xx_HAL_Driver/Src/stm32f0xx_ll_usb.c ****   else /* OUT endpoint */
 501:Drivers/STM32F0xx_HAL_Driver/Src/stm32f0xx_ll_usb.c ****   {
 502:Drivers/STM32F0xx_HAL_Driver/Src/stm32f0xx_ll_usb.c ****     if (ep->doublebuffer == 0U)
 503:Drivers/STM32F0xx_HAL_Driver/Src/stm32f0xx_ll_usb.c ****     {
 504:Drivers/STM32F0xx_HAL_Driver/Src/stm32f0xx_ll_usb.c ****       /* Multi packet transfer */
 505:Drivers/STM32F0xx_HAL_Driver/Src/stm32f0xx_ll_usb.c ****       if (ep->xfer_len > ep->maxpacket)
 506:Drivers/STM32F0xx_HAL_Driver/Src/stm32f0xx_ll_usb.c ****       {
 507:Drivers/STM32F0xx_HAL_Driver/Src/stm32f0xx_ll_usb.c ****         len = ep->maxpacket;
 508:Drivers/STM32F0xx_HAL_Driver/Src/stm32f0xx_ll_usb.c ****         ep->xfer_len -= len;
 509:Drivers/STM32F0xx_HAL_Driver/Src/stm32f0xx_ll_usb.c ****       }
 510:Drivers/STM32F0xx_HAL_Driver/Src/stm32f0xx_ll_usb.c ****       else
 511:Drivers/STM32F0xx_HAL_Driver/Src/stm32f0xx_ll_usb.c ****       {
 512:Drivers/STM32F0xx_HAL_Driver/Src/stm32f0xx_ll_usb.c ****         len = ep->xfer_len;
 513:Drivers/STM32F0xx_HAL_Driver/Src/stm32f0xx_ll_usb.c ****         ep->xfer_len = 0U;
 514:Drivers/STM32F0xx_HAL_Driver/Src/stm32f0xx_ll_usb.c ****       }
 515:Drivers/STM32F0xx_HAL_Driver/Src/stm32f0xx_ll_usb.c ****       /* configure and validate Rx endpoint */
 516:Drivers/STM32F0xx_HAL_Driver/Src/stm32f0xx_ll_usb.c ****       PCD_SET_EP_RX_CNT(USBx, ep->num, len);
 517:Drivers/STM32F0xx_HAL_Driver/Src/stm32f0xx_ll_usb.c ****     }
 518:Drivers/STM32F0xx_HAL_Driver/Src/stm32f0xx_ll_usb.c ****     else
 519:Drivers/STM32F0xx_HAL_Driver/Src/stm32f0xx_ll_usb.c ****     {
 520:Drivers/STM32F0xx_HAL_Driver/Src/stm32f0xx_ll_usb.c ****       /* First Transfer Coming From HAL_PCD_EP_Receive & From ISR */
 521:Drivers/STM32F0xx_HAL_Driver/Src/stm32f0xx_ll_usb.c ****       /* Set the Double buffer counter */
 522:Drivers/STM32F0xx_HAL_Driver/Src/stm32f0xx_ll_usb.c ****       if (ep->type == EP_TYPE_BULK)
 523:Drivers/STM32F0xx_HAL_Driver/Src/stm32f0xx_ll_usb.c ****       {
 524:Drivers/STM32F0xx_HAL_Driver/Src/stm32f0xx_ll_usb.c ****         PCD_SET_EP_DBUF_CNT(USBx, ep->num, ep->is_in, ep->maxpacket);
 525:Drivers/STM32F0xx_HAL_Driver/Src/stm32f0xx_ll_usb.c **** 
 526:Drivers/STM32F0xx_HAL_Driver/Src/stm32f0xx_ll_usb.c ****         /* Coming from ISR */
 527:Drivers/STM32F0xx_HAL_Driver/Src/stm32f0xx_ll_usb.c ****         if (ep->xfer_count != 0U)
 528:Drivers/STM32F0xx_HAL_Driver/Src/stm32f0xx_ll_usb.c ****         {
 529:Drivers/STM32F0xx_HAL_Driver/Src/stm32f0xx_ll_usb.c ****           /* update last value to check if there is blocking state */
 530:Drivers/STM32F0xx_HAL_Driver/Src/stm32f0xx_ll_usb.c ****           wEPVal = PCD_GET_ENDPOINT(USBx, ep->num);
 531:Drivers/STM32F0xx_HAL_Driver/Src/stm32f0xx_ll_usb.c **** 
 532:Drivers/STM32F0xx_HAL_Driver/Src/stm32f0xx_ll_usb.c ****           /*Blocking State */
 533:Drivers/STM32F0xx_HAL_Driver/Src/stm32f0xx_ll_usb.c ****           if ((((wEPVal & USB_EP_DTOG_RX) != 0U) && ((wEPVal & USB_EP_DTOG_TX) != 0U)) ||
 534:Drivers/STM32F0xx_HAL_Driver/Src/stm32f0xx_ll_usb.c ****               (((wEPVal & USB_EP_DTOG_RX) == 0U) && ((wEPVal & USB_EP_DTOG_TX) == 0U)))
 535:Drivers/STM32F0xx_HAL_Driver/Src/stm32f0xx_ll_usb.c ****           {
 536:Drivers/STM32F0xx_HAL_Driver/Src/stm32f0xx_ll_usb.c ****             PCD_FreeUserBuffer(USBx, ep->num, 0U);
 537:Drivers/STM32F0xx_HAL_Driver/Src/stm32f0xx_ll_usb.c ****           }
 538:Drivers/STM32F0xx_HAL_Driver/Src/stm32f0xx_ll_usb.c ****         }
 539:Drivers/STM32F0xx_HAL_Driver/Src/stm32f0xx_ll_usb.c ****       }
 540:Drivers/STM32F0xx_HAL_Driver/Src/stm32f0xx_ll_usb.c ****       /* iso out double */
ARM GAS  /tmp/ccnaAMFS.s 			page 42


 541:Drivers/STM32F0xx_HAL_Driver/Src/stm32f0xx_ll_usb.c ****       else if (ep->type == EP_TYPE_ISOC)
 542:Drivers/STM32F0xx_HAL_Driver/Src/stm32f0xx_ll_usb.c ****       {
 543:Drivers/STM32F0xx_HAL_Driver/Src/stm32f0xx_ll_usb.c ****         /* Multi packet transfer */
 544:Drivers/STM32F0xx_HAL_Driver/Src/stm32f0xx_ll_usb.c ****         if (ep->xfer_len > ep->maxpacket)
 545:Drivers/STM32F0xx_HAL_Driver/Src/stm32f0xx_ll_usb.c ****         {
 546:Drivers/STM32F0xx_HAL_Driver/Src/stm32f0xx_ll_usb.c ****           len = ep->maxpacket;
 547:Drivers/STM32F0xx_HAL_Driver/Src/stm32f0xx_ll_usb.c ****           ep->xfer_len -= len;
 548:Drivers/STM32F0xx_HAL_Driver/Src/stm32f0xx_ll_usb.c ****         }
 549:Drivers/STM32F0xx_HAL_Driver/Src/stm32f0xx_ll_usb.c ****         else
 550:Drivers/STM32F0xx_HAL_Driver/Src/stm32f0xx_ll_usb.c ****         {
 551:Drivers/STM32F0xx_HAL_Driver/Src/stm32f0xx_ll_usb.c ****           len = ep->xfer_len;
 552:Drivers/STM32F0xx_HAL_Driver/Src/stm32f0xx_ll_usb.c ****           ep->xfer_len = 0U;
 553:Drivers/STM32F0xx_HAL_Driver/Src/stm32f0xx_ll_usb.c ****         }
 554:Drivers/STM32F0xx_HAL_Driver/Src/stm32f0xx_ll_usb.c ****         PCD_SET_EP_DBUF_CNT(USBx, ep->num, ep->is_in, len);
 555:Drivers/STM32F0xx_HAL_Driver/Src/stm32f0xx_ll_usb.c ****       }
 556:Drivers/STM32F0xx_HAL_Driver/Src/stm32f0xx_ll_usb.c ****       else
 557:Drivers/STM32F0xx_HAL_Driver/Src/stm32f0xx_ll_usb.c ****       {
 558:Drivers/STM32F0xx_HAL_Driver/Src/stm32f0xx_ll_usb.c ****         return HAL_ERROR;
 559:Drivers/STM32F0xx_HAL_Driver/Src/stm32f0xx_ll_usb.c ****       }
 560:Drivers/STM32F0xx_HAL_Driver/Src/stm32f0xx_ll_usb.c ****     }
 561:Drivers/STM32F0xx_HAL_Driver/Src/stm32f0xx_ll_usb.c **** 
 562:Drivers/STM32F0xx_HAL_Driver/Src/stm32f0xx_ll_usb.c ****     PCD_SET_EP_RX_STATUS(USBx, ep->num, USB_EP_RX_VALID);
 563:Drivers/STM32F0xx_HAL_Driver/Src/stm32f0xx_ll_usb.c ****   }
 564:Drivers/STM32F0xx_HAL_Driver/Src/stm32f0xx_ll_usb.c **** 
 565:Drivers/STM32F0xx_HAL_Driver/Src/stm32f0xx_ll_usb.c ****   return HAL_OK;
 566:Drivers/STM32F0xx_HAL_Driver/Src/stm32f0xx_ll_usb.c **** }
 567:Drivers/STM32F0xx_HAL_Driver/Src/stm32f0xx_ll_usb.c **** 
 568:Drivers/STM32F0xx_HAL_Driver/Src/stm32f0xx_ll_usb.c **** 
 569:Drivers/STM32F0xx_HAL_Driver/Src/stm32f0xx_ll_usb.c **** /**
 570:Drivers/STM32F0xx_HAL_Driver/Src/stm32f0xx_ll_usb.c ****   * @brief  USB_EPSetStall set a stall condition over an EP
 571:Drivers/STM32F0xx_HAL_Driver/Src/stm32f0xx_ll_usb.c ****   * @param  USBx Selected device
 572:Drivers/STM32F0xx_HAL_Driver/Src/stm32f0xx_ll_usb.c ****   * @param  ep pointer to endpoint structure
 573:Drivers/STM32F0xx_HAL_Driver/Src/stm32f0xx_ll_usb.c ****   * @retval HAL status
 574:Drivers/STM32F0xx_HAL_Driver/Src/stm32f0xx_ll_usb.c ****   */
 575:Drivers/STM32F0xx_HAL_Driver/Src/stm32f0xx_ll_usb.c **** HAL_StatusTypeDef USB_EPSetStall(USB_TypeDef *USBx, USB_EPTypeDef *ep)
 576:Drivers/STM32F0xx_HAL_Driver/Src/stm32f0xx_ll_usb.c **** {
 1543              		.loc 1 576 1 view -0
 1544              		.cfi_startproc
 1545              		@ args = 0, pretend = 0, frame = 0
 1546              		@ frame_needed = 0, uses_anonymous_args = 0
 1547              		@ link register save eliminated.
 577:Drivers/STM32F0xx_HAL_Driver/Src/stm32f0xx_ll_usb.c ****   if (ep->is_in != 0U)
 1548              		.loc 1 577 3 view .LVU470
 1549              		.loc 1 577 9 is_stmt 0 view .LVU471
 1550 0000 4B78     		ldrb	r3, [r1, #1]
 1551              		.loc 1 577 6 view .LVU472
 1552 0002 002B     		cmp	r3, #0
 1553 0004 0ED0     		beq	.L56
 578:Drivers/STM32F0xx_HAL_Driver/Src/stm32f0xx_ll_usb.c ****   {
 579:Drivers/STM32F0xx_HAL_Driver/Src/stm32f0xx_ll_usb.c ****     PCD_SET_EP_TX_STATUS(USBx, ep->num, USB_EP_TX_STALL);
 1554              		.loc 1 579 5 is_stmt 1 view .LVU473
 1555              	.LBB53:
 1556              		.loc 1 579 5 view .LVU474
 1557              		.loc 1 579 5 view .LVU475
 1558 0006 0B78     		ldrb	r3, [r1]
 1559 0008 9B00     		lsls	r3, r3, #2
 1560 000a C018     		adds	r0, r0, r3
ARM GAS  /tmp/ccnaAMFS.s 			page 43


 1561              	.LVL163:
 1562              		.loc 1 579 5 is_stmt 0 view .LVU476
 1563 000c 0388     		ldrh	r3, [r0]
 1564 000e 0C4A     		ldr	r2, .L58
 1565 0010 1340     		ands	r3, r2
 1566              	.LVL164:
 1567              		.loc 1 579 5 is_stmt 1 view .LVU477
 1568              		.loc 1 579 5 view .LVU478
 1569 0012 1022     		movs	r2, #16
 1570 0014 5340     		eors	r3, r2
 1571              	.LVL165:
 1572              		.loc 1 579 5 is_stmt 0 view .LVU479
 1573 0016 9BB2     		uxth	r3, r3
 1574              	.LVL166:
 1575              		.loc 1 579 5 is_stmt 1 view .LVU480
 1576              		.loc 1 579 5 view .LVU481
 1577 0018 0A4A     		ldr	r2, .L58+4
 1578 001a 1343     		orrs	r3, r2
 1579              	.LVL167:
 1580              		.loc 1 579 5 is_stmt 0 view .LVU482
 1581 001c 9BB2     		uxth	r3, r3
 1582 001e 0380     		strh	r3, [r0]
 1583              	.LBE53:
 1584              		.loc 1 579 5 is_stmt 1 view .LVU483
 1585              	.L57:
 580:Drivers/STM32F0xx_HAL_Driver/Src/stm32f0xx_ll_usb.c ****   }
 581:Drivers/STM32F0xx_HAL_Driver/Src/stm32f0xx_ll_usb.c ****   else
 582:Drivers/STM32F0xx_HAL_Driver/Src/stm32f0xx_ll_usb.c ****   {
 583:Drivers/STM32F0xx_HAL_Driver/Src/stm32f0xx_ll_usb.c ****     PCD_SET_EP_RX_STATUS(USBx, ep->num, USB_EP_RX_STALL);
 1586              		.loc 1 583 5 discriminator 7 view .LVU484
 584:Drivers/STM32F0xx_HAL_Driver/Src/stm32f0xx_ll_usb.c ****   }
 585:Drivers/STM32F0xx_HAL_Driver/Src/stm32f0xx_ll_usb.c **** 
 586:Drivers/STM32F0xx_HAL_Driver/Src/stm32f0xx_ll_usb.c ****   return HAL_OK;
 1587              		.loc 1 586 3 discriminator 7 view .LVU485
 587:Drivers/STM32F0xx_HAL_Driver/Src/stm32f0xx_ll_usb.c **** }
 1588              		.loc 1 587 1 is_stmt 0 discriminator 7 view .LVU486
 1589 0020 0020     		movs	r0, #0
 1590              		@ sp needed
 1591 0022 7047     		bx	lr
 1592              	.LVL168:
 1593              	.L56:
 583:Drivers/STM32F0xx_HAL_Driver/Src/stm32f0xx_ll_usb.c ****   }
 1594              		.loc 1 583 5 is_stmt 1 view .LVU487
 1595              	.LBB54:
 583:Drivers/STM32F0xx_HAL_Driver/Src/stm32f0xx_ll_usb.c ****   }
 1596              		.loc 1 583 5 view .LVU488
 583:Drivers/STM32F0xx_HAL_Driver/Src/stm32f0xx_ll_usb.c ****   }
 1597              		.loc 1 583 5 view .LVU489
 1598 0024 0B78     		ldrb	r3, [r1]
 1599 0026 9B00     		lsls	r3, r3, #2
 1600 0028 C018     		adds	r0, r0, r3
 1601              	.LVL169:
 583:Drivers/STM32F0xx_HAL_Driver/Src/stm32f0xx_ll_usb.c ****   }
 1602              		.loc 1 583 5 is_stmt 0 view .LVU490
 1603 002a 0288     		ldrh	r2, [r0]
 1604 002c 064B     		ldr	r3, .L58+8
 1605 002e 1A40     		ands	r2, r3
ARM GAS  /tmp/ccnaAMFS.s 			page 44


 1606              	.LVL170:
 583:Drivers/STM32F0xx_HAL_Driver/Src/stm32f0xx_ll_usb.c ****   }
 1607              		.loc 1 583 5 is_stmt 1 view .LVU491
 583:Drivers/STM32F0xx_HAL_Driver/Src/stm32f0xx_ll_usb.c ****   }
 1608              		.loc 1 583 5 view .LVU492
 1609 0030 8023     		movs	r3, #128
 1610 0032 5B01     		lsls	r3, r3, #5
 1611 0034 5A40     		eors	r2, r3
 1612              	.LVL171:
 583:Drivers/STM32F0xx_HAL_Driver/Src/stm32f0xx_ll_usb.c ****   }
 1613              		.loc 1 583 5 view .LVU493
 583:Drivers/STM32F0xx_HAL_Driver/Src/stm32f0xx_ll_usb.c ****   }
 1614              		.loc 1 583 5 view .LVU494
 1615 0036 034B     		ldr	r3, .L58+4
 1616 0038 1343     		orrs	r3, r2
 1617 003a 9BB2     		uxth	r3, r3
 1618 003c 0380     		strh	r3, [r0]
 1619 003e EFE7     		b	.L57
 1620              	.L59:
 1621              		.align	2
 1622              	.L58:
 1623 0040 BF8FFFFF 		.word	-28737
 1624 0044 8080FFFF 		.word	-32640
 1625 0048 8FBFFFFF 		.word	-16497
 1626              	.LBE54:
 1627              		.cfi_endproc
 1628              	.LFE48:
 1630              		.section	.text.USB_EPClearStall,"ax",%progbits
 1631              		.align	1
 1632              		.global	USB_EPClearStall
 1633              		.syntax unified
 1634              		.code	16
 1635              		.thumb_func
 1636              		.fpu softvfp
 1638              	USB_EPClearStall:
 1639              	.LVL172:
 1640              	.LFB49:
 588:Drivers/STM32F0xx_HAL_Driver/Src/stm32f0xx_ll_usb.c **** 
 589:Drivers/STM32F0xx_HAL_Driver/Src/stm32f0xx_ll_usb.c **** /**
 590:Drivers/STM32F0xx_HAL_Driver/Src/stm32f0xx_ll_usb.c ****   * @brief  USB_EPClearStall Clear a stall condition over an EP
 591:Drivers/STM32F0xx_HAL_Driver/Src/stm32f0xx_ll_usb.c ****   * @param  USBx Selected device
 592:Drivers/STM32F0xx_HAL_Driver/Src/stm32f0xx_ll_usb.c ****   * @param  ep pointer to endpoint structure
 593:Drivers/STM32F0xx_HAL_Driver/Src/stm32f0xx_ll_usb.c ****   * @retval HAL status
 594:Drivers/STM32F0xx_HAL_Driver/Src/stm32f0xx_ll_usb.c ****   */
 595:Drivers/STM32F0xx_HAL_Driver/Src/stm32f0xx_ll_usb.c **** HAL_StatusTypeDef USB_EPClearStall(USB_TypeDef *USBx, USB_EPTypeDef *ep)
 596:Drivers/STM32F0xx_HAL_Driver/Src/stm32f0xx_ll_usb.c **** {
 1641              		.loc 1 596 1 view -0
 1642              		.cfi_startproc
 1643              		@ args = 0, pretend = 0, frame = 0
 1644              		@ frame_needed = 0, uses_anonymous_args = 0
 1645              		.loc 1 596 1 is_stmt 0 view .LVU496
 1646 0000 10B5     		push	{r4, lr}
 1647              	.LCFI4:
 1648              		.cfi_def_cfa_offset 8
 1649              		.cfi_offset 4, -8
 1650              		.cfi_offset 14, -4
 597:Drivers/STM32F0xx_HAL_Driver/Src/stm32f0xx_ll_usb.c ****   if (ep->doublebuffer == 0U)
ARM GAS  /tmp/ccnaAMFS.s 			page 45


 1651              		.loc 1 597 3 is_stmt 1 view .LVU497
 1652              		.loc 1 597 9 is_stmt 0 view .LVU498
 1653 0002 0B7B     		ldrb	r3, [r1, #12]
 1654              		.loc 1 597 6 view .LVU499
 1655 0004 002B     		cmp	r3, #0
 1656 0006 3AD1     		bne	.L61
 598:Drivers/STM32F0xx_HAL_Driver/Src/stm32f0xx_ll_usb.c ****   {
 599:Drivers/STM32F0xx_HAL_Driver/Src/stm32f0xx_ll_usb.c ****     if (ep->is_in != 0U)
 1657              		.loc 1 599 5 is_stmt 1 view .LVU500
 1658              		.loc 1 599 11 is_stmt 0 view .LVU501
 1659 0008 4B78     		ldrb	r3, [r1, #1]
 1660              		.loc 1 599 8 view .LVU502
 1661 000a 002B     		cmp	r3, #0
 1662 000c 1DD0     		beq	.L62
 600:Drivers/STM32F0xx_HAL_Driver/Src/stm32f0xx_ll_usb.c ****     {
 601:Drivers/STM32F0xx_HAL_Driver/Src/stm32f0xx_ll_usb.c ****       PCD_CLEAR_TX_DTOG(USBx, ep->num);
 1663              		.loc 1 601 7 is_stmt 1 view .LVU503
 1664              	.LBB55:
 1665              		.loc 1 601 7 view .LVU504
 1666              		.loc 1 601 7 view .LVU505
 1667 000e 0B78     		ldrb	r3, [r1]
 1668 0010 9B00     		lsls	r3, r3, #2
 1669 0012 C318     		adds	r3, r0, r3
 1670 0014 1A88     		ldrh	r2, [r3]
 1671              	.LVL173:
 1672              		.loc 1 601 7 view .LVU506
 1673 0016 5206     		lsls	r2, r2, #25
 1674 0018 06D5     		bpl	.L63
 1675              	.LVL174:
 1676              		.loc 1 601 7 discriminator 1 view .LVU507
 1677              	.LBB56:
 1678              		.loc 1 601 7 discriminator 1 view .LVU508
 1679              		.loc 1 601 7 discriminator 1 view .LVU509
 1680 001a 1A88     		ldrh	r2, [r3]
 1681 001c 194C     		ldr	r4, .L65
 1682 001e 1440     		ands	r4, r2
 1683              	.LVL175:
 1684              		.loc 1 601 7 discriminator 1 view .LVU510
 1685 0020 194A     		ldr	r2, .L65+4
 1686 0022 2243     		orrs	r2, r4
 1687 0024 92B2     		uxth	r2, r2
 1688 0026 1A80     		strh	r2, [r3]
 1689              	.LVL176:
 1690              	.L63:
 1691              		.loc 1 601 7 is_stmt 0 discriminator 1 view .LVU511
 1692              	.LBE56:
 1693              		.loc 1 601 7 is_stmt 1 discriminator 3 view .LVU512
 1694              	.LBE55:
 1695              		.loc 1 601 7 discriminator 3 view .LVU513
 602:Drivers/STM32F0xx_HAL_Driver/Src/stm32f0xx_ll_usb.c **** 
 603:Drivers/STM32F0xx_HAL_Driver/Src/stm32f0xx_ll_usb.c ****       if (ep->type != EP_TYPE_ISOC)
 1696              		.loc 1 603 7 discriminator 3 view .LVU514
 1697              		.loc 1 603 13 is_stmt 0 discriminator 3 view .LVU515
 1698 0028 CB78     		ldrb	r3, [r1, #3]
 1699              		.loc 1 603 10 discriminator 3 view .LVU516
 1700 002a 012B     		cmp	r3, #1
 1701 002c 27D0     		beq	.L61
ARM GAS  /tmp/ccnaAMFS.s 			page 46


 604:Drivers/STM32F0xx_HAL_Driver/Src/stm32f0xx_ll_usb.c ****       {
 605:Drivers/STM32F0xx_HAL_Driver/Src/stm32f0xx_ll_usb.c ****         /* Configure NAK status for the Endpoint */
 606:Drivers/STM32F0xx_HAL_Driver/Src/stm32f0xx_ll_usb.c ****         PCD_SET_EP_TX_STATUS(USBx, ep->num, USB_EP_TX_NAK);
 1702              		.loc 1 606 9 is_stmt 1 view .LVU517
 1703              	.LBB57:
 1704              		.loc 1 606 9 view .LVU518
 1705              		.loc 1 606 9 view .LVU519
 1706 002e 0B78     		ldrb	r3, [r1]
 1707 0030 9B00     		lsls	r3, r3, #2
 1708 0032 C018     		adds	r0, r0, r3
 1709              	.LVL177:
 1710              		.loc 1 606 9 is_stmt 0 view .LVU520
 1711 0034 0388     		ldrh	r3, [r0]
 1712 0036 154A     		ldr	r2, .L65+8
 1713 0038 1340     		ands	r3, r2
 1714              	.LVL178:
 1715              		.loc 1 606 9 is_stmt 1 view .LVU521
 1716              		.loc 1 606 9 view .LVU522
 1717              		.loc 1 606 9 view .LVU523
 1718 003a 2022     		movs	r2, #32
 1719 003c 5340     		eors	r3, r2
 1720              	.LVL179:
 1721              		.loc 1 606 9 is_stmt 0 view .LVU524
 1722 003e 9BB2     		uxth	r3, r3
 1723              	.LVL180:
 1724              		.loc 1 606 9 is_stmt 1 view .LVU525
 1725 0040 134A     		ldr	r2, .L65+12
 1726 0042 1343     		orrs	r3, r2
 1727              	.LVL181:
 1728              		.loc 1 606 9 is_stmt 0 view .LVU526
 1729 0044 9BB2     		uxth	r3, r3
 1730 0046 0380     		strh	r3, [r0]
 1731 0048 19E0     		b	.L61
 1732              	.LVL182:
 1733              	.L62:
 1734              		.loc 1 606 9 view .LVU527
 1735              	.LBE57:
 607:Drivers/STM32F0xx_HAL_Driver/Src/stm32f0xx_ll_usb.c ****       }
 608:Drivers/STM32F0xx_HAL_Driver/Src/stm32f0xx_ll_usb.c ****     }
 609:Drivers/STM32F0xx_HAL_Driver/Src/stm32f0xx_ll_usb.c ****     else
 610:Drivers/STM32F0xx_HAL_Driver/Src/stm32f0xx_ll_usb.c ****     {
 611:Drivers/STM32F0xx_HAL_Driver/Src/stm32f0xx_ll_usb.c ****       PCD_CLEAR_RX_DTOG(USBx, ep->num);
 1736              		.loc 1 611 7 is_stmt 1 view .LVU528
 1737              	.LBB58:
 1738              		.loc 1 611 7 view .LVU529
 1739              		.loc 1 611 7 view .LVU530
 1740 004a 0B78     		ldrb	r3, [r1]
 1741 004c 9B00     		lsls	r3, r3, #2
 1742 004e C318     		adds	r3, r0, r3
 1743 0050 1A88     		ldrh	r2, [r3]
 1744              	.LVL183:
 1745              		.loc 1 611 7 view .LVU531
 1746 0052 5204     		lsls	r2, r2, #17
 1747 0054 06D5     		bpl	.L64
 1748              	.LVL184:
 1749              		.loc 1 611 7 discriminator 1 view .LVU532
 1750              	.LBB59:
ARM GAS  /tmp/ccnaAMFS.s 			page 47


 1751              		.loc 1 611 7 discriminator 1 view .LVU533
 1752              		.loc 1 611 7 discriminator 1 view .LVU534
 1753 0056 1A88     		ldrh	r2, [r3]
 1754 0058 0A4C     		ldr	r4, .L65
 1755 005a 1440     		ands	r4, r2
 1756              	.LVL185:
 1757              		.loc 1 611 7 discriminator 1 view .LVU535
 1758 005c 0D4A     		ldr	r2, .L65+16
 1759 005e 2243     		orrs	r2, r4
 1760 0060 92B2     		uxth	r2, r2
 1761 0062 1A80     		strh	r2, [r3]
 1762              	.LVL186:
 1763              	.L64:
 1764              		.loc 1 611 7 is_stmt 0 discriminator 1 view .LVU536
 1765              	.LBE59:
 1766              		.loc 1 611 7 is_stmt 1 discriminator 3 view .LVU537
 1767              	.LBE58:
 1768              		.loc 1 611 7 discriminator 3 view .LVU538
 612:Drivers/STM32F0xx_HAL_Driver/Src/stm32f0xx_ll_usb.c **** 
 613:Drivers/STM32F0xx_HAL_Driver/Src/stm32f0xx_ll_usb.c ****       /* Configure VALID status for the Endpoint */
 614:Drivers/STM32F0xx_HAL_Driver/Src/stm32f0xx_ll_usb.c ****       PCD_SET_EP_RX_STATUS(USBx, ep->num, USB_EP_RX_VALID);
 1769              		.loc 1 614 7 discriminator 3 view .LVU539
 1770              	.LBB60:
 1771              		.loc 1 614 7 discriminator 3 view .LVU540
 1772              		.loc 1 614 7 discriminator 3 view .LVU541
 1773 0064 0B78     		ldrb	r3, [r1]
 1774 0066 9B00     		lsls	r3, r3, #2
 1775 0068 C018     		adds	r0, r0, r3
 1776              	.LVL187:
 1777              		.loc 1 614 7 is_stmt 0 discriminator 3 view .LVU542
 1778 006a 0288     		ldrh	r2, [r0]
 1779 006c 0A4B     		ldr	r3, .L65+20
 1780 006e 1A40     		ands	r2, r3
 1781              	.LVL188:
 1782              		.loc 1 614 7 is_stmt 1 discriminator 3 view .LVU543
 1783              		.loc 1 614 7 discriminator 3 view .LVU544
 1784              		.loc 1 614 7 discriminator 3 view .LVU545
 1785              		.loc 1 614 7 discriminator 3 view .LVU546
 1786 0070 C023     		movs	r3, #192
 1787 0072 9B01     		lsls	r3, r3, #6
 1788 0074 5A40     		eors	r2, r3
 1789              	.LVL189:
 1790              		.loc 1 614 7 discriminator 3 view .LVU547
 1791 0076 064B     		ldr	r3, .L65+12
 1792 0078 1343     		orrs	r3, r2
 1793 007a 9BB2     		uxth	r3, r3
 1794 007c 0380     		strh	r3, [r0]
 1795              	.LVL190:
 1796              	.L61:
 1797              		.loc 1 614 7 is_stmt 0 discriminator 3 view .LVU548
 1798              	.LBE60:
 1799              		.loc 1 614 7 is_stmt 1 discriminator 7 view .LVU549
 615:Drivers/STM32F0xx_HAL_Driver/Src/stm32f0xx_ll_usb.c ****     }
 616:Drivers/STM32F0xx_HAL_Driver/Src/stm32f0xx_ll_usb.c ****   }
 617:Drivers/STM32F0xx_HAL_Driver/Src/stm32f0xx_ll_usb.c **** 
 618:Drivers/STM32F0xx_HAL_Driver/Src/stm32f0xx_ll_usb.c ****   return HAL_OK;
 1800              		.loc 1 618 3 discriminator 7 view .LVU550
ARM GAS  /tmp/ccnaAMFS.s 			page 48


 619:Drivers/STM32F0xx_HAL_Driver/Src/stm32f0xx_ll_usb.c **** }
 1801              		.loc 1 619 1 is_stmt 0 discriminator 7 view .LVU551
 1802 007e 0020     		movs	r0, #0
 1803              		@ sp needed
 1804 0080 10BD     		pop	{r4, pc}
 1805              	.L66:
 1806 0082 C046     		.align	2
 1807              	.L65:
 1808 0084 8F8FFFFF 		.word	-28785
 1809 0088 C080FFFF 		.word	-32576
 1810 008c BF8FFFFF 		.word	-28737
 1811 0090 8080FFFF 		.word	-32640
 1812 0094 80C0FFFF 		.word	-16256
 1813 0098 8FBFFFFF 		.word	-16497
 1814              		.cfi_endproc
 1815              	.LFE49:
 1817              		.section	.text.USB_StopDevice,"ax",%progbits
 1818              		.align	1
 1819              		.global	USB_StopDevice
 1820              		.syntax unified
 1821              		.code	16
 1822              		.thumb_func
 1823              		.fpu softvfp
 1825              	USB_StopDevice:
 1826              	.LVL191:
 1827              	.LFB50:
 620:Drivers/STM32F0xx_HAL_Driver/Src/stm32f0xx_ll_usb.c **** #endif /* defined (HAL_PCD_MODULE_ENABLED) */
 621:Drivers/STM32F0xx_HAL_Driver/Src/stm32f0xx_ll_usb.c **** 
 622:Drivers/STM32F0xx_HAL_Driver/Src/stm32f0xx_ll_usb.c **** /**
 623:Drivers/STM32F0xx_HAL_Driver/Src/stm32f0xx_ll_usb.c ****   * @brief  USB_StopDevice Stop the usb device mode
 624:Drivers/STM32F0xx_HAL_Driver/Src/stm32f0xx_ll_usb.c ****   * @param  USBx Selected device
 625:Drivers/STM32F0xx_HAL_Driver/Src/stm32f0xx_ll_usb.c ****   * @retval HAL status
 626:Drivers/STM32F0xx_HAL_Driver/Src/stm32f0xx_ll_usb.c ****   */
 627:Drivers/STM32F0xx_HAL_Driver/Src/stm32f0xx_ll_usb.c **** HAL_StatusTypeDef USB_StopDevice(USB_TypeDef *USBx)
 628:Drivers/STM32F0xx_HAL_Driver/Src/stm32f0xx_ll_usb.c **** {
 1828              		.loc 1 628 1 is_stmt 1 view -0
 1829              		.cfi_startproc
 1830              		@ args = 0, pretend = 0, frame = 0
 1831              		@ frame_needed = 0, uses_anonymous_args = 0
 1832              		@ link register save eliminated.
 629:Drivers/STM32F0xx_HAL_Driver/Src/stm32f0xx_ll_usb.c ****   /* disable all interrupts and force USB reset */
 630:Drivers/STM32F0xx_HAL_Driver/Src/stm32f0xx_ll_usb.c ****   USBx->CNTR = (uint16_t)USB_CNTR_FRES;
 1833              		.loc 1 630 3 view .LVU553
 1834              		.loc 1 630 14 is_stmt 0 view .LVU554
 1835 0000 4023     		movs	r3, #64
 1836 0002 0122     		movs	r2, #1
 1837 0004 C252     		strh	r2, [r0, r3]
 631:Drivers/STM32F0xx_HAL_Driver/Src/stm32f0xx_ll_usb.c **** 
 632:Drivers/STM32F0xx_HAL_Driver/Src/stm32f0xx_ll_usb.c ****   /* clear interrupt status register */
 633:Drivers/STM32F0xx_HAL_Driver/Src/stm32f0xx_ll_usb.c ****   USBx->ISTR = 0U;
 1838              		.loc 1 633 3 is_stmt 1 view .LVU555
 1839              		.loc 1 633 14 is_stmt 0 view .LVU556
 1840 0006 4332     		adds	r2, r2, #67
 1841 0008 0021     		movs	r1, #0
 1842 000a 8152     		strh	r1, [r0, r2]
 634:Drivers/STM32F0xx_HAL_Driver/Src/stm32f0xx_ll_usb.c **** 
 635:Drivers/STM32F0xx_HAL_Driver/Src/stm32f0xx_ll_usb.c ****   /* switch-off device */
ARM GAS  /tmp/ccnaAMFS.s 			page 49


 636:Drivers/STM32F0xx_HAL_Driver/Src/stm32f0xx_ll_usb.c ****   USBx->CNTR = (uint16_t)(USB_CNTR_FRES | USB_CNTR_PDWN);
 1843              		.loc 1 636 3 is_stmt 1 view .LVU557
 1844              		.loc 1 636 14 is_stmt 0 view .LVU558
 1845 000c 413A     		subs	r2, r2, #65
 1846 000e C252     		strh	r2, [r0, r3]
 637:Drivers/STM32F0xx_HAL_Driver/Src/stm32f0xx_ll_usb.c **** 
 638:Drivers/STM32F0xx_HAL_Driver/Src/stm32f0xx_ll_usb.c ****   return HAL_OK;
 1847              		.loc 1 638 3 is_stmt 1 view .LVU559
 639:Drivers/STM32F0xx_HAL_Driver/Src/stm32f0xx_ll_usb.c **** }
 1848              		.loc 1 639 1 is_stmt 0 view .LVU560
 1849 0010 0020     		movs	r0, #0
 1850              	.LVL192:
 1851              		.loc 1 639 1 view .LVU561
 1852              		@ sp needed
 1853 0012 7047     		bx	lr
 1854              		.cfi_endproc
 1855              	.LFE50:
 1857              		.section	.text.USB_SetDevAddress,"ax",%progbits
 1858              		.align	1
 1859              		.global	USB_SetDevAddress
 1860              		.syntax unified
 1861              		.code	16
 1862              		.thumb_func
 1863              		.fpu softvfp
 1865              	USB_SetDevAddress:
 1866              	.LVL193:
 1867              	.LFB51:
 640:Drivers/STM32F0xx_HAL_Driver/Src/stm32f0xx_ll_usb.c **** 
 641:Drivers/STM32F0xx_HAL_Driver/Src/stm32f0xx_ll_usb.c **** /**
 642:Drivers/STM32F0xx_HAL_Driver/Src/stm32f0xx_ll_usb.c ****   * @brief  USB_SetDevAddress Stop the usb device mode
 643:Drivers/STM32F0xx_HAL_Driver/Src/stm32f0xx_ll_usb.c ****   * @param  USBx Selected device
 644:Drivers/STM32F0xx_HAL_Driver/Src/stm32f0xx_ll_usb.c ****   * @param  address new device address to be assigned
 645:Drivers/STM32F0xx_HAL_Driver/Src/stm32f0xx_ll_usb.c ****   *          This parameter can be a value from 0 to 255
 646:Drivers/STM32F0xx_HAL_Driver/Src/stm32f0xx_ll_usb.c ****   * @retval HAL status
 647:Drivers/STM32F0xx_HAL_Driver/Src/stm32f0xx_ll_usb.c ****   */
 648:Drivers/STM32F0xx_HAL_Driver/Src/stm32f0xx_ll_usb.c **** HAL_StatusTypeDef  USB_SetDevAddress(USB_TypeDef *USBx, uint8_t address)
 649:Drivers/STM32F0xx_HAL_Driver/Src/stm32f0xx_ll_usb.c **** {
 1868              		.loc 1 649 1 is_stmt 1 view -0
 1869              		.cfi_startproc
 1870              		@ args = 0, pretend = 0, frame = 0
 1871              		@ frame_needed = 0, uses_anonymous_args = 0
 1872              		@ link register save eliminated.
 650:Drivers/STM32F0xx_HAL_Driver/Src/stm32f0xx_ll_usb.c ****   if (address == 0U)
 1873              		.loc 1 650 3 view .LVU563
 1874              		.loc 1 650 6 is_stmt 0 view .LVU564
 1875 0000 0029     		cmp	r1, #0
 1876 0002 02D1     		bne	.L69
 651:Drivers/STM32F0xx_HAL_Driver/Src/stm32f0xx_ll_usb.c ****   {
 652:Drivers/STM32F0xx_HAL_Driver/Src/stm32f0xx_ll_usb.c ****     /* set device address and enable function */
 653:Drivers/STM32F0xx_HAL_Driver/Src/stm32f0xx_ll_usb.c ****     USBx->DADDR = (uint16_t)USB_DADDR_EF;
 1877              		.loc 1 653 5 is_stmt 1 view .LVU565
 1878              		.loc 1 653 17 is_stmt 0 view .LVU566
 1879 0004 4C23     		movs	r3, #76
 1880 0006 8022     		movs	r2, #128
 1881 0008 C252     		strh	r2, [r0, r3]
 1882              	.L69:
 654:Drivers/STM32F0xx_HAL_Driver/Src/stm32f0xx_ll_usb.c ****   }
ARM GAS  /tmp/ccnaAMFS.s 			page 50


 655:Drivers/STM32F0xx_HAL_Driver/Src/stm32f0xx_ll_usb.c **** 
 656:Drivers/STM32F0xx_HAL_Driver/Src/stm32f0xx_ll_usb.c ****   return HAL_OK;
 1883              		.loc 1 656 3 is_stmt 1 view .LVU567
 657:Drivers/STM32F0xx_HAL_Driver/Src/stm32f0xx_ll_usb.c **** }
 1884              		.loc 1 657 1 is_stmt 0 view .LVU568
 1885 000a 0020     		movs	r0, #0
 1886              	.LVL194:
 1887              		.loc 1 657 1 view .LVU569
 1888              		@ sp needed
 1889 000c 7047     		bx	lr
 1890              		.cfi_endproc
 1891              	.LFE51:
 1893              		.section	.text.USB_DevConnect,"ax",%progbits
 1894              		.align	1
 1895              		.global	USB_DevConnect
 1896              		.syntax unified
 1897              		.code	16
 1898              		.thumb_func
 1899              		.fpu softvfp
 1901              	USB_DevConnect:
 1902              	.LVL195:
 1903              	.LFB52:
 658:Drivers/STM32F0xx_HAL_Driver/Src/stm32f0xx_ll_usb.c **** 
 659:Drivers/STM32F0xx_HAL_Driver/Src/stm32f0xx_ll_usb.c **** /**
 660:Drivers/STM32F0xx_HAL_Driver/Src/stm32f0xx_ll_usb.c ****   * @brief  USB_DevConnect Connect the USB device by enabling the pull-up/pull-down
 661:Drivers/STM32F0xx_HAL_Driver/Src/stm32f0xx_ll_usb.c ****   * @param  USBx Selected device
 662:Drivers/STM32F0xx_HAL_Driver/Src/stm32f0xx_ll_usb.c ****   * @retval HAL status
 663:Drivers/STM32F0xx_HAL_Driver/Src/stm32f0xx_ll_usb.c ****   */
 664:Drivers/STM32F0xx_HAL_Driver/Src/stm32f0xx_ll_usb.c **** HAL_StatusTypeDef  USB_DevConnect(USB_TypeDef *USBx)
 665:Drivers/STM32F0xx_HAL_Driver/Src/stm32f0xx_ll_usb.c **** {
 1904              		.loc 1 665 1 is_stmt 1 view -0
 1905              		.cfi_startproc
 1906              		@ args = 0, pretend = 0, frame = 0
 1907              		@ frame_needed = 0, uses_anonymous_args = 0
 1908              		@ link register save eliminated.
 666:Drivers/STM32F0xx_HAL_Driver/Src/stm32f0xx_ll_usb.c ****   /* Enabling DP Pull-UP bit to Connect internal PU resistor on USB DP line */
 667:Drivers/STM32F0xx_HAL_Driver/Src/stm32f0xx_ll_usb.c ****   USBx->BCDR |= (uint16_t)USB_BCDR_DPPU;
 1909              		.loc 1 667 3 view .LVU571
 1910              		.loc 1 667 14 is_stmt 0 view .LVU572
 1911 0000 5822     		movs	r2, #88
 1912 0002 835A     		ldrh	r3, [r0, r2]
 1913 0004 0249     		ldr	r1, .L71
 1914 0006 0B43     		orrs	r3, r1
 1915 0008 9BB2     		uxth	r3, r3
 1916 000a 8352     		strh	r3, [r0, r2]
 668:Drivers/STM32F0xx_HAL_Driver/Src/stm32f0xx_ll_usb.c **** 
 669:Drivers/STM32F0xx_HAL_Driver/Src/stm32f0xx_ll_usb.c ****   return HAL_OK;
 1917              		.loc 1 669 3 is_stmt 1 view .LVU573
 670:Drivers/STM32F0xx_HAL_Driver/Src/stm32f0xx_ll_usb.c **** }
 1918              		.loc 1 670 1 is_stmt 0 view .LVU574
 1919 000c 0020     		movs	r0, #0
 1920              	.LVL196:
 1921              		.loc 1 670 1 view .LVU575
 1922              		@ sp needed
 1923 000e 7047     		bx	lr
 1924              	.L72:
 1925              		.align	2
ARM GAS  /tmp/ccnaAMFS.s 			page 51


 1926              	.L71:
 1927 0010 0080FFFF 		.word	-32768
 1928              		.cfi_endproc
 1929              	.LFE52:
 1931              		.section	.text.USB_DevDisconnect,"ax",%progbits
 1932              		.align	1
 1933              		.global	USB_DevDisconnect
 1934              		.syntax unified
 1935              		.code	16
 1936              		.thumb_func
 1937              		.fpu softvfp
 1939              	USB_DevDisconnect:
 1940              	.LVL197:
 1941              	.LFB53:
 671:Drivers/STM32F0xx_HAL_Driver/Src/stm32f0xx_ll_usb.c **** 
 672:Drivers/STM32F0xx_HAL_Driver/Src/stm32f0xx_ll_usb.c **** /**
 673:Drivers/STM32F0xx_HAL_Driver/Src/stm32f0xx_ll_usb.c ****   * @brief  USB_DevDisconnect Disconnect the USB device by disabling the pull-up/pull-down
 674:Drivers/STM32F0xx_HAL_Driver/Src/stm32f0xx_ll_usb.c ****   * @param  USBx Selected device
 675:Drivers/STM32F0xx_HAL_Driver/Src/stm32f0xx_ll_usb.c ****   * @retval HAL status
 676:Drivers/STM32F0xx_HAL_Driver/Src/stm32f0xx_ll_usb.c ****   */
 677:Drivers/STM32F0xx_HAL_Driver/Src/stm32f0xx_ll_usb.c **** HAL_StatusTypeDef  USB_DevDisconnect(USB_TypeDef *USBx)
 678:Drivers/STM32F0xx_HAL_Driver/Src/stm32f0xx_ll_usb.c **** {
 1942              		.loc 1 678 1 is_stmt 1 view -0
 1943              		.cfi_startproc
 1944              		@ args = 0, pretend = 0, frame = 0
 1945              		@ frame_needed = 0, uses_anonymous_args = 0
 1946              		@ link register save eliminated.
 679:Drivers/STM32F0xx_HAL_Driver/Src/stm32f0xx_ll_usb.c ****   /* Disable DP Pull-Up bit to disconnect the Internal PU resistor on USB DP line */
 680:Drivers/STM32F0xx_HAL_Driver/Src/stm32f0xx_ll_usb.c ****   USBx->BCDR &= (uint16_t)(~(USB_BCDR_DPPU));
 1947              		.loc 1 680 3 view .LVU577
 1948              		.loc 1 680 14 is_stmt 0 view .LVU578
 1949 0000 5822     		movs	r2, #88
 1950 0002 835A     		ldrh	r3, [r0, r2]
 1951 0004 5B04     		lsls	r3, r3, #17
 1952 0006 5B0C     		lsrs	r3, r3, #17
 1953 0008 8352     		strh	r3, [r0, r2]
 681:Drivers/STM32F0xx_HAL_Driver/Src/stm32f0xx_ll_usb.c **** 
 682:Drivers/STM32F0xx_HAL_Driver/Src/stm32f0xx_ll_usb.c ****   return HAL_OK;
 1954              		.loc 1 682 3 is_stmt 1 view .LVU579
 683:Drivers/STM32F0xx_HAL_Driver/Src/stm32f0xx_ll_usb.c **** }
 1955              		.loc 1 683 1 is_stmt 0 view .LVU580
 1956 000a 0020     		movs	r0, #0
 1957              	.LVL198:
 1958              		.loc 1 683 1 view .LVU581
 1959              		@ sp needed
 1960 000c 7047     		bx	lr
 1961              		.cfi_endproc
 1962              	.LFE53:
 1964              		.section	.text.USB_ReadInterrupts,"ax",%progbits
 1965              		.align	1
 1966              		.global	USB_ReadInterrupts
 1967              		.syntax unified
 1968              		.code	16
 1969              		.thumb_func
 1970              		.fpu softvfp
 1972              	USB_ReadInterrupts:
 1973              	.LVL199:
ARM GAS  /tmp/ccnaAMFS.s 			page 52


 1974              	.LFB54:
 684:Drivers/STM32F0xx_HAL_Driver/Src/stm32f0xx_ll_usb.c **** 
 685:Drivers/STM32F0xx_HAL_Driver/Src/stm32f0xx_ll_usb.c **** /**
 686:Drivers/STM32F0xx_HAL_Driver/Src/stm32f0xx_ll_usb.c ****   * @brief  USB_ReadInterrupts return the global USB interrupt status
 687:Drivers/STM32F0xx_HAL_Driver/Src/stm32f0xx_ll_usb.c ****   * @param  USBx Selected device
 688:Drivers/STM32F0xx_HAL_Driver/Src/stm32f0xx_ll_usb.c ****   * @retval HAL status
 689:Drivers/STM32F0xx_HAL_Driver/Src/stm32f0xx_ll_usb.c ****   */
 690:Drivers/STM32F0xx_HAL_Driver/Src/stm32f0xx_ll_usb.c **** uint32_t  USB_ReadInterrupts(USB_TypeDef *USBx)
 691:Drivers/STM32F0xx_HAL_Driver/Src/stm32f0xx_ll_usb.c **** {
 1975              		.loc 1 691 1 is_stmt 1 view -0
 1976              		.cfi_startproc
 1977              		@ args = 0, pretend = 0, frame = 0
 1978              		@ frame_needed = 0, uses_anonymous_args = 0
 1979              		@ link register save eliminated.
 692:Drivers/STM32F0xx_HAL_Driver/Src/stm32f0xx_ll_usb.c ****   uint32_t tmpreg;
 1980              		.loc 1 692 3 view .LVU583
 693:Drivers/STM32F0xx_HAL_Driver/Src/stm32f0xx_ll_usb.c **** 
 694:Drivers/STM32F0xx_HAL_Driver/Src/stm32f0xx_ll_usb.c ****   tmpreg = USBx->ISTR;
 1981              		.loc 1 694 3 view .LVU584
 1982              		.loc 1 694 16 is_stmt 0 view .LVU585
 1983 0000 4423     		movs	r3, #68
 1984 0002 C05A     		ldrh	r0, [r0, r3]
 1985              	.LVL200:
 1986              		.loc 1 694 16 view .LVU586
 1987 0004 80B2     		uxth	r0, r0
 1988              	.LVL201:
 695:Drivers/STM32F0xx_HAL_Driver/Src/stm32f0xx_ll_usb.c ****   return tmpreg;
 1989              		.loc 1 695 3 is_stmt 1 view .LVU587
 696:Drivers/STM32F0xx_HAL_Driver/Src/stm32f0xx_ll_usb.c **** }
 1990              		.loc 1 696 1 is_stmt 0 view .LVU588
 1991              		@ sp needed
 1992 0006 7047     		bx	lr
 1993              		.cfi_endproc
 1994              	.LFE54:
 1996              		.section	.text.USB_ActivateRemoteWakeup,"ax",%progbits
 1997              		.align	1
 1998              		.global	USB_ActivateRemoteWakeup
 1999              		.syntax unified
 2000              		.code	16
 2001              		.thumb_func
 2002              		.fpu softvfp
 2004              	USB_ActivateRemoteWakeup:
 2005              	.LVL202:
 2006              	.LFB55:
 697:Drivers/STM32F0xx_HAL_Driver/Src/stm32f0xx_ll_usb.c **** 
 698:Drivers/STM32F0xx_HAL_Driver/Src/stm32f0xx_ll_usb.c **** /**
 699:Drivers/STM32F0xx_HAL_Driver/Src/stm32f0xx_ll_usb.c ****   * @brief  USB_ActivateRemoteWakeup : active remote wakeup signalling
 700:Drivers/STM32F0xx_HAL_Driver/Src/stm32f0xx_ll_usb.c ****   * @param  USBx Selected device
 701:Drivers/STM32F0xx_HAL_Driver/Src/stm32f0xx_ll_usb.c ****   * @retval HAL status
 702:Drivers/STM32F0xx_HAL_Driver/Src/stm32f0xx_ll_usb.c ****   */
 703:Drivers/STM32F0xx_HAL_Driver/Src/stm32f0xx_ll_usb.c **** HAL_StatusTypeDef USB_ActivateRemoteWakeup(USB_TypeDef *USBx)
 704:Drivers/STM32F0xx_HAL_Driver/Src/stm32f0xx_ll_usb.c **** {
 2007              		.loc 1 704 1 is_stmt 1 view -0
 2008              		.cfi_startproc
 2009              		@ args = 0, pretend = 0, frame = 0
 2010              		@ frame_needed = 0, uses_anonymous_args = 0
 2011              		@ link register save eliminated.
ARM GAS  /tmp/ccnaAMFS.s 			page 53


 705:Drivers/STM32F0xx_HAL_Driver/Src/stm32f0xx_ll_usb.c ****   USBx->CNTR |= (uint16_t)USB_CNTR_RESUME;
 2012              		.loc 1 705 3 view .LVU590
 2013              		.loc 1 705 14 is_stmt 0 view .LVU591
 2014 0000 4022     		movs	r2, #64
 2015 0002 835A     		ldrh	r3, [r0, r2]
 2016 0004 1021     		movs	r1, #16
 2017 0006 0B43     		orrs	r3, r1
 2018 0008 9BB2     		uxth	r3, r3
 2019 000a 8352     		strh	r3, [r0, r2]
 706:Drivers/STM32F0xx_HAL_Driver/Src/stm32f0xx_ll_usb.c **** 
 707:Drivers/STM32F0xx_HAL_Driver/Src/stm32f0xx_ll_usb.c ****   return HAL_OK;
 2020              		.loc 1 707 3 is_stmt 1 view .LVU592
 708:Drivers/STM32F0xx_HAL_Driver/Src/stm32f0xx_ll_usb.c **** }
 2021              		.loc 1 708 1 is_stmt 0 view .LVU593
 2022 000c 0020     		movs	r0, #0
 2023              	.LVL203:
 2024              		.loc 1 708 1 view .LVU594
 2025              		@ sp needed
 2026 000e 7047     		bx	lr
 2027              		.cfi_endproc
 2028              	.LFE55:
 2030              		.section	.text.USB_DeActivateRemoteWakeup,"ax",%progbits
 2031              		.align	1
 2032              		.global	USB_DeActivateRemoteWakeup
 2033              		.syntax unified
 2034              		.code	16
 2035              		.thumb_func
 2036              		.fpu softvfp
 2038              	USB_DeActivateRemoteWakeup:
 2039              	.LVL204:
 2040              	.LFB56:
 709:Drivers/STM32F0xx_HAL_Driver/Src/stm32f0xx_ll_usb.c **** 
 710:Drivers/STM32F0xx_HAL_Driver/Src/stm32f0xx_ll_usb.c **** /**
 711:Drivers/STM32F0xx_HAL_Driver/Src/stm32f0xx_ll_usb.c ****   * @brief  USB_DeActivateRemoteWakeup de-active remote wakeup signalling
 712:Drivers/STM32F0xx_HAL_Driver/Src/stm32f0xx_ll_usb.c ****   * @param  USBx Selected device
 713:Drivers/STM32F0xx_HAL_Driver/Src/stm32f0xx_ll_usb.c ****   * @retval HAL status
 714:Drivers/STM32F0xx_HAL_Driver/Src/stm32f0xx_ll_usb.c ****   */
 715:Drivers/STM32F0xx_HAL_Driver/Src/stm32f0xx_ll_usb.c **** HAL_StatusTypeDef USB_DeActivateRemoteWakeup(USB_TypeDef *USBx)
 716:Drivers/STM32F0xx_HAL_Driver/Src/stm32f0xx_ll_usb.c **** {
 2041              		.loc 1 716 1 is_stmt 1 view -0
 2042              		.cfi_startproc
 2043              		@ args = 0, pretend = 0, frame = 0
 2044              		@ frame_needed = 0, uses_anonymous_args = 0
 2045              		@ link register save eliminated.
 717:Drivers/STM32F0xx_HAL_Driver/Src/stm32f0xx_ll_usb.c ****   USBx->CNTR &= (uint16_t)(~USB_CNTR_RESUME);
 2046              		.loc 1 717 3 view .LVU596
 2047              		.loc 1 717 14 is_stmt 0 view .LVU597
 2048 0000 4022     		movs	r2, #64
 2049 0002 835A     		ldrh	r3, [r0, r2]
 2050 0004 1021     		movs	r1, #16
 2051 0006 8B43     		bics	r3, r1
 2052 0008 8352     		strh	r3, [r0, r2]
 718:Drivers/STM32F0xx_HAL_Driver/Src/stm32f0xx_ll_usb.c **** 
 719:Drivers/STM32F0xx_HAL_Driver/Src/stm32f0xx_ll_usb.c ****   return HAL_OK;
 2053              		.loc 1 719 3 is_stmt 1 view .LVU598
 720:Drivers/STM32F0xx_HAL_Driver/Src/stm32f0xx_ll_usb.c **** }
 2054              		.loc 1 720 1 is_stmt 0 view .LVU599
ARM GAS  /tmp/ccnaAMFS.s 			page 54


 2055 000a 0020     		movs	r0, #0
 2056              	.LVL205:
 2057              		.loc 1 720 1 view .LVU600
 2058              		@ sp needed
 2059 000c 7047     		bx	lr
 2060              		.cfi_endproc
 2061              	.LFE56:
 2063              		.section	.text.USB_WritePMA,"ax",%progbits
 2064              		.align	1
 2065              		.global	USB_WritePMA
 2066              		.syntax unified
 2067              		.code	16
 2068              		.thumb_func
 2069              		.fpu softvfp
 2071              	USB_WritePMA:
 2072              	.LVL206:
 2073              	.LFB57:
 721:Drivers/STM32F0xx_HAL_Driver/Src/stm32f0xx_ll_usb.c **** 
 722:Drivers/STM32F0xx_HAL_Driver/Src/stm32f0xx_ll_usb.c **** /**
 723:Drivers/STM32F0xx_HAL_Driver/Src/stm32f0xx_ll_usb.c ****   * @brief Copy a buffer from user memory area to packet memory area (PMA)
 724:Drivers/STM32F0xx_HAL_Driver/Src/stm32f0xx_ll_usb.c ****   * @param   USBx USB peripheral instance register address.
 725:Drivers/STM32F0xx_HAL_Driver/Src/stm32f0xx_ll_usb.c ****   * @param   pbUsrBuf pointer to user memory area.
 726:Drivers/STM32F0xx_HAL_Driver/Src/stm32f0xx_ll_usb.c ****   * @param   wPMABufAddr address into PMA.
 727:Drivers/STM32F0xx_HAL_Driver/Src/stm32f0xx_ll_usb.c ****   * @param   wNBytes no. of bytes to be copied.
 728:Drivers/STM32F0xx_HAL_Driver/Src/stm32f0xx_ll_usb.c ****   * @retval None
 729:Drivers/STM32F0xx_HAL_Driver/Src/stm32f0xx_ll_usb.c ****   */
 730:Drivers/STM32F0xx_HAL_Driver/Src/stm32f0xx_ll_usb.c **** void USB_WritePMA(USB_TypeDef *USBx, uint8_t *pbUsrBuf, uint16_t wPMABufAddr, uint16_t wNBytes)
 731:Drivers/STM32F0xx_HAL_Driver/Src/stm32f0xx_ll_usb.c **** {
 2074              		.loc 1 731 1 is_stmt 1 view -0
 2075              		.cfi_startproc
 2076              		@ args = 0, pretend = 0, frame = 0
 2077              		@ frame_needed = 0, uses_anonymous_args = 0
 2078              		.loc 1 731 1 is_stmt 0 view .LVU602
 2079 0000 10B5     		push	{r4, lr}
 2080              	.LCFI5:
 2081              		.cfi_def_cfa_offset 8
 2082              		.cfi_offset 4, -8
 2083              		.cfi_offset 14, -4
 732:Drivers/STM32F0xx_HAL_Driver/Src/stm32f0xx_ll_usb.c ****   uint32_t n = ((uint32_t)wNBytes + 1U) >> 1;
 2084              		.loc 1 732 3 is_stmt 1 view .LVU603
 2085              		.loc 1 732 35 is_stmt 0 view .LVU604
 2086 0002 0133     		adds	r3, r3, #1
 2087              	.LVL207:
 2088              		.loc 1 732 12 view .LVU605
 2089 0004 5B08     		lsrs	r3, r3, #1
 2090              	.LVL208:
 733:Drivers/STM32F0xx_HAL_Driver/Src/stm32f0xx_ll_usb.c ****   uint32_t BaseAddr = (uint32_t)USBx;
 2091              		.loc 1 733 3 is_stmt 1 view .LVU606
 734:Drivers/STM32F0xx_HAL_Driver/Src/stm32f0xx_ll_usb.c ****   uint32_t i, temp1, temp2;
 2092              		.loc 1 734 3 view .LVU607
 735:Drivers/STM32F0xx_HAL_Driver/Src/stm32f0xx_ll_usb.c ****   __IO uint16_t *pdwVal;
 2093              		.loc 1 735 3 view .LVU608
 736:Drivers/STM32F0xx_HAL_Driver/Src/stm32f0xx_ll_usb.c ****   uint8_t *pBuf = pbUsrBuf;
 2094              		.loc 1 736 3 view .LVU609
 737:Drivers/STM32F0xx_HAL_Driver/Src/stm32f0xx_ll_usb.c **** 
 738:Drivers/STM32F0xx_HAL_Driver/Src/stm32f0xx_ll_usb.c ****   pdwVal = (__IO uint16_t *)(BaseAddr + 0x400U + ((uint32_t)wPMABufAddr * PMA_ACCESS));
 2095              		.loc 1 738 3 view .LVU610
ARM GAS  /tmp/ccnaAMFS.s 			page 55


 2096              		.loc 1 738 48 is_stmt 0 view .LVU611
 2097 0006 1018     		adds	r0, r2, r0
 2098              	.LVL209:
 2099              		.loc 1 738 48 view .LVU612
 2100 0008 8022     		movs	r2, #128
 2101              	.LVL210:
 2102              		.loc 1 738 48 view .LVU613
 2103 000a D200     		lsls	r2, r2, #3
 2104 000c 9446     		mov	ip, r2
 2105 000e 6044     		add	r0, r0, ip
 2106              	.LVL211:
 739:Drivers/STM32F0xx_HAL_Driver/Src/stm32f0xx_ll_usb.c **** 
 740:Drivers/STM32F0xx_HAL_Driver/Src/stm32f0xx_ll_usb.c ****   for (i = n; i != 0U; i--)
 2107              		.loc 1 740 3 is_stmt 1 view .LVU614
 2108              	.L78:
 2109              		.loc 1 740 15 discriminator 1 view .LVU615
 2110              		.loc 1 740 3 is_stmt 0 discriminator 1 view .LVU616
 2111 0010 002B     		cmp	r3, #0
 2112 0012 08D0     		beq	.L80
 741:Drivers/STM32F0xx_HAL_Driver/Src/stm32f0xx_ll_usb.c ****   {
 742:Drivers/STM32F0xx_HAL_Driver/Src/stm32f0xx_ll_usb.c ****     temp1 = *pBuf;
 2113              		.loc 1 742 5 is_stmt 1 discriminator 3 view .LVU617
 2114              		.loc 1 742 13 is_stmt 0 discriminator 3 view .LVU618
 2115 0014 0C78     		ldrb	r4, [r1]
 2116              	.LVL212:
 743:Drivers/STM32F0xx_HAL_Driver/Src/stm32f0xx_ll_usb.c ****     pBuf++;
 2117              		.loc 1 743 5 is_stmt 1 discriminator 3 view .LVU619
 744:Drivers/STM32F0xx_HAL_Driver/Src/stm32f0xx_ll_usb.c ****     temp2 = temp1 | ((uint16_t)((uint16_t) *pBuf << 8));
 2118              		.loc 1 744 5 discriminator 3 view .LVU620
 2119              		.loc 1 744 44 is_stmt 0 discriminator 3 view .LVU621
 2120 0016 4A78     		ldrb	r2, [r1, #1]
 2121              		.loc 1 744 22 discriminator 3 view .LVU622
 2122 0018 1202     		lsls	r2, r2, #8
 2123              	.LVL213:
 745:Drivers/STM32F0xx_HAL_Driver/Src/stm32f0xx_ll_usb.c ****     *pdwVal = (uint16_t)temp2;
 2124              		.loc 1 745 5 is_stmt 1 discriminator 3 view .LVU623
 2125              		.loc 1 745 15 is_stmt 0 discriminator 3 view .LVU624
 2126 001a 2243     		orrs	r2, r4
 2127              	.LVL214:
 2128              		.loc 1 745 13 discriminator 3 view .LVU625
 2129 001c 0280     		strh	r2, [r0]
 746:Drivers/STM32F0xx_HAL_Driver/Src/stm32f0xx_ll_usb.c ****     pdwVal++;
 2130              		.loc 1 746 5 is_stmt 1 discriminator 3 view .LVU626
 2131              		.loc 1 746 11 is_stmt 0 discriminator 3 view .LVU627
 2132 001e 0230     		adds	r0, r0, #2
 2133              	.LVL215:
 747:Drivers/STM32F0xx_HAL_Driver/Src/stm32f0xx_ll_usb.c **** 
 748:Drivers/STM32F0xx_HAL_Driver/Src/stm32f0xx_ll_usb.c **** #if PMA_ACCESS > 1U
 749:Drivers/STM32F0xx_HAL_Driver/Src/stm32f0xx_ll_usb.c ****     pdwVal++;
 750:Drivers/STM32F0xx_HAL_Driver/Src/stm32f0xx_ll_usb.c **** #endif
 751:Drivers/STM32F0xx_HAL_Driver/Src/stm32f0xx_ll_usb.c **** 
 752:Drivers/STM32F0xx_HAL_Driver/Src/stm32f0xx_ll_usb.c ****     pBuf++;
 2134              		.loc 1 752 5 is_stmt 1 discriminator 3 view .LVU628
 2135              		.loc 1 752 9 is_stmt 0 discriminator 3 view .LVU629
 2136 0020 0231     		adds	r1, r1, #2
 2137              	.LVL216:
 740:Drivers/STM32F0xx_HAL_Driver/Src/stm32f0xx_ll_usb.c ****   {
ARM GAS  /tmp/ccnaAMFS.s 			page 56


 2138              		.loc 1 740 24 is_stmt 1 discriminator 3 view .LVU630
 740:Drivers/STM32F0xx_HAL_Driver/Src/stm32f0xx_ll_usb.c ****   {
 2139              		.loc 1 740 25 is_stmt 0 discriminator 3 view .LVU631
 2140 0022 013B     		subs	r3, r3, #1
 2141              	.LVL217:
 740:Drivers/STM32F0xx_HAL_Driver/Src/stm32f0xx_ll_usb.c ****   {
 2142              		.loc 1 740 25 discriminator 3 view .LVU632
 2143 0024 F4E7     		b	.L78
 2144              	.LVL218:
 2145              	.L80:
 753:Drivers/STM32F0xx_HAL_Driver/Src/stm32f0xx_ll_usb.c ****   }
 754:Drivers/STM32F0xx_HAL_Driver/Src/stm32f0xx_ll_usb.c **** }
 2146              		.loc 1 754 1 view .LVU633
 2147              		@ sp needed
 2148 0026 10BD     		pop	{r4, pc}
 2149              		.cfi_endproc
 2150              	.LFE57:
 2152              		.section	.text.USB_EPStartXfer,"ax",%progbits
 2153              		.align	1
 2154              		.global	USB_EPStartXfer
 2155              		.syntax unified
 2156              		.code	16
 2157              		.thumb_func
 2158              		.fpu softvfp
 2160              	USB_EPStartXfer:
 2161              	.LVL219:
 2162              	.LFB47:
 362:Drivers/STM32F0xx_HAL_Driver/Src/stm32f0xx_ll_usb.c ****   uint32_t len;
 2163              		.loc 1 362 1 is_stmt 1 view -0
 2164              		.cfi_startproc
 2165              		@ args = 0, pretend = 0, frame = 0
 2166              		@ frame_needed = 0, uses_anonymous_args = 0
 362:Drivers/STM32F0xx_HAL_Driver/Src/stm32f0xx_ll_usb.c ****   uint32_t len;
 2167              		.loc 1 362 1 is_stmt 0 view .LVU635
 2168 0000 70B5     		push	{r4, r5, r6, lr}
 2169              	.LCFI6:
 2170              		.cfi_def_cfa_offset 16
 2171              		.cfi_offset 4, -16
 2172              		.cfi_offset 5, -12
 2173              		.cfi_offset 6, -8
 2174              		.cfi_offset 14, -4
 2175 0002 0500     		movs	r5, r0
 2176 0004 0C00     		movs	r4, r1
 363:Drivers/STM32F0xx_HAL_Driver/Src/stm32f0xx_ll_usb.c ****   uint16_t pmabuffer;
 2177              		.loc 1 363 3 is_stmt 1 view .LVU636
 364:Drivers/STM32F0xx_HAL_Driver/Src/stm32f0xx_ll_usb.c ****   uint16_t wEPVal;
 2178              		.loc 1 364 3 view .LVU637
 365:Drivers/STM32F0xx_HAL_Driver/Src/stm32f0xx_ll_usb.c **** 
 2179              		.loc 1 365 3 view .LVU638
 368:Drivers/STM32F0xx_HAL_Driver/Src/stm32f0xx_ll_usb.c ****   {
 2180              		.loc 1 368 3 view .LVU639
 368:Drivers/STM32F0xx_HAL_Driver/Src/stm32f0xx_ll_usb.c ****   {
 2181              		.loc 1 368 9 is_stmt 0 view .LVU640
 2182 0006 4A78     		ldrb	r2, [r1, #1]
 368:Drivers/STM32F0xx_HAL_Driver/Src/stm32f0xx_ll_usb.c ****   {
 2183              		.loc 1 368 6 view .LVU641
 2184 0008 012A     		cmp	r2, #1
ARM GAS  /tmp/ccnaAMFS.s 			page 57


 2185 000a 2ED0     		beq	.L165
 502:Drivers/STM32F0xx_HAL_Driver/Src/stm32f0xx_ll_usb.c ****     {
 2186              		.loc 1 502 5 is_stmt 1 view .LVU642
 502:Drivers/STM32F0xx_HAL_Driver/Src/stm32f0xx_ll_usb.c ****     {
 2187              		.loc 1 502 11 is_stmt 0 view .LVU643
 2188 000c 0B7B     		ldrb	r3, [r1, #12]
 502:Drivers/STM32F0xx_HAL_Driver/Src/stm32f0xx_ll_usb.c ****     {
 2189              		.loc 1 502 8 view .LVU644
 2190 000e 002B     		cmp	r3, #0
 2191 0010 00D0     		beq	.LCB2235
 2192 0012 53E2     		b	.L131	@long jump
 2193              	.LCB2235:
 505:Drivers/STM32F0xx_HAL_Driver/Src/stm32f0xx_ll_usb.c ****       {
 2194              		.loc 1 505 7 is_stmt 1 view .LVU645
 505:Drivers/STM32F0xx_HAL_Driver/Src/stm32f0xx_ll_usb.c ****       {
 2195              		.loc 1 505 13 is_stmt 0 view .LVU646
 2196 0014 8B69     		ldr	r3, [r1, #24]
 505:Drivers/STM32F0xx_HAL_Driver/Src/stm32f0xx_ll_usb.c ****       {
 2197              		.loc 1 505 28 view .LVU647
 2198 0016 0A69     		ldr	r2, [r1, #16]
 505:Drivers/STM32F0xx_HAL_Driver/Src/stm32f0xx_ll_usb.c ****       {
 2199              		.loc 1 505 10 view .LVU648
 2200 0018 9342     		cmp	r3, r2
 2201 001a 00D8     		bhi	.LCB2240
 2202 001c 35E2     		b	.L132	@long jump
 2203              	.LCB2240:
 507:Drivers/STM32F0xx_HAL_Driver/Src/stm32f0xx_ll_usb.c ****         ep->xfer_len -= len;
 2204              		.loc 1 507 9 is_stmt 1 view .LVU649
 2205              	.LVL220:
 508:Drivers/STM32F0xx_HAL_Driver/Src/stm32f0xx_ll_usb.c ****       }
 2206              		.loc 1 508 9 view .LVU650
 508:Drivers/STM32F0xx_HAL_Driver/Src/stm32f0xx_ll_usb.c ****       }
 2207              		.loc 1 508 22 is_stmt 0 view .LVU651
 2208 001e 9B1A     		subs	r3, r3, r2
 2209 0020 8B61     		str	r3, [r1, #24]
 2210              	.L133:
 516:Drivers/STM32F0xx_HAL_Driver/Src/stm32f0xx_ll_usb.c ****     }
 2211              		.loc 1 516 7 is_stmt 1 view .LVU652
 2212              	.LBB61:
 516:Drivers/STM32F0xx_HAL_Driver/Src/stm32f0xx_ll_usb.c ****     }
 2213              		.loc 1 516 7 view .LVU653
 2214              	.LVL221:
 516:Drivers/STM32F0xx_HAL_Driver/Src/stm32f0xx_ll_usb.c ****     }
 2215              		.loc 1 516 7 view .LVU654
 516:Drivers/STM32F0xx_HAL_Driver/Src/stm32f0xx_ll_usb.c ****     }
 2216              		.loc 1 516 7 view .LVU655
 2217 0022 5023     		movs	r3, #80
 2218 0024 E95A     		ldrh	r1, [r5, r3]
 2219              	.LVL222:
 516:Drivers/STM32F0xx_HAL_Driver/Src/stm32f0xx_ll_usb.c ****     }
 2220              		.loc 1 516 7 is_stmt 0 view .LVU656
 2221 0026 6918     		adds	r1, r5, r1
 2222              	.LVL223:
 516:Drivers/STM32F0xx_HAL_Driver/Src/stm32f0xx_ll_usb.c ****     }
 2223              		.loc 1 516 7 is_stmt 1 view .LVU657
 2224 0028 2378     		ldrb	r3, [r4]
 2225 002a DB00     		lsls	r3, r3, #3
ARM GAS  /tmp/ccnaAMFS.s 			page 58


 2226 002c 5B18     		adds	r3, r3, r1
 2227 002e BA49     		ldr	r1, .L174
 2228              	.LVL224:
 516:Drivers/STM32F0xx_HAL_Driver/Src/stm32f0xx_ll_usb.c ****     }
 2229              		.loc 1 516 7 is_stmt 0 view .LVU658
 2230 0030 8C46     		mov	ip, r1
 2231 0032 6344     		add	r3, r3, ip
 2232              	.LVL225:
 516:Drivers/STM32F0xx_HAL_Driver/Src/stm32f0xx_ll_usb.c ****     }
 2233              		.loc 1 516 7 is_stmt 1 view .LVU659
 2234              	.LBB62:
 516:Drivers/STM32F0xx_HAL_Driver/Src/stm32f0xx_ll_usb.c ****     }
 2235              		.loc 1 516 7 view .LVU660
 516:Drivers/STM32F0xx_HAL_Driver/Src/stm32f0xx_ll_usb.c ****     }
 2236              		.loc 1 516 7 view .LVU661
 2237 0034 002A     		cmp	r2, #0
 2238 0036 00D0     		beq	.LCB2276
 2239 0038 2BE2     		b	.L134	@long jump
 2240              	.LCB2276:
 516:Drivers/STM32F0xx_HAL_Driver/Src/stm32f0xx_ll_usb.c ****     }
 2241              		.loc 1 516 7 discriminator 1 view .LVU662
 2242 003a 1A88     		ldrh	r2, [r3]
 2243              	.LVL226:
 516:Drivers/STM32F0xx_HAL_Driver/Src/stm32f0xx_ll_usb.c ****     }
 2244              		.loc 1 516 7 is_stmt 0 discriminator 1 view .LVU663
 2245 003c B749     		ldr	r1, .L174+4
 2246 003e 0A40     		ands	r2, r1
 2247 0040 1A80     		strh	r2, [r3]
 516:Drivers/STM32F0xx_HAL_Driver/Src/stm32f0xx_ll_usb.c ****     }
 2248              		.loc 1 516 7 is_stmt 1 discriminator 1 view .LVU664
 2249 0042 1A88     		ldrh	r2, [r3]
 2250 0044 B649     		ldr	r1, .L174+8
 2251 0046 0A43     		orrs	r2, r1
 2252 0048 92B2     		uxth	r2, r2
 2253 004a 1A80     		strh	r2, [r3]
 2254              	.LVL227:
 2255              	.L135:
 516:Drivers/STM32F0xx_HAL_Driver/Src/stm32f0xx_ll_usb.c ****     }
 2256              		.loc 1 516 7 is_stmt 0 discriminator 1 view .LVU665
 2257              	.LBE62:
 2258              	.LBE61:
 562:Drivers/STM32F0xx_HAL_Driver/Src/stm32f0xx_ll_usb.c ****   }
 2259              		.loc 1 562 5 is_stmt 1 view .LVU666
 2260              	.LBB64:
 562:Drivers/STM32F0xx_HAL_Driver/Src/stm32f0xx_ll_usb.c ****   }
 2261              		.loc 1 562 5 view .LVU667
 562:Drivers/STM32F0xx_HAL_Driver/Src/stm32f0xx_ll_usb.c ****   }
 2262              		.loc 1 562 5 view .LVU668
 2263 004c 2078     		ldrb	r0, [r4]
 2264 004e 8000     		lsls	r0, r0, #2
 2265 0050 2D18     		adds	r5, r5, r0
 2266              	.LVL228:
 562:Drivers/STM32F0xx_HAL_Driver/Src/stm32f0xx_ll_usb.c ****   }
 2267              		.loc 1 562 5 is_stmt 0 view .LVU669
 2268 0052 2A88     		ldrh	r2, [r5]
 2269 0054 B34B     		ldr	r3, .L174+12
 2270 0056 1A40     		ands	r2, r3
ARM GAS  /tmp/ccnaAMFS.s 			page 59


 2271              	.LVL229:
 562:Drivers/STM32F0xx_HAL_Driver/Src/stm32f0xx_ll_usb.c ****   }
 2272              		.loc 1 562 5 is_stmt 1 view .LVU670
 562:Drivers/STM32F0xx_HAL_Driver/Src/stm32f0xx_ll_usb.c ****   }
 2273              		.loc 1 562 5 view .LVU671
 562:Drivers/STM32F0xx_HAL_Driver/Src/stm32f0xx_ll_usb.c ****   }
 2274              		.loc 1 562 5 view .LVU672
 562:Drivers/STM32F0xx_HAL_Driver/Src/stm32f0xx_ll_usb.c ****   }
 2275              		.loc 1 562 5 view .LVU673
 2276 0058 C023     		movs	r3, #192
 2277 005a 9B01     		lsls	r3, r3, #6
 2278 005c 5A40     		eors	r2, r3
 2279              	.LVL230:
 562:Drivers/STM32F0xx_HAL_Driver/Src/stm32f0xx_ll_usb.c ****   }
 2280              		.loc 1 562 5 view .LVU674
 2281 005e B24B     		ldr	r3, .L174+16
 2282 0060 1343     		orrs	r3, r2
 2283 0062 9BB2     		uxth	r3, r3
 2284 0064 2B80     		strh	r3, [r5]
 2285              	.LBE64:
 565:Drivers/STM32F0xx_HAL_Driver/Src/stm32f0xx_ll_usb.c **** }
 2286              		.loc 1 565 10 is_stmt 0 view .LVU675
 2287 0066 0020     		movs	r0, #0
 2288              	.LVL231:
 2289              	.L130:
 566:Drivers/STM32F0xx_HAL_Driver/Src/stm32f0xx_ll_usb.c **** 
 2290              		.loc 1 566 1 view .LVU676
 2291              		@ sp needed
 2292              	.LVL232:
 566:Drivers/STM32F0xx_HAL_Driver/Src/stm32f0xx_ll_usb.c **** 
 2293              		.loc 1 566 1 view .LVU677
 2294 0068 70BD     		pop	{r4, r5, r6, pc}
 2295              	.LVL233:
 2296              	.L165:
 371:Drivers/STM32F0xx_HAL_Driver/Src/stm32f0xx_ll_usb.c ****     {
 2297              		.loc 1 371 5 is_stmt 1 view .LVU678
 371:Drivers/STM32F0xx_HAL_Driver/Src/stm32f0xx_ll_usb.c ****     {
 2298              		.loc 1 371 11 is_stmt 0 view .LVU679
 2299 006a 8E69     		ldr	r6, [r1, #24]
 371:Drivers/STM32F0xx_HAL_Driver/Src/stm32f0xx_ll_usb.c ****     {
 2300              		.loc 1 371 26 view .LVU680
 2301 006c 0969     		ldr	r1, [r1, #16]
 2302              	.LVL234:
 371:Drivers/STM32F0xx_HAL_Driver/Src/stm32f0xx_ll_usb.c ****     {
 2303              		.loc 1 371 8 view .LVU681
 2304 006e 8E42     		cmp	r6, r1
 2305 0070 00D9     		bls	.L83
 373:Drivers/STM32F0xx_HAL_Driver/Src/stm32f0xx_ll_usb.c ****     }
 2306              		.loc 1 373 11 view .LVU682
 2307 0072 0E00     		movs	r6, r1
 2308              	.L83:
 2309              	.LVL235:
 381:Drivers/STM32F0xx_HAL_Driver/Src/stm32f0xx_ll_usb.c ****     {
 2310              		.loc 1 381 5 is_stmt 1 view .LVU683
 381:Drivers/STM32F0xx_HAL_Driver/Src/stm32f0xx_ll_usb.c ****     {
 2311              		.loc 1 381 11 is_stmt 0 view .LVU684
 2312 0074 237B     		ldrb	r3, [r4, #12]
ARM GAS  /tmp/ccnaAMFS.s 			page 60


 381:Drivers/STM32F0xx_HAL_Driver/Src/stm32f0xx_ll_usb.c ****     {
 2313              		.loc 1 381 8 view .LVU685
 2314 0076 002B     		cmp	r3, #0
 2315 0078 24D0     		beq	.L166
 389:Drivers/STM32F0xx_HAL_Driver/Src/stm32f0xx_ll_usb.c ****       {
 2316              		.loc 1 389 7 is_stmt 1 view .LVU686
 389:Drivers/STM32F0xx_HAL_Driver/Src/stm32f0xx_ll_usb.c ****       {
 2317              		.loc 1 389 13 is_stmt 0 view .LVU687
 2318 007a E378     		ldrb	r3, [r4, #3]
 389:Drivers/STM32F0xx_HAL_Driver/Src/stm32f0xx_ll_usb.c ****       {
 2319              		.loc 1 389 10 view .LVU688
 2320 007c 022B     		cmp	r3, #2
 2321 007e 41D0     		beq	.L167
 474:Drivers/STM32F0xx_HAL_Driver/Src/stm32f0xx_ll_usb.c **** 
 2322              		.loc 1 474 9 is_stmt 1 view .LVU689
 474:Drivers/STM32F0xx_HAL_Driver/Src/stm32f0xx_ll_usb.c **** 
 2323              		.loc 1 474 25 is_stmt 0 view .LVU690
 2324 0080 236A     		ldr	r3, [r4, #32]
 2325 0082 9B1B     		subs	r3, r3, r6
 2326 0084 2362     		str	r3, [r4, #32]
 477:Drivers/STM32F0xx_HAL_Driver/Src/stm32f0xx_ll_usb.c ****         {
 2327              		.loc 1 477 9 is_stmt 1 view .LVU691
 477:Drivers/STM32F0xx_HAL_Driver/Src/stm32f0xx_ll_usb.c ****         {
 2328              		.loc 1 477 14 is_stmt 0 view .LVU692
 2329 0086 2378     		ldrb	r3, [r4]
 2330 0088 9900     		lsls	r1, r3, #2
 2331 008a 6918     		adds	r1, r5, r1
 2332 008c 0988     		ldrh	r1, [r1]
 477:Drivers/STM32F0xx_HAL_Driver/Src/stm32f0xx_ll_usb.c ****         {
 2333              		.loc 1 477 12 view .LVU693
 2334 008e 4906     		lsls	r1, r1, #25
 2335 0090 00D4     		bmi	.LCB2385
 2336 0092 BEE1     		b	.L117	@long jump
 2337              	.LCB2385:
 480:Drivers/STM32F0xx_HAL_Driver/Src/stm32f0xx_ll_usb.c ****           pmabuffer = ep->pmaaddr1;
 2338              		.loc 1 480 11 is_stmt 1 view .LVU694
 2339              	.LBB65:
 480:Drivers/STM32F0xx_HAL_Driver/Src/stm32f0xx_ll_usb.c ****           pmabuffer = ep->pmaaddr1;
 2340              		.loc 1 480 11 view .LVU695
 2341              	.LVL236:
 480:Drivers/STM32F0xx_HAL_Driver/Src/stm32f0xx_ll_usb.c ****           pmabuffer = ep->pmaaddr1;
 2342              		.loc 1 480 11 view .LVU696
 480:Drivers/STM32F0xx_HAL_Driver/Src/stm32f0xx_ll_usb.c ****           pmabuffer = ep->pmaaddr1;
 2343              		.loc 1 480 11 view .LVU697
 2344 0094 002A     		cmp	r2, #0
 2345 0096 00D0     		beq	.LCB2393
 2346 0098 AAE1     		b	.L118	@long jump
 2347              	.LCB2393:
 480:Drivers/STM32F0xx_HAL_Driver/Src/stm32f0xx_ll_usb.c ****           pmabuffer = ep->pmaaddr1;
 2348              		.loc 1 480 11 discriminator 1 view .LVU698
 2349              	.LBB66:
 480:Drivers/STM32F0xx_HAL_Driver/Src/stm32f0xx_ll_usb.c ****           pmabuffer = ep->pmaaddr1;
 2350              		.loc 1 480 11 discriminator 1 view .LVU699
 2351              	.LVL237:
 480:Drivers/STM32F0xx_HAL_Driver/Src/stm32f0xx_ll_usb.c ****           pmabuffer = ep->pmaaddr1;
 2352              		.loc 1 480 11 discriminator 1 view .LVU700
 480:Drivers/STM32F0xx_HAL_Driver/Src/stm32f0xx_ll_usb.c ****           pmabuffer = ep->pmaaddr1;
ARM GAS  /tmp/ccnaAMFS.s 			page 61


 2353              		.loc 1 480 11 discriminator 1 view .LVU701
 2354 009a 5032     		adds	r2, r2, #80
 2355 009c AA5A     		ldrh	r2, [r5, r2]
 2356 009e AA18     		adds	r2, r5, r2
 2357              	.LVL238:
 480:Drivers/STM32F0xx_HAL_Driver/Src/stm32f0xx_ll_usb.c ****           pmabuffer = ep->pmaaddr1;
 2358              		.loc 1 480 11 discriminator 1 view .LVU702
 2359 00a0 DB00     		lsls	r3, r3, #3
 2360 00a2 9B18     		adds	r3, r3, r2
 2361 00a4 9C4A     		ldr	r2, .L174
 2362              	.LVL239:
 480:Drivers/STM32F0xx_HAL_Driver/Src/stm32f0xx_ll_usb.c ****           pmabuffer = ep->pmaaddr1;
 2363              		.loc 1 480 11 is_stmt 0 discriminator 1 view .LVU703
 2364 00a6 9446     		mov	ip, r2
 2365 00a8 6344     		add	r3, r3, ip
 2366              	.LVL240:
 480:Drivers/STM32F0xx_HAL_Driver/Src/stm32f0xx_ll_usb.c ****           pmabuffer = ep->pmaaddr1;
 2367              		.loc 1 480 11 is_stmt 1 discriminator 1 view .LVU704
 2368              	.LBB67:
 480:Drivers/STM32F0xx_HAL_Driver/Src/stm32f0xx_ll_usb.c ****           pmabuffer = ep->pmaaddr1;
 2369              		.loc 1 480 11 discriminator 1 view .LVU705
 480:Drivers/STM32F0xx_HAL_Driver/Src/stm32f0xx_ll_usb.c ****           pmabuffer = ep->pmaaddr1;
 2370              		.loc 1 480 11 discriminator 1 view .LVU706
 2371 00aa 002E     		cmp	r6, #0
 2372 00ac 00D0     		beq	.LCB2418
 2373 00ae 8AE1     		b	.L119	@long jump
 2374              	.LCB2418:
 480:Drivers/STM32F0xx_HAL_Driver/Src/stm32f0xx_ll_usb.c ****           pmabuffer = ep->pmaaddr1;
 2375              		.loc 1 480 11 discriminator 3 view .LVU707
 2376 00b0 1A88     		ldrh	r2, [r3]
 2377 00b2 9A49     		ldr	r1, .L174+4
 2378 00b4 0A40     		ands	r2, r1
 2379 00b6 1A80     		strh	r2, [r3]
 480:Drivers/STM32F0xx_HAL_Driver/Src/stm32f0xx_ll_usb.c ****           pmabuffer = ep->pmaaddr1;
 2380              		.loc 1 480 11 discriminator 3 view .LVU708
 2381 00b8 1A88     		ldrh	r2, [r3]
 2382 00ba 9949     		ldr	r1, .L174+8
 2383 00bc 0A43     		orrs	r2, r1
 2384 00be 92B2     		uxth	r2, r2
 2385 00c0 1A80     		strh	r2, [r3]
 2386 00c2 9FE1     		b	.L120
 2387              	.LVL241:
 2388              	.L166:
 480:Drivers/STM32F0xx_HAL_Driver/Src/stm32f0xx_ll_usb.c ****           pmabuffer = ep->pmaaddr1;
 2389              		.loc 1 480 11 is_stmt 0 discriminator 3 view .LVU709
 2390              	.LBE67:
 2391              	.LBE66:
 2392              	.LBE65:
 383:Drivers/STM32F0xx_HAL_Driver/Src/stm32f0xx_ll_usb.c ****       PCD_SET_EP_TX_CNT(USBx, ep->num, len);
 2393              		.loc 1 383 7 is_stmt 1 view .LVU710
 2394 00c4 B6B2     		uxth	r6, r6
 2395              	.LVL242:
 383:Drivers/STM32F0xx_HAL_Driver/Src/stm32f0xx_ll_usb.c ****       PCD_SET_EP_TX_CNT(USBx, ep->num, len);
 2396              		.loc 1 383 7 is_stmt 0 view .LVU711
 2397 00c6 E288     		ldrh	r2, [r4, #6]
 2398 00c8 3300     		movs	r3, r6
 2399 00ca 6169     		ldr	r1, [r4, #20]
ARM GAS  /tmp/ccnaAMFS.s 			page 62


 2400 00cc 2800     		movs	r0, r5
 2401              	.LVL243:
 383:Drivers/STM32F0xx_HAL_Driver/Src/stm32f0xx_ll_usb.c ****       PCD_SET_EP_TX_CNT(USBx, ep->num, len);
 2402              		.loc 1 383 7 view .LVU712
 2403 00ce FFF7FEFF 		bl	USB_WritePMA
 2404              	.LVL244:
 384:Drivers/STM32F0xx_HAL_Driver/Src/stm32f0xx_ll_usb.c ****     }
 2405              		.loc 1 384 7 is_stmt 1 view .LVU713
 2406              	.LBB70:
 384:Drivers/STM32F0xx_HAL_Driver/Src/stm32f0xx_ll_usb.c ****     }
 2407              		.loc 1 384 7 view .LVU714
 384:Drivers/STM32F0xx_HAL_Driver/Src/stm32f0xx_ll_usb.c ****     }
 2408              		.loc 1 384 7 view .LVU715
 384:Drivers/STM32F0xx_HAL_Driver/Src/stm32f0xx_ll_usb.c ****     }
 2409              		.loc 1 384 7 view .LVU716
 2410 00d2 5023     		movs	r3, #80
 2411 00d4 EA5A     		ldrh	r2, [r5, r3]
 2412 00d6 AA18     		adds	r2, r5, r2
 2413              	.LVL245:
 384:Drivers/STM32F0xx_HAL_Driver/Src/stm32f0xx_ll_usb.c ****     }
 2414              		.loc 1 384 7 view .LVU717
 2415 00d8 2378     		ldrb	r3, [r4]
 2416 00da DB00     		lsls	r3, r3, #3
 2417 00dc 9B18     		adds	r3, r3, r2
 2418 00de 934A     		ldr	r2, .L174+20
 2419              	.LVL246:
 384:Drivers/STM32F0xx_HAL_Driver/Src/stm32f0xx_ll_usb.c ****     }
 2420              		.loc 1 384 7 is_stmt 0 view .LVU718
 2421 00e0 9446     		mov	ip, r2
 2422 00e2 6344     		add	r3, r3, ip
 2423              	.LVL247:
 384:Drivers/STM32F0xx_HAL_Driver/Src/stm32f0xx_ll_usb.c ****     }
 2424              		.loc 1 384 7 is_stmt 1 view .LVU719
 2425 00e4 1E80     		strh	r6, [r3]
 2426              	.LBE70:
 384:Drivers/STM32F0xx_HAL_Driver/Src/stm32f0xx_ll_usb.c ****     }
 2427              		.loc 1 384 7 view .LVU720
 2428              	.LVL248:
 2429              	.L85:
 498:Drivers/STM32F0xx_HAL_Driver/Src/stm32f0xx_ll_usb.c ****   }
 2430              		.loc 1 498 5 view .LVU721
 2431              	.LBB71:
 498:Drivers/STM32F0xx_HAL_Driver/Src/stm32f0xx_ll_usb.c ****   }
 2432              		.loc 1 498 5 view .LVU722
 498:Drivers/STM32F0xx_HAL_Driver/Src/stm32f0xx_ll_usb.c ****   }
 2433              		.loc 1 498 5 view .LVU723
 2434 00e6 2078     		ldrb	r0, [r4]
 2435 00e8 8000     		lsls	r0, r0, #2
 2436 00ea 2D18     		adds	r5, r5, r0
 2437              	.LVL249:
 498:Drivers/STM32F0xx_HAL_Driver/Src/stm32f0xx_ll_usb.c ****   }
 2438              		.loc 1 498 5 is_stmt 0 view .LVU724
 2439 00ec 2B88     		ldrh	r3, [r5]
 2440 00ee 904A     		ldr	r2, .L174+24
 2441 00f0 1340     		ands	r3, r2
 2442              	.LVL250:
 498:Drivers/STM32F0xx_HAL_Driver/Src/stm32f0xx_ll_usb.c ****   }
ARM GAS  /tmp/ccnaAMFS.s 			page 63


 2443              		.loc 1 498 5 is_stmt 1 view .LVU725
 498:Drivers/STM32F0xx_HAL_Driver/Src/stm32f0xx_ll_usb.c ****   }
 2444              		.loc 1 498 5 view .LVU726
 498:Drivers/STM32F0xx_HAL_Driver/Src/stm32f0xx_ll_usb.c ****   }
 2445              		.loc 1 498 5 view .LVU727
 498:Drivers/STM32F0xx_HAL_Driver/Src/stm32f0xx_ll_usb.c ****   }
 2446              		.loc 1 498 5 view .LVU728
 2447 00f2 3022     		movs	r2, #48
 2448 00f4 5340     		eors	r3, r2
 2449              	.LVL251:
 498:Drivers/STM32F0xx_HAL_Driver/Src/stm32f0xx_ll_usb.c ****   }
 2450              		.loc 1 498 5 is_stmt 0 view .LVU729
 2451 00f6 9BB2     		uxth	r3, r3
 2452              	.LVL252:
 498:Drivers/STM32F0xx_HAL_Driver/Src/stm32f0xx_ll_usb.c ****   }
 2453              		.loc 1 498 5 is_stmt 1 view .LVU730
 2454 00f8 8B4A     		ldr	r2, .L174+16
 2455 00fa 1343     		orrs	r3, r2
 2456              	.LVL253:
 498:Drivers/STM32F0xx_HAL_Driver/Src/stm32f0xx_ll_usb.c ****   }
 2457              		.loc 1 498 5 is_stmt 0 view .LVU731
 2458 00fc 9BB2     		uxth	r3, r3
 2459 00fe 2B80     		strh	r3, [r5]
 2460              	.LBE71:
 498:Drivers/STM32F0xx_HAL_Driver/Src/stm32f0xx_ll_usb.c ****   }
 2461              		.loc 1 498 5 is_stmt 1 view .LVU732
 565:Drivers/STM32F0xx_HAL_Driver/Src/stm32f0xx_ll_usb.c **** }
 2462              		.loc 1 565 10 is_stmt 0 view .LVU733
 2463 0100 0020     		movs	r0, #0
 2464 0102 B1E7     		b	.L130
 2465              	.LVL254:
 2466              	.L167:
 391:Drivers/STM32F0xx_HAL_Driver/Src/stm32f0xx_ll_usb.c ****         {
 2467              		.loc 1 391 9 is_stmt 1 view .LVU734
 391:Drivers/STM32F0xx_HAL_Driver/Src/stm32f0xx_ll_usb.c ****         {
 2468              		.loc 1 391 15 is_stmt 0 view .LVU735
 2469 0104 236A     		ldr	r3, [r4, #32]
 391:Drivers/STM32F0xx_HAL_Driver/Src/stm32f0xx_ll_usb.c ****         {
 2470              		.loc 1 391 12 view .LVU736
 2471 0106 9942     		cmp	r1, r3
 2472 0108 00D3     		bcc	.LCB2529
 2473 010a 41E1     		b	.L87	@long jump
 2474              	.LCB2529:
 394:Drivers/STM32F0xx_HAL_Driver/Src/stm32f0xx_ll_usb.c **** 
 2475              		.loc 1 394 11 is_stmt 1 view .LVU737
 2476              	.LBB72:
 394:Drivers/STM32F0xx_HAL_Driver/Src/stm32f0xx_ll_usb.c **** 
 2477              		.loc 1 394 11 view .LVU738
 394:Drivers/STM32F0xx_HAL_Driver/Src/stm32f0xx_ll_usb.c **** 
 2478              		.loc 1 394 11 view .LVU739
 2479 010c 2378     		ldrb	r3, [r4]
 2480 010e 9B00     		lsls	r3, r3, #2
 2481 0110 EB18     		adds	r3, r5, r3
 2482 0112 1A88     		ldrh	r2, [r3]
 2483 0114 8749     		ldr	r1, .L174+28
 2484 0116 1140     		ands	r1, r2
 2485              	.LVL255:
ARM GAS  /tmp/ccnaAMFS.s 			page 64


 394:Drivers/STM32F0xx_HAL_Driver/Src/stm32f0xx_ll_usb.c **** 
 2486              		.loc 1 394 11 view .LVU740
 2487 0118 874A     		ldr	r2, .L174+32
 2488 011a 0A43     		orrs	r2, r1
 2489 011c 92B2     		uxth	r2, r2
 2490 011e 1A80     		strh	r2, [r3]
 2491              	.LBE72:
 394:Drivers/STM32F0xx_HAL_Driver/Src/stm32f0xx_ll_usb.c **** 
 2492              		.loc 1 394 11 view .LVU741
 397:Drivers/STM32F0xx_HAL_Driver/Src/stm32f0xx_ll_usb.c **** 
 2493              		.loc 1 397 11 view .LVU742
 397:Drivers/STM32F0xx_HAL_Driver/Src/stm32f0xx_ll_usb.c **** 
 2494              		.loc 1 397 27 is_stmt 0 view .LVU743
 2495 0120 236A     		ldr	r3, [r4, #32]
 2496 0122 9B1B     		subs	r3, r3, r6
 2497 0124 2362     		str	r3, [r4, #32]
 400:Drivers/STM32F0xx_HAL_Driver/Src/stm32f0xx_ll_usb.c ****           {
 2498              		.loc 1 400 11 is_stmt 1 view .LVU744
 400:Drivers/STM32F0xx_HAL_Driver/Src/stm32f0xx_ll_usb.c ****           {
 2499              		.loc 1 400 16 is_stmt 0 view .LVU745
 2500 0126 2378     		ldrb	r3, [r4]
 2501 0128 9A00     		lsls	r2, r3, #2
 2502 012a AA18     		adds	r2, r5, r2
 2503 012c 1288     		ldrh	r2, [r2]
 400:Drivers/STM32F0xx_HAL_Driver/Src/stm32f0xx_ll_usb.c ****           {
 2504              		.loc 1 400 14 view .LVU746
 2505 012e 5206     		lsls	r2, r2, #25
 2506 0130 00D4     		bmi	.LCB2565
 2507 0132 8DE0     		b	.L88	@long jump
 2508              	.LCB2565:
 403:Drivers/STM32F0xx_HAL_Driver/Src/stm32f0xx_ll_usb.c ****             pmabuffer = ep->pmaaddr1;
 2509              		.loc 1 403 13 is_stmt 1 view .LVU747
 2510              	.LBB73:
 403:Drivers/STM32F0xx_HAL_Driver/Src/stm32f0xx_ll_usb.c ****             pmabuffer = ep->pmaaddr1;
 2511              		.loc 1 403 13 view .LVU748
 2512              	.LVL256:
 403:Drivers/STM32F0xx_HAL_Driver/Src/stm32f0xx_ll_usb.c ****             pmabuffer = ep->pmaaddr1;
 2513              		.loc 1 403 13 view .LVU749
 403:Drivers/STM32F0xx_HAL_Driver/Src/stm32f0xx_ll_usb.c ****             pmabuffer = ep->pmaaddr1;
 2514              		.loc 1 403 13 view .LVU750
 2515 0134 6278     		ldrb	r2, [r4, #1]
 2516 0136 002A     		cmp	r2, #0
 2517 0138 28D1     		bne	.L89
 403:Drivers/STM32F0xx_HAL_Driver/Src/stm32f0xx_ll_usb.c ****             pmabuffer = ep->pmaaddr1;
 2518              		.loc 1 403 13 discriminator 1 view .LVU751
 2519              	.LBB74:
 403:Drivers/STM32F0xx_HAL_Driver/Src/stm32f0xx_ll_usb.c ****             pmabuffer = ep->pmaaddr1;
 2520              		.loc 1 403 13 discriminator 1 view .LVU752
 2521              	.LVL257:
 403:Drivers/STM32F0xx_HAL_Driver/Src/stm32f0xx_ll_usb.c ****             pmabuffer = ep->pmaaddr1;
 2522              		.loc 1 403 13 discriminator 1 view .LVU753
 403:Drivers/STM32F0xx_HAL_Driver/Src/stm32f0xx_ll_usb.c ****             pmabuffer = ep->pmaaddr1;
 2523              		.loc 1 403 13 discriminator 1 view .LVU754
 2524 013a 5032     		adds	r2, r2, #80
 2525 013c AA5A     		ldrh	r2, [r5, r2]
 2526 013e AA18     		adds	r2, r5, r2
 2527              	.LVL258:
ARM GAS  /tmp/ccnaAMFS.s 			page 65


 403:Drivers/STM32F0xx_HAL_Driver/Src/stm32f0xx_ll_usb.c ****             pmabuffer = ep->pmaaddr1;
 2528              		.loc 1 403 13 discriminator 1 view .LVU755
 2529 0140 DB00     		lsls	r3, r3, #3
 2530 0142 9B18     		adds	r3, r3, r2
 2531 0144 744A     		ldr	r2, .L174
 2532              	.LVL259:
 403:Drivers/STM32F0xx_HAL_Driver/Src/stm32f0xx_ll_usb.c ****             pmabuffer = ep->pmaaddr1;
 2533              		.loc 1 403 13 is_stmt 0 discriminator 1 view .LVU756
 2534 0146 9446     		mov	ip, r2
 2535 0148 6344     		add	r3, r3, ip
 2536              	.LVL260:
 403:Drivers/STM32F0xx_HAL_Driver/Src/stm32f0xx_ll_usb.c ****             pmabuffer = ep->pmaaddr1;
 2537              		.loc 1 403 13 is_stmt 1 discriminator 1 view .LVU757
 2538              	.LBB75:
 403:Drivers/STM32F0xx_HAL_Driver/Src/stm32f0xx_ll_usb.c ****             pmabuffer = ep->pmaaddr1;
 2539              		.loc 1 403 13 discriminator 1 view .LVU758
 403:Drivers/STM32F0xx_HAL_Driver/Src/stm32f0xx_ll_usb.c ****             pmabuffer = ep->pmaaddr1;
 2540              		.loc 1 403 13 discriminator 1 view .LVU759
 2541 014a 002E     		cmp	r6, #0
 2542 014c 09D1     		bne	.L90
 403:Drivers/STM32F0xx_HAL_Driver/Src/stm32f0xx_ll_usb.c ****             pmabuffer = ep->pmaaddr1;
 2543              		.loc 1 403 13 discriminator 3 view .LVU760
 2544 014e 1A88     		ldrh	r2, [r3]
 2545 0150 7249     		ldr	r1, .L174+4
 2546              	.LVL261:
 403:Drivers/STM32F0xx_HAL_Driver/Src/stm32f0xx_ll_usb.c ****             pmabuffer = ep->pmaaddr1;
 2547              		.loc 1 403 13 is_stmt 0 discriminator 3 view .LVU761
 2548 0152 0A40     		ands	r2, r1
 2549 0154 1A80     		strh	r2, [r3]
 403:Drivers/STM32F0xx_HAL_Driver/Src/stm32f0xx_ll_usb.c ****             pmabuffer = ep->pmaaddr1;
 2550              		.loc 1 403 13 is_stmt 1 discriminator 3 view .LVU762
 2551 0156 1A88     		ldrh	r2, [r3]
 2552 0158 7149     		ldr	r1, .L174+8
 2553 015a 0A43     		orrs	r2, r1
 2554 015c 92B2     		uxth	r2, r2
 2555 015e 1A80     		strh	r2, [r3]
 2556 0160 16E0     		b	.L91
 2557              	.LVL262:
 2558              	.L90:
 403:Drivers/STM32F0xx_HAL_Driver/Src/stm32f0xx_ll_usb.c ****             pmabuffer = ep->pmaaddr1;
 2559              		.loc 1 403 13 discriminator 4 view .LVU763
 2560 0162 3E2E     		cmp	r6, #62
 2561 0164 07D8     		bhi	.L92
 403:Drivers/STM32F0xx_HAL_Driver/Src/stm32f0xx_ll_usb.c ****             pmabuffer = ep->pmaaddr1;
 2562              		.loc 1 403 13 discriminator 6 view .LVU764
 403:Drivers/STM32F0xx_HAL_Driver/Src/stm32f0xx_ll_usb.c ****             pmabuffer = ep->pmaaddr1;
 2563              		.loc 1 403 13 discriminator 6 view .LVU765
 2564 0166 7208     		lsrs	r2, r6, #1
 2565              	.LVL263:
 403:Drivers/STM32F0xx_HAL_Driver/Src/stm32f0xx_ll_usb.c ****             pmabuffer = ep->pmaaddr1;
 2566              		.loc 1 403 13 discriminator 6 view .LVU766
 2567 0168 F107     		lsls	r1, r6, #31
 2568 016a 00D5     		bpl	.L93
 2569              	.LVL264:
 403:Drivers/STM32F0xx_HAL_Driver/Src/stm32f0xx_ll_usb.c ****             pmabuffer = ep->pmaaddr1;
 2570              		.loc 1 403 13 discriminator 8 view .LVU767
 2571 016c 0132     		adds	r2, r2, #1
ARM GAS  /tmp/ccnaAMFS.s 			page 66


 2572              	.LVL265:
 2573              	.L93:
 403:Drivers/STM32F0xx_HAL_Driver/Src/stm32f0xx_ll_usb.c ****             pmabuffer = ep->pmaaddr1;
 2574              		.loc 1 403 13 discriminator 10 view .LVU768
 2575 016e 9202     		lsls	r2, r2, #10
 2576              	.LVL266:
 403:Drivers/STM32F0xx_HAL_Driver/Src/stm32f0xx_ll_usb.c ****             pmabuffer = ep->pmaaddr1;
 2577              		.loc 1 403 13 is_stmt 0 discriminator 10 view .LVU769
 2578 0170 92B2     		uxth	r2, r2
 2579 0172 1A80     		strh	r2, [r3]
 403:Drivers/STM32F0xx_HAL_Driver/Src/stm32f0xx_ll_usb.c ****             pmabuffer = ep->pmaaddr1;
 2580              		.loc 1 403 13 is_stmt 1 discriminator 10 view .LVU770
 2581 0174 0CE0     		b	.L91
 2582              	.LVL267:
 2583              	.L92:
 403:Drivers/STM32F0xx_HAL_Driver/Src/stm32f0xx_ll_usb.c ****             pmabuffer = ep->pmaaddr1;
 2584              		.loc 1 403 13 discriminator 7 view .LVU771
 403:Drivers/STM32F0xx_HAL_Driver/Src/stm32f0xx_ll_usb.c ****             pmabuffer = ep->pmaaddr1;
 2585              		.loc 1 403 13 discriminator 7 view .LVU772
 2586 0176 7209     		lsrs	r2, r6, #5
 2587              	.LVL268:
 403:Drivers/STM32F0xx_HAL_Driver/Src/stm32f0xx_ll_usb.c ****             pmabuffer = ep->pmaaddr1;
 2588              		.loc 1 403 13 discriminator 7 view .LVU773
 2589 0178 F106     		lsls	r1, r6, #27
 2590 017a 00D1     		bne	.L94
 2591              	.LVL269:
 403:Drivers/STM32F0xx_HAL_Driver/Src/stm32f0xx_ll_usb.c ****             pmabuffer = ep->pmaaddr1;
 2592              		.loc 1 403 13 discriminator 12 view .LVU774
 2593 017c 013A     		subs	r2, r2, #1
 2594              	.LVL270:
 2595              	.L94:
 403:Drivers/STM32F0xx_HAL_Driver/Src/stm32f0xx_ll_usb.c ****             pmabuffer = ep->pmaaddr1;
 2596              		.loc 1 403 13 discriminator 14 view .LVU775
 2597 017e 9202     		lsls	r2, r2, #10
 2598              	.LVL271:
 403:Drivers/STM32F0xx_HAL_Driver/Src/stm32f0xx_ll_usb.c ****             pmabuffer = ep->pmaaddr1;
 2599              		.loc 1 403 13 is_stmt 0 discriminator 14 view .LVU776
 2600 0180 92B2     		uxth	r2, r2
 2601 0182 6749     		ldr	r1, .L174+8
 2602 0184 0A43     		orrs	r2, r1
 2603 0186 92B2     		uxth	r2, r2
 2604 0188 1A80     		strh	r2, [r3]
 2605 018a 01E0     		b	.L91
 2606              	.LVL272:
 2607              	.L89:
 403:Drivers/STM32F0xx_HAL_Driver/Src/stm32f0xx_ll_usb.c ****             pmabuffer = ep->pmaaddr1;
 2608              		.loc 1 403 13 discriminator 14 view .LVU777
 2609              	.LBE75:
 2610              	.LBE74:
 403:Drivers/STM32F0xx_HAL_Driver/Src/stm32f0xx_ll_usb.c ****             pmabuffer = ep->pmaaddr1;
 2611              		.loc 1 403 13 is_stmt 1 discriminator 2 view .LVU778
 2612 018c 012A     		cmp	r2, #1
 2613 018e 26D0     		beq	.L168
 2614              	.LVL273:
 2615              	.L91:
 403:Drivers/STM32F0xx_HAL_Driver/Src/stm32f0xx_ll_usb.c ****             pmabuffer = ep->pmaaddr1;
 2616              		.loc 1 403 13 is_stmt 0 discriminator 2 view .LVU779
ARM GAS  /tmp/ccnaAMFS.s 			page 67


 2617              	.LBE73:
 403:Drivers/STM32F0xx_HAL_Driver/Src/stm32f0xx_ll_usb.c ****             pmabuffer = ep->pmaaddr1;
 2618              		.loc 1 403 13 is_stmt 1 discriminator 18 view .LVU780
 404:Drivers/STM32F0xx_HAL_Driver/Src/stm32f0xx_ll_usb.c **** 
 2619              		.loc 1 404 13 discriminator 18 view .LVU781
 404:Drivers/STM32F0xx_HAL_Driver/Src/stm32f0xx_ll_usb.c **** 
 2620              		.loc 1 404 23 is_stmt 0 discriminator 18 view .LVU782
 2621 0190 6289     		ldrh	r2, [r4, #10]
 2622              	.LVL274:
 407:Drivers/STM32F0xx_HAL_Driver/Src/stm32f0xx_ll_usb.c ****             ep->xfer_buff += len;
 2623              		.loc 1 407 13 is_stmt 1 discriminator 18 view .LVU783
 2624 0192 B3B2     		uxth	r3, r6
 2625 0194 6169     		ldr	r1, [r4, #20]
 2626 0196 2800     		movs	r0, r5
 2627              	.LVL275:
 407:Drivers/STM32F0xx_HAL_Driver/Src/stm32f0xx_ll_usb.c ****             ep->xfer_buff += len;
 2628              		.loc 1 407 13 is_stmt 0 discriminator 18 view .LVU784
 2629 0198 FFF7FEFF 		bl	USB_WritePMA
 2630              	.LVL276:
 408:Drivers/STM32F0xx_HAL_Driver/Src/stm32f0xx_ll_usb.c **** 
 2631              		.loc 1 408 13 is_stmt 1 discriminator 18 view .LVU785
 408:Drivers/STM32F0xx_HAL_Driver/Src/stm32f0xx_ll_usb.c **** 
 2632              		.loc 1 408 27 is_stmt 0 discriminator 18 view .LVU786
 2633 019c 6369     		ldr	r3, [r4, #20]
 2634 019e 9B19     		adds	r3, r3, r6
 2635 01a0 6361     		str	r3, [r4, #20]
 410:Drivers/STM32F0xx_HAL_Driver/Src/stm32f0xx_ll_usb.c ****             {
 2636              		.loc 1 410 13 is_stmt 1 discriminator 18 view .LVU787
 410:Drivers/STM32F0xx_HAL_Driver/Src/stm32f0xx_ll_usb.c ****             {
 2637              		.loc 1 410 19 is_stmt 0 discriminator 18 view .LVU788
 2638 01a2 236A     		ldr	r3, [r4, #32]
 410:Drivers/STM32F0xx_HAL_Driver/Src/stm32f0xx_ll_usb.c ****             {
 2639              		.loc 1 410 16 discriminator 18 view .LVU789
 2640 01a4 2269     		ldr	r2, [r4, #16]
 2641 01a6 9342     		cmp	r3, r2
 2642 01a8 24D9     		bls	.L95
 412:Drivers/STM32F0xx_HAL_Driver/Src/stm32f0xx_ll_usb.c ****             }
 2643              		.loc 1 412 15 is_stmt 1 view .LVU790
 412:Drivers/STM32F0xx_HAL_Driver/Src/stm32f0xx_ll_usb.c ****             }
 2644              		.loc 1 412 31 is_stmt 0 view .LVU791
 2645 01aa 9B1B     		subs	r3, r3, r6
 2646 01ac 2362     		str	r3, [r4, #32]
 2647              	.L96:
 421:Drivers/STM32F0xx_HAL_Driver/Src/stm32f0xx_ll_usb.c ****             pmabuffer = ep->pmaaddr0;
 2648              		.loc 1 421 13 is_stmt 1 view .LVU792
 421:Drivers/STM32F0xx_HAL_Driver/Src/stm32f0xx_ll_usb.c ****             pmabuffer = ep->pmaaddr0;
 2649              		.loc 1 421 13 view .LVU793
 2650 01ae 6378     		ldrb	r3, [r4, #1]
 2651 01b0 002B     		cmp	r3, #0
 2652 01b2 38D1     		bne	.L97
 421:Drivers/STM32F0xx_HAL_Driver/Src/stm32f0xx_ll_usb.c ****             pmabuffer = ep->pmaaddr0;
 2653              		.loc 1 421 13 discriminator 1 view .LVU794
 2654              	.LBB76:
 421:Drivers/STM32F0xx_HAL_Driver/Src/stm32f0xx_ll_usb.c ****             pmabuffer = ep->pmaaddr0;
 2655              		.loc 1 421 13 discriminator 1 view .LVU795
 2656              	.LVL277:
 421:Drivers/STM32F0xx_HAL_Driver/Src/stm32f0xx_ll_usb.c ****             pmabuffer = ep->pmaaddr0;
ARM GAS  /tmp/ccnaAMFS.s 			page 68


 2657              		.loc 1 421 13 discriminator 1 view .LVU796
 421:Drivers/STM32F0xx_HAL_Driver/Src/stm32f0xx_ll_usb.c ****             pmabuffer = ep->pmaaddr0;
 2658              		.loc 1 421 13 discriminator 1 view .LVU797
 2659 01b4 5033     		adds	r3, r3, #80
 2660 01b6 EA5A     		ldrh	r2, [r5, r3]
 2661 01b8 AA18     		adds	r2, r5, r2
 2662              	.LVL278:
 421:Drivers/STM32F0xx_HAL_Driver/Src/stm32f0xx_ll_usb.c ****             pmabuffer = ep->pmaaddr0;
 2663              		.loc 1 421 13 discriminator 1 view .LVU798
 2664 01ba 2378     		ldrb	r3, [r4]
 2665 01bc DB00     		lsls	r3, r3, #3
 2666 01be 9B18     		adds	r3, r3, r2
 2667 01c0 5A4A     		ldr	r2, .L174+20
 2668              	.LVL279:
 421:Drivers/STM32F0xx_HAL_Driver/Src/stm32f0xx_ll_usb.c ****             pmabuffer = ep->pmaaddr0;
 2669              		.loc 1 421 13 is_stmt 0 discriminator 1 view .LVU799
 2670 01c2 9446     		mov	ip, r2
 2671 01c4 6344     		add	r3, r3, ip
 2672              	.LVL280:
 421:Drivers/STM32F0xx_HAL_Driver/Src/stm32f0xx_ll_usb.c ****             pmabuffer = ep->pmaaddr0;
 2673              		.loc 1 421 13 is_stmt 1 discriminator 1 view .LVU800
 2674              	.LBB77:
 421:Drivers/STM32F0xx_HAL_Driver/Src/stm32f0xx_ll_usb.c ****             pmabuffer = ep->pmaaddr0;
 2675              		.loc 1 421 13 discriminator 1 view .LVU801
 421:Drivers/STM32F0xx_HAL_Driver/Src/stm32f0xx_ll_usb.c ****             pmabuffer = ep->pmaaddr0;
 2676              		.loc 1 421 13 discriminator 1 view .LVU802
 2677 01c6 002E     		cmp	r6, #0
 2678 01c8 18D1     		bne	.L98
 421:Drivers/STM32F0xx_HAL_Driver/Src/stm32f0xx_ll_usb.c ****             pmabuffer = ep->pmaaddr0;
 2679              		.loc 1 421 13 discriminator 3 view .LVU803
 2680 01ca 1A88     		ldrh	r2, [r3]
 2681 01cc 5349     		ldr	r1, .L174+4
 2682 01ce 0A40     		ands	r2, r1
 2683 01d0 1A80     		strh	r2, [r3]
 421:Drivers/STM32F0xx_HAL_Driver/Src/stm32f0xx_ll_usb.c ****             pmabuffer = ep->pmaaddr0;
 2684              		.loc 1 421 13 discriminator 3 view .LVU804
 2685 01d2 1A88     		ldrh	r2, [r3]
 2686 01d4 5249     		ldr	r1, .L174+8
 2687 01d6 0A43     		orrs	r2, r1
 2688 01d8 92B2     		uxth	r2, r2
 2689 01da 1A80     		strh	r2, [r3]
 2690 01dc 25E0     		b	.L99
 2691              	.LVL281:
 2692              	.L168:
 421:Drivers/STM32F0xx_HAL_Driver/Src/stm32f0xx_ll_usb.c ****             pmabuffer = ep->pmaaddr0;
 2693              		.loc 1 421 13 is_stmt 0 discriminator 3 view .LVU805
 2694              	.LBE77:
 2695              	.LBE76:
 2696              	.LBB79:
 403:Drivers/STM32F0xx_HAL_Driver/Src/stm32f0xx_ll_usb.c ****             pmabuffer = ep->pmaaddr1;
 2697              		.loc 1 403 13 is_stmt 1 discriminator 16 view .LVU806
 2698 01de 4F32     		adds	r2, r2, #79
 2699 01e0 AA5A     		ldrh	r2, [r5, r2]
 2700 01e2 AA18     		adds	r2, r5, r2
 2701              	.LVL282:
 403:Drivers/STM32F0xx_HAL_Driver/Src/stm32f0xx_ll_usb.c ****             pmabuffer = ep->pmaaddr1;
 2702              		.loc 1 403 13 discriminator 16 view .LVU807
ARM GAS  /tmp/ccnaAMFS.s 			page 69


 2703 01e4 DB00     		lsls	r3, r3, #3
 2704 01e6 9B18     		adds	r3, r3, r2
 2705 01e8 4B4A     		ldr	r2, .L174
 2706              	.LVL283:
 403:Drivers/STM32F0xx_HAL_Driver/Src/stm32f0xx_ll_usb.c ****             pmabuffer = ep->pmaaddr1;
 2707              		.loc 1 403 13 is_stmt 0 discriminator 16 view .LVU808
 2708 01ea 9446     		mov	ip, r2
 2709 01ec 6344     		add	r3, r3, ip
 2710              	.LVL284:
 403:Drivers/STM32F0xx_HAL_Driver/Src/stm32f0xx_ll_usb.c ****             pmabuffer = ep->pmaaddr1;
 2711              		.loc 1 403 13 is_stmt 1 discriminator 16 view .LVU809
 2712 01ee B2B2     		uxth	r2, r6
 2713 01f0 1A80     		strh	r2, [r3]
 2714 01f2 CDE7     		b	.L91
 2715              	.LVL285:
 2716              	.L95:
 403:Drivers/STM32F0xx_HAL_Driver/Src/stm32f0xx_ll_usb.c ****             pmabuffer = ep->pmaaddr1;
 2717              		.loc 1 403 13 is_stmt 0 discriminator 16 view .LVU810
 2718              	.LBE79:
 416:Drivers/STM32F0xx_HAL_Driver/Src/stm32f0xx_ll_usb.c ****               ep->xfer_len_db = 0U;
 2719              		.loc 1 416 15 is_stmt 1 view .LVU811
 417:Drivers/STM32F0xx_HAL_Driver/Src/stm32f0xx_ll_usb.c ****             }
 2720              		.loc 1 417 15 view .LVU812
 417:Drivers/STM32F0xx_HAL_Driver/Src/stm32f0xx_ll_usb.c ****             }
 2721              		.loc 1 417 31 is_stmt 0 view .LVU813
 2722 01f4 0022     		movs	r2, #0
 2723 01f6 2262     		str	r2, [r4, #32]
 416:Drivers/STM32F0xx_HAL_Driver/Src/stm32f0xx_ll_usb.c ****               ep->xfer_len_db = 0U;
 2724              		.loc 1 416 19 view .LVU814
 2725 01f8 1E00     		movs	r6, r3
 2726 01fa D8E7     		b	.L96
 2727              	.LVL286:
 2728              	.L98:
 2729              	.LBB80:
 2730              	.LBB78:
 421:Drivers/STM32F0xx_HAL_Driver/Src/stm32f0xx_ll_usb.c ****             pmabuffer = ep->pmaaddr0;
 2731              		.loc 1 421 13 is_stmt 1 discriminator 4 view .LVU815
 2732 01fc 3E2E     		cmp	r6, #62
 2733 01fe 07D8     		bhi	.L100
 421:Drivers/STM32F0xx_HAL_Driver/Src/stm32f0xx_ll_usb.c ****             pmabuffer = ep->pmaaddr0;
 2734              		.loc 1 421 13 discriminator 6 view .LVU816
 421:Drivers/STM32F0xx_HAL_Driver/Src/stm32f0xx_ll_usb.c ****             pmabuffer = ep->pmaaddr0;
 2735              		.loc 1 421 13 discriminator 6 view .LVU817
 2736 0200 7208     		lsrs	r2, r6, #1
 2737              	.LVL287:
 421:Drivers/STM32F0xx_HAL_Driver/Src/stm32f0xx_ll_usb.c ****             pmabuffer = ep->pmaaddr0;
 2738              		.loc 1 421 13 discriminator 6 view .LVU818
 2739 0202 F107     		lsls	r1, r6, #31
 2740 0204 00D5     		bpl	.L101
 421:Drivers/STM32F0xx_HAL_Driver/Src/stm32f0xx_ll_usb.c ****             pmabuffer = ep->pmaaddr0;
 2741              		.loc 1 421 13 discriminator 8 view .LVU819
 2742 0206 0132     		adds	r2, r2, #1
 2743              	.LVL288:
 2744              	.L101:
 421:Drivers/STM32F0xx_HAL_Driver/Src/stm32f0xx_ll_usb.c ****             pmabuffer = ep->pmaaddr0;
 2745              		.loc 1 421 13 discriminator 10 view .LVU820
 2746 0208 9202     		lsls	r2, r2, #10
ARM GAS  /tmp/ccnaAMFS.s 			page 70


 2747              	.LVL289:
 421:Drivers/STM32F0xx_HAL_Driver/Src/stm32f0xx_ll_usb.c ****             pmabuffer = ep->pmaaddr0;
 2748              		.loc 1 421 13 is_stmt 0 discriminator 10 view .LVU821
 2749 020a 92B2     		uxth	r2, r2
 2750 020c 1A80     		strh	r2, [r3]
 421:Drivers/STM32F0xx_HAL_Driver/Src/stm32f0xx_ll_usb.c ****             pmabuffer = ep->pmaaddr0;
 2751              		.loc 1 421 13 is_stmt 1 discriminator 10 view .LVU822
 2752 020e 0CE0     		b	.L99
 2753              	.L100:
 421:Drivers/STM32F0xx_HAL_Driver/Src/stm32f0xx_ll_usb.c ****             pmabuffer = ep->pmaaddr0;
 2754              		.loc 1 421 13 discriminator 7 view .LVU823
 421:Drivers/STM32F0xx_HAL_Driver/Src/stm32f0xx_ll_usb.c ****             pmabuffer = ep->pmaaddr0;
 2755              		.loc 1 421 13 discriminator 7 view .LVU824
 2756 0210 7209     		lsrs	r2, r6, #5
 2757              	.LVL290:
 421:Drivers/STM32F0xx_HAL_Driver/Src/stm32f0xx_ll_usb.c ****             pmabuffer = ep->pmaaddr0;
 2758              		.loc 1 421 13 discriminator 7 view .LVU825
 2759 0212 F106     		lsls	r1, r6, #27
 2760 0214 00D1     		bne	.L102
 421:Drivers/STM32F0xx_HAL_Driver/Src/stm32f0xx_ll_usb.c ****             pmabuffer = ep->pmaaddr0;
 2761              		.loc 1 421 13 discriminator 12 view .LVU826
 2762 0216 013A     		subs	r2, r2, #1
 2763              	.LVL291:
 2764              	.L102:
 421:Drivers/STM32F0xx_HAL_Driver/Src/stm32f0xx_ll_usb.c ****             pmabuffer = ep->pmaaddr0;
 2765              		.loc 1 421 13 discriminator 14 view .LVU827
 2766 0218 9202     		lsls	r2, r2, #10
 2767              	.LVL292:
 421:Drivers/STM32F0xx_HAL_Driver/Src/stm32f0xx_ll_usb.c ****             pmabuffer = ep->pmaaddr0;
 2768              		.loc 1 421 13 is_stmt 0 discriminator 14 view .LVU828
 2769 021a 92B2     		uxth	r2, r2
 2770 021c 4049     		ldr	r1, .L174+8
 2771 021e 0A43     		orrs	r2, r1
 2772 0220 92B2     		uxth	r2, r2
 2773 0222 1A80     		strh	r2, [r3]
 2774 0224 01E0     		b	.L99
 2775              	.LVL293:
 2776              	.L97:
 421:Drivers/STM32F0xx_HAL_Driver/Src/stm32f0xx_ll_usb.c ****             pmabuffer = ep->pmaaddr0;
 2777              		.loc 1 421 13 discriminator 14 view .LVU829
 2778              	.LBE78:
 2779              	.LBE80:
 421:Drivers/STM32F0xx_HAL_Driver/Src/stm32f0xx_ll_usb.c ****             pmabuffer = ep->pmaaddr0;
 2780              		.loc 1 421 13 is_stmt 1 discriminator 2 view .LVU830
 2781 0226 012B     		cmp	r3, #1
 2782 0228 06D0     		beq	.L169
 2783              	.L99:
 421:Drivers/STM32F0xx_HAL_Driver/Src/stm32f0xx_ll_usb.c ****             pmabuffer = ep->pmaaddr0;
 2784              		.loc 1 421 13 discriminator 18 view .LVU831
 421:Drivers/STM32F0xx_HAL_Driver/Src/stm32f0xx_ll_usb.c ****             pmabuffer = ep->pmaaddr0;
 2785              		.loc 1 421 13 discriminator 18 view .LVU832
 422:Drivers/STM32F0xx_HAL_Driver/Src/stm32f0xx_ll_usb.c **** 
 2786              		.loc 1 422 13 discriminator 18 view .LVU833
 422:Drivers/STM32F0xx_HAL_Driver/Src/stm32f0xx_ll_usb.c **** 
 2787              		.loc 1 422 23 is_stmt 0 discriminator 18 view .LVU834
 2788 022a 2289     		ldrh	r2, [r4, #8]
 2789              	.LVL294:
ARM GAS  /tmp/ccnaAMFS.s 			page 71


 425:Drivers/STM32F0xx_HAL_Driver/Src/stm32f0xx_ll_usb.c ****           }
 2790              		.loc 1 425 13 is_stmt 1 discriminator 18 view .LVU835
 2791 022c B3B2     		uxth	r3, r6
 2792 022e 6169     		ldr	r1, [r4, #20]
 2793 0230 2800     		movs	r0, r5
 2794 0232 FFF7FEFF 		bl	USB_WritePMA
 2795              	.LVL295:
 425:Drivers/STM32F0xx_HAL_Driver/Src/stm32f0xx_ll_usb.c ****           }
 2796              		.loc 1 425 13 is_stmt 0 discriminator 18 view .LVU836
 2797 0236 56E7     		b	.L85
 2798              	.L169:
 421:Drivers/STM32F0xx_HAL_Driver/Src/stm32f0xx_ll_usb.c ****             pmabuffer = ep->pmaaddr0;
 2799              		.loc 1 421 13 is_stmt 1 discriminator 16 view .LVU837
 2800              	.LBB81:
 421:Drivers/STM32F0xx_HAL_Driver/Src/stm32f0xx_ll_usb.c ****             pmabuffer = ep->pmaaddr0;
 2801              		.loc 1 421 13 discriminator 16 view .LVU838
 2802              	.LVL296:
 421:Drivers/STM32F0xx_HAL_Driver/Src/stm32f0xx_ll_usb.c ****             pmabuffer = ep->pmaaddr0;
 2803              		.loc 1 421 13 discriminator 16 view .LVU839
 421:Drivers/STM32F0xx_HAL_Driver/Src/stm32f0xx_ll_usb.c ****             pmabuffer = ep->pmaaddr0;
 2804              		.loc 1 421 13 discriminator 16 view .LVU840
 2805 0238 4F33     		adds	r3, r3, #79
 2806 023a EA5A     		ldrh	r2, [r5, r3]
 2807 023c AA18     		adds	r2, r5, r2
 2808              	.LVL297:
 421:Drivers/STM32F0xx_HAL_Driver/Src/stm32f0xx_ll_usb.c ****             pmabuffer = ep->pmaaddr0;
 2809              		.loc 1 421 13 discriminator 16 view .LVU841
 2810 023e 2378     		ldrb	r3, [r4]
 2811 0240 DB00     		lsls	r3, r3, #3
 2812 0242 9B18     		adds	r3, r3, r2
 2813 0244 394A     		ldr	r2, .L174+20
 2814              	.LVL298:
 421:Drivers/STM32F0xx_HAL_Driver/Src/stm32f0xx_ll_usb.c ****             pmabuffer = ep->pmaaddr0;
 2815              		.loc 1 421 13 is_stmt 0 discriminator 16 view .LVU842
 2816 0246 9446     		mov	ip, r2
 2817 0248 6344     		add	r3, r3, ip
 2818              	.LVL299:
 421:Drivers/STM32F0xx_HAL_Driver/Src/stm32f0xx_ll_usb.c ****             pmabuffer = ep->pmaaddr0;
 2819              		.loc 1 421 13 is_stmt 1 discriminator 16 view .LVU843
 2820 024a B2B2     		uxth	r2, r6
 2821 024c 1A80     		strh	r2, [r3]
 2822 024e ECE7     		b	.L99
 2823              	.LVL300:
 2824              	.L88:
 421:Drivers/STM32F0xx_HAL_Driver/Src/stm32f0xx_ll_usb.c ****             pmabuffer = ep->pmaaddr0;
 2825              		.loc 1 421 13 is_stmt 0 discriminator 16 view .LVU844
 2826              	.LBE81:
 430:Drivers/STM32F0xx_HAL_Driver/Src/stm32f0xx_ll_usb.c ****             pmabuffer = ep->pmaaddr0;
 2827              		.loc 1 430 13 is_stmt 1 view .LVU845
 430:Drivers/STM32F0xx_HAL_Driver/Src/stm32f0xx_ll_usb.c ****             pmabuffer = ep->pmaaddr0;
 2828              		.loc 1 430 13 view .LVU846
 2829 0250 6278     		ldrb	r2, [r4, #1]
 2830 0252 002A     		cmp	r2, #0
 2831 0254 28D1     		bne	.L103
 430:Drivers/STM32F0xx_HAL_Driver/Src/stm32f0xx_ll_usb.c ****             pmabuffer = ep->pmaaddr0;
 2832              		.loc 1 430 13 discriminator 1 view .LVU847
 2833              	.LBB82:
ARM GAS  /tmp/ccnaAMFS.s 			page 72


 430:Drivers/STM32F0xx_HAL_Driver/Src/stm32f0xx_ll_usb.c ****             pmabuffer = ep->pmaaddr0;
 2834              		.loc 1 430 13 discriminator 1 view .LVU848
 2835              	.LVL301:
 430:Drivers/STM32F0xx_HAL_Driver/Src/stm32f0xx_ll_usb.c ****             pmabuffer = ep->pmaaddr0;
 2836              		.loc 1 430 13 discriminator 1 view .LVU849
 430:Drivers/STM32F0xx_HAL_Driver/Src/stm32f0xx_ll_usb.c ****             pmabuffer = ep->pmaaddr0;
 2837              		.loc 1 430 13 discriminator 1 view .LVU850
 2838 0256 5032     		adds	r2, r2, #80
 2839 0258 AA5A     		ldrh	r2, [r5, r2]
 2840 025a AA18     		adds	r2, r5, r2
 2841              	.LVL302:
 430:Drivers/STM32F0xx_HAL_Driver/Src/stm32f0xx_ll_usb.c ****             pmabuffer = ep->pmaaddr0;
 2842              		.loc 1 430 13 discriminator 1 view .LVU851
 2843 025c DB00     		lsls	r3, r3, #3
 2844 025e 9B18     		adds	r3, r3, r2
 2845 0260 324A     		ldr	r2, .L174+20
 2846              	.LVL303:
 430:Drivers/STM32F0xx_HAL_Driver/Src/stm32f0xx_ll_usb.c ****             pmabuffer = ep->pmaaddr0;
 2847              		.loc 1 430 13 is_stmt 0 discriminator 1 view .LVU852
 2848 0262 9446     		mov	ip, r2
 2849 0264 6344     		add	r3, r3, ip
 2850              	.LVL304:
 430:Drivers/STM32F0xx_HAL_Driver/Src/stm32f0xx_ll_usb.c ****             pmabuffer = ep->pmaaddr0;
 2851              		.loc 1 430 13 is_stmt 1 discriminator 1 view .LVU853
 2852              	.LBB83:
 430:Drivers/STM32F0xx_HAL_Driver/Src/stm32f0xx_ll_usb.c ****             pmabuffer = ep->pmaaddr0;
 2853              		.loc 1 430 13 discriminator 1 view .LVU854
 430:Drivers/STM32F0xx_HAL_Driver/Src/stm32f0xx_ll_usb.c ****             pmabuffer = ep->pmaaddr0;
 2854              		.loc 1 430 13 discriminator 1 view .LVU855
 2855 0266 002E     		cmp	r6, #0
 2856 0268 09D1     		bne	.L104
 430:Drivers/STM32F0xx_HAL_Driver/Src/stm32f0xx_ll_usb.c ****             pmabuffer = ep->pmaaddr0;
 2857              		.loc 1 430 13 discriminator 3 view .LVU856
 2858 026a 1A88     		ldrh	r2, [r3]
 2859 026c 2B49     		ldr	r1, .L174+4
 2860              	.LVL305:
 430:Drivers/STM32F0xx_HAL_Driver/Src/stm32f0xx_ll_usb.c ****             pmabuffer = ep->pmaaddr0;
 2861              		.loc 1 430 13 is_stmt 0 discriminator 3 view .LVU857
 2862 026e 0A40     		ands	r2, r1
 2863 0270 1A80     		strh	r2, [r3]
 430:Drivers/STM32F0xx_HAL_Driver/Src/stm32f0xx_ll_usb.c ****             pmabuffer = ep->pmaaddr0;
 2864              		.loc 1 430 13 is_stmt 1 discriminator 3 view .LVU858
 2865 0272 1A88     		ldrh	r2, [r3]
 2866 0274 2A49     		ldr	r1, .L174+8
 2867 0276 0A43     		orrs	r2, r1
 2868 0278 92B2     		uxth	r2, r2
 2869 027a 1A80     		strh	r2, [r3]
 2870 027c 16E0     		b	.L105
 2871              	.LVL306:
 2872              	.L104:
 430:Drivers/STM32F0xx_HAL_Driver/Src/stm32f0xx_ll_usb.c ****             pmabuffer = ep->pmaaddr0;
 2873              		.loc 1 430 13 discriminator 4 view .LVU859
 2874 027e 3E2E     		cmp	r6, #62
 2875 0280 07D8     		bhi	.L106
 430:Drivers/STM32F0xx_HAL_Driver/Src/stm32f0xx_ll_usb.c ****             pmabuffer = ep->pmaaddr0;
 2876              		.loc 1 430 13 discriminator 6 view .LVU860
 430:Drivers/STM32F0xx_HAL_Driver/Src/stm32f0xx_ll_usb.c ****             pmabuffer = ep->pmaaddr0;
ARM GAS  /tmp/ccnaAMFS.s 			page 73


 2877              		.loc 1 430 13 discriminator 6 view .LVU861
 2878 0282 7208     		lsrs	r2, r6, #1
 2879              	.LVL307:
 430:Drivers/STM32F0xx_HAL_Driver/Src/stm32f0xx_ll_usb.c ****             pmabuffer = ep->pmaaddr0;
 2880              		.loc 1 430 13 discriminator 6 view .LVU862
 2881 0284 F107     		lsls	r1, r6, #31
 2882 0286 00D5     		bpl	.L107
 2883              	.LVL308:
 430:Drivers/STM32F0xx_HAL_Driver/Src/stm32f0xx_ll_usb.c ****             pmabuffer = ep->pmaaddr0;
 2884              		.loc 1 430 13 discriminator 8 view .LVU863
 2885 0288 0132     		adds	r2, r2, #1
 2886              	.LVL309:
 2887              	.L107:
 430:Drivers/STM32F0xx_HAL_Driver/Src/stm32f0xx_ll_usb.c ****             pmabuffer = ep->pmaaddr0;
 2888              		.loc 1 430 13 discriminator 10 view .LVU864
 2889 028a 9202     		lsls	r2, r2, #10
 2890              	.LVL310:
 430:Drivers/STM32F0xx_HAL_Driver/Src/stm32f0xx_ll_usb.c ****             pmabuffer = ep->pmaaddr0;
 2891              		.loc 1 430 13 is_stmt 0 discriminator 10 view .LVU865
 2892 028c 92B2     		uxth	r2, r2
 2893 028e 1A80     		strh	r2, [r3]
 430:Drivers/STM32F0xx_HAL_Driver/Src/stm32f0xx_ll_usb.c ****             pmabuffer = ep->pmaaddr0;
 2894              		.loc 1 430 13 is_stmt 1 discriminator 10 view .LVU866
 2895 0290 0CE0     		b	.L105
 2896              	.LVL311:
 2897              	.L106:
 430:Drivers/STM32F0xx_HAL_Driver/Src/stm32f0xx_ll_usb.c ****             pmabuffer = ep->pmaaddr0;
 2898              		.loc 1 430 13 discriminator 7 view .LVU867
 430:Drivers/STM32F0xx_HAL_Driver/Src/stm32f0xx_ll_usb.c ****             pmabuffer = ep->pmaaddr0;
 2899              		.loc 1 430 13 discriminator 7 view .LVU868
 2900 0292 7209     		lsrs	r2, r6, #5
 2901              	.LVL312:
 430:Drivers/STM32F0xx_HAL_Driver/Src/stm32f0xx_ll_usb.c ****             pmabuffer = ep->pmaaddr0;
 2902              		.loc 1 430 13 discriminator 7 view .LVU869
 2903 0294 F106     		lsls	r1, r6, #27
 2904 0296 00D1     		bne	.L108
 2905              	.LVL313:
 430:Drivers/STM32F0xx_HAL_Driver/Src/stm32f0xx_ll_usb.c ****             pmabuffer = ep->pmaaddr0;
 2906              		.loc 1 430 13 discriminator 12 view .LVU870
 2907 0298 013A     		subs	r2, r2, #1
 2908              	.LVL314:
 2909              	.L108:
 430:Drivers/STM32F0xx_HAL_Driver/Src/stm32f0xx_ll_usb.c ****             pmabuffer = ep->pmaaddr0;
 2910              		.loc 1 430 13 discriminator 14 view .LVU871
 2911 029a 9202     		lsls	r2, r2, #10
 2912              	.LVL315:
 430:Drivers/STM32F0xx_HAL_Driver/Src/stm32f0xx_ll_usb.c ****             pmabuffer = ep->pmaaddr0;
 2913              		.loc 1 430 13 is_stmt 0 discriminator 14 view .LVU872
 2914 029c 92B2     		uxth	r2, r2
 2915 029e 2049     		ldr	r1, .L174+8
 2916 02a0 0A43     		orrs	r2, r1
 2917 02a2 92B2     		uxth	r2, r2
 2918 02a4 1A80     		strh	r2, [r3]
 2919 02a6 01E0     		b	.L105
 2920              	.LVL316:
 2921              	.L103:
 430:Drivers/STM32F0xx_HAL_Driver/Src/stm32f0xx_ll_usb.c ****             pmabuffer = ep->pmaaddr0;
ARM GAS  /tmp/ccnaAMFS.s 			page 74


 2922              		.loc 1 430 13 discriminator 14 view .LVU873
 2923              	.LBE83:
 2924              	.LBE82:
 430:Drivers/STM32F0xx_HAL_Driver/Src/stm32f0xx_ll_usb.c ****             pmabuffer = ep->pmaaddr0;
 2925              		.loc 1 430 13 is_stmt 1 discriminator 2 view .LVU874
 2926 02a8 012A     		cmp	r2, #1
 2927 02aa 26D0     		beq	.L170
 2928              	.LVL317:
 2929              	.L105:
 430:Drivers/STM32F0xx_HAL_Driver/Src/stm32f0xx_ll_usb.c ****             pmabuffer = ep->pmaaddr0;
 2930              		.loc 1 430 13 discriminator 18 view .LVU875
 430:Drivers/STM32F0xx_HAL_Driver/Src/stm32f0xx_ll_usb.c ****             pmabuffer = ep->pmaaddr0;
 2931              		.loc 1 430 13 discriminator 18 view .LVU876
 431:Drivers/STM32F0xx_HAL_Driver/Src/stm32f0xx_ll_usb.c **** 
 2932              		.loc 1 431 13 discriminator 18 view .LVU877
 431:Drivers/STM32F0xx_HAL_Driver/Src/stm32f0xx_ll_usb.c **** 
 2933              		.loc 1 431 23 is_stmt 0 discriminator 18 view .LVU878
 2934 02ac 2289     		ldrh	r2, [r4, #8]
 2935              	.LVL318:
 434:Drivers/STM32F0xx_HAL_Driver/Src/stm32f0xx_ll_usb.c ****             ep->xfer_buff += len;
 2936              		.loc 1 434 13 is_stmt 1 discriminator 18 view .LVU879
 2937 02ae B3B2     		uxth	r3, r6
 2938 02b0 6169     		ldr	r1, [r4, #20]
 2939 02b2 2800     		movs	r0, r5
 2940              	.LVL319:
 434:Drivers/STM32F0xx_HAL_Driver/Src/stm32f0xx_ll_usb.c ****             ep->xfer_buff += len;
 2941              		.loc 1 434 13 is_stmt 0 discriminator 18 view .LVU880
 2942 02b4 FFF7FEFF 		bl	USB_WritePMA
 2943              	.LVL320:
 435:Drivers/STM32F0xx_HAL_Driver/Src/stm32f0xx_ll_usb.c **** 
 2944              		.loc 1 435 13 is_stmt 1 discriminator 18 view .LVU881
 435:Drivers/STM32F0xx_HAL_Driver/Src/stm32f0xx_ll_usb.c **** 
 2945              		.loc 1 435 27 is_stmt 0 discriminator 18 view .LVU882
 2946 02b8 6369     		ldr	r3, [r4, #20]
 2947 02ba 9B19     		adds	r3, r3, r6
 2948 02bc 6361     		str	r3, [r4, #20]
 437:Drivers/STM32F0xx_HAL_Driver/Src/stm32f0xx_ll_usb.c ****             {
 2949              		.loc 1 437 13 is_stmt 1 discriminator 18 view .LVU883
 437:Drivers/STM32F0xx_HAL_Driver/Src/stm32f0xx_ll_usb.c ****             {
 2950              		.loc 1 437 19 is_stmt 0 discriminator 18 view .LVU884
 2951 02be 236A     		ldr	r3, [r4, #32]
 437:Drivers/STM32F0xx_HAL_Driver/Src/stm32f0xx_ll_usb.c ****             {
 2952              		.loc 1 437 16 discriminator 18 view .LVU885
 2953 02c0 2269     		ldr	r2, [r4, #16]
 2954 02c2 9342     		cmp	r3, r2
 2955 02c4 24D9     		bls	.L109
 439:Drivers/STM32F0xx_HAL_Driver/Src/stm32f0xx_ll_usb.c ****             }
 2956              		.loc 1 439 15 is_stmt 1 view .LVU886
 439:Drivers/STM32F0xx_HAL_Driver/Src/stm32f0xx_ll_usb.c ****             }
 2957              		.loc 1 439 31 is_stmt 0 view .LVU887
 2958 02c6 9B1B     		subs	r3, r3, r6
 2959 02c8 2362     		str	r3, [r4, #32]
 2960              	.L110:
 448:Drivers/STM32F0xx_HAL_Driver/Src/stm32f0xx_ll_usb.c ****             pmabuffer = ep->pmaaddr1;
 2961              		.loc 1 448 13 is_stmt 1 view .LVU888
 2962              	.LBB84:
 448:Drivers/STM32F0xx_HAL_Driver/Src/stm32f0xx_ll_usb.c ****             pmabuffer = ep->pmaaddr1;
ARM GAS  /tmp/ccnaAMFS.s 			page 75


 2963              		.loc 1 448 13 view .LVU889
 2964              	.LVL321:
 448:Drivers/STM32F0xx_HAL_Driver/Src/stm32f0xx_ll_usb.c ****             pmabuffer = ep->pmaaddr1;
 2965              		.loc 1 448 13 view .LVU890
 448:Drivers/STM32F0xx_HAL_Driver/Src/stm32f0xx_ll_usb.c ****             pmabuffer = ep->pmaaddr1;
 2966              		.loc 1 448 13 view .LVU891
 2967 02ca 6378     		ldrb	r3, [r4, #1]
 2968 02cc 002B     		cmp	r3, #0
 2969 02ce 4AD1     		bne	.L111
 448:Drivers/STM32F0xx_HAL_Driver/Src/stm32f0xx_ll_usb.c ****             pmabuffer = ep->pmaaddr1;
 2970              		.loc 1 448 13 discriminator 1 view .LVU892
 2971              	.LBB85:
 448:Drivers/STM32F0xx_HAL_Driver/Src/stm32f0xx_ll_usb.c ****             pmabuffer = ep->pmaaddr1;
 2972              		.loc 1 448 13 discriminator 1 view .LVU893
 2973              	.LVL322:
 448:Drivers/STM32F0xx_HAL_Driver/Src/stm32f0xx_ll_usb.c ****             pmabuffer = ep->pmaaddr1;
 2974              		.loc 1 448 13 discriminator 1 view .LVU894
 448:Drivers/STM32F0xx_HAL_Driver/Src/stm32f0xx_ll_usb.c ****             pmabuffer = ep->pmaaddr1;
 2975              		.loc 1 448 13 discriminator 1 view .LVU895
 2976 02d0 5033     		adds	r3, r3, #80
 2977 02d2 EA5A     		ldrh	r2, [r5, r3]
 2978 02d4 AA18     		adds	r2, r5, r2
 2979              	.LVL323:
 448:Drivers/STM32F0xx_HAL_Driver/Src/stm32f0xx_ll_usb.c ****             pmabuffer = ep->pmaaddr1;
 2980              		.loc 1 448 13 discriminator 1 view .LVU896
 2981 02d6 2378     		ldrb	r3, [r4]
 2982 02d8 DB00     		lsls	r3, r3, #3
 2983 02da 9B18     		adds	r3, r3, r2
 2984 02dc 0E4A     		ldr	r2, .L174
 2985              	.LVL324:
 448:Drivers/STM32F0xx_HAL_Driver/Src/stm32f0xx_ll_usb.c ****             pmabuffer = ep->pmaaddr1;
 2986              		.loc 1 448 13 is_stmt 0 discriminator 1 view .LVU897
 2987 02de 9446     		mov	ip, r2
 2988 02e0 6344     		add	r3, r3, ip
 2989              	.LVL325:
 448:Drivers/STM32F0xx_HAL_Driver/Src/stm32f0xx_ll_usb.c ****             pmabuffer = ep->pmaaddr1;
 2990              		.loc 1 448 13 is_stmt 1 discriminator 1 view .LVU898
 2991              	.LBB86:
 448:Drivers/STM32F0xx_HAL_Driver/Src/stm32f0xx_ll_usb.c ****             pmabuffer = ep->pmaaddr1;
 2992              		.loc 1 448 13 discriminator 1 view .LVU899
 448:Drivers/STM32F0xx_HAL_Driver/Src/stm32f0xx_ll_usb.c ****             pmabuffer = ep->pmaaddr1;
 2993              		.loc 1 448 13 discriminator 1 view .LVU900
 2994 02e2 002E     		cmp	r6, #0
 2995 02e4 2AD1     		bne	.L112
 448:Drivers/STM32F0xx_HAL_Driver/Src/stm32f0xx_ll_usb.c ****             pmabuffer = ep->pmaaddr1;
 2996              		.loc 1 448 13 discriminator 3 view .LVU901
 2997 02e6 1A88     		ldrh	r2, [r3]
 2998 02e8 0C49     		ldr	r1, .L174+4
 2999 02ea 0A40     		ands	r2, r1
 3000 02ec 1A80     		strh	r2, [r3]
 448:Drivers/STM32F0xx_HAL_Driver/Src/stm32f0xx_ll_usb.c ****             pmabuffer = ep->pmaaddr1;
 3001              		.loc 1 448 13 discriminator 3 view .LVU902
 3002 02ee 1A88     		ldrh	r2, [r3]
 3003 02f0 0B49     		ldr	r1, .L174+8
 3004 02f2 0A43     		orrs	r2, r1
 3005 02f4 92B2     		uxth	r2, r2
 3006 02f6 1A80     		strh	r2, [r3]
ARM GAS  /tmp/ccnaAMFS.s 			page 76


 3007 02f8 37E0     		b	.L113
 3008              	.LVL326:
 3009              	.L170:
 448:Drivers/STM32F0xx_HAL_Driver/Src/stm32f0xx_ll_usb.c ****             pmabuffer = ep->pmaaddr1;
 3010              		.loc 1 448 13 is_stmt 0 discriminator 3 view .LVU903
 3011              	.LBE86:
 3012              	.LBE85:
 3013              	.LBE84:
 430:Drivers/STM32F0xx_HAL_Driver/Src/stm32f0xx_ll_usb.c ****             pmabuffer = ep->pmaaddr0;
 3014              		.loc 1 430 13 is_stmt 1 discriminator 16 view .LVU904
 3015              	.LBB89:
 430:Drivers/STM32F0xx_HAL_Driver/Src/stm32f0xx_ll_usb.c ****             pmabuffer = ep->pmaaddr0;
 3016              		.loc 1 430 13 discriminator 16 view .LVU905
 430:Drivers/STM32F0xx_HAL_Driver/Src/stm32f0xx_ll_usb.c ****             pmabuffer = ep->pmaaddr0;
 3017              		.loc 1 430 13 discriminator 16 view .LVU906
 430:Drivers/STM32F0xx_HAL_Driver/Src/stm32f0xx_ll_usb.c ****             pmabuffer = ep->pmaaddr0;
 3018              		.loc 1 430 13 discriminator 16 view .LVU907
 3019 02fa 4F32     		adds	r2, r2, #79
 3020 02fc AA5A     		ldrh	r2, [r5, r2]
 3021 02fe AA18     		adds	r2, r5, r2
 3022              	.LVL327:
 430:Drivers/STM32F0xx_HAL_Driver/Src/stm32f0xx_ll_usb.c ****             pmabuffer = ep->pmaaddr0;
 3023              		.loc 1 430 13 discriminator 16 view .LVU908
 3024 0300 DB00     		lsls	r3, r3, #3
 3025 0302 9B18     		adds	r3, r3, r2
 3026 0304 094A     		ldr	r2, .L174+20
 3027              	.LVL328:
 430:Drivers/STM32F0xx_HAL_Driver/Src/stm32f0xx_ll_usb.c ****             pmabuffer = ep->pmaaddr0;
 3028              		.loc 1 430 13 is_stmt 0 discriminator 16 view .LVU909
 3029 0306 9446     		mov	ip, r2
 3030 0308 6344     		add	r3, r3, ip
 3031              	.LVL329:
 430:Drivers/STM32F0xx_HAL_Driver/Src/stm32f0xx_ll_usb.c ****             pmabuffer = ep->pmaaddr0;
 3032              		.loc 1 430 13 is_stmt 1 discriminator 16 view .LVU910
 3033 030a B2B2     		uxth	r2, r6
 3034 030c 1A80     		strh	r2, [r3]
 3035 030e CDE7     		b	.L105
 3036              	.LVL330:
 3037              	.L109:
 430:Drivers/STM32F0xx_HAL_Driver/Src/stm32f0xx_ll_usb.c ****             pmabuffer = ep->pmaaddr0;
 3038              		.loc 1 430 13 is_stmt 0 discriminator 16 view .LVU911
 3039              	.LBE89:
 443:Drivers/STM32F0xx_HAL_Driver/Src/stm32f0xx_ll_usb.c ****               ep->xfer_len_db = 0U;
 3040              		.loc 1 443 15 is_stmt 1 view .LVU912
 444:Drivers/STM32F0xx_HAL_Driver/Src/stm32f0xx_ll_usb.c ****             }
 3041              		.loc 1 444 15 view .LVU913
 444:Drivers/STM32F0xx_HAL_Driver/Src/stm32f0xx_ll_usb.c ****             }
 3042              		.loc 1 444 31 is_stmt 0 view .LVU914
 3043 0310 0022     		movs	r2, #0
 3044 0312 2262     		str	r2, [r4, #32]
 443:Drivers/STM32F0xx_HAL_Driver/Src/stm32f0xx_ll_usb.c ****               ep->xfer_len_db = 0U;
 3045              		.loc 1 443 19 view .LVU915
 3046 0314 1E00     		movs	r6, r3
 3047 0316 D8E7     		b	.L110
 3048              	.L175:
 3049              		.align	2
 3050              	.L174:
ARM GAS  /tmp/ccnaAMFS.s 			page 77


 3051 0318 06040000 		.word	1030
 3052 031c FF83FFFF 		.word	-31745
 3053 0320 0080FFFF 		.word	-32768
 3054 0324 8FBFFFFF 		.word	-16497
 3055 0328 8080FFFF 		.word	-32640
 3056 032c 02040000 		.word	1026
 3057 0330 BF8FFFFF 		.word	-28737
 3058 0334 8F8FFFFF 		.word	-28785
 3059 0338 8081FFFF 		.word	-32384
 3060              	.LVL331:
 3061              	.L112:
 3062              	.LBB90:
 3063              	.LBB88:
 3064              	.LBB87:
 448:Drivers/STM32F0xx_HAL_Driver/Src/stm32f0xx_ll_usb.c ****             pmabuffer = ep->pmaaddr1;
 3065              		.loc 1 448 13 is_stmt 1 discriminator 4 view .LVU916
 3066 033c 3E2E     		cmp	r6, #62
 3067 033e 07D8     		bhi	.L114
 448:Drivers/STM32F0xx_HAL_Driver/Src/stm32f0xx_ll_usb.c ****             pmabuffer = ep->pmaaddr1;
 3068              		.loc 1 448 13 discriminator 6 view .LVU917
 448:Drivers/STM32F0xx_HAL_Driver/Src/stm32f0xx_ll_usb.c ****             pmabuffer = ep->pmaaddr1;
 3069              		.loc 1 448 13 discriminator 6 view .LVU918
 3070 0340 7208     		lsrs	r2, r6, #1
 3071              	.LVL332:
 448:Drivers/STM32F0xx_HAL_Driver/Src/stm32f0xx_ll_usb.c ****             pmabuffer = ep->pmaaddr1;
 3072              		.loc 1 448 13 discriminator 6 view .LVU919
 3073 0342 F107     		lsls	r1, r6, #31
 3074 0344 00D5     		bpl	.L115
 448:Drivers/STM32F0xx_HAL_Driver/Src/stm32f0xx_ll_usb.c ****             pmabuffer = ep->pmaaddr1;
 3075              		.loc 1 448 13 discriminator 8 view .LVU920
 3076 0346 0132     		adds	r2, r2, #1
 3077              	.LVL333:
 3078              	.L115:
 448:Drivers/STM32F0xx_HAL_Driver/Src/stm32f0xx_ll_usb.c ****             pmabuffer = ep->pmaaddr1;
 3079              		.loc 1 448 13 discriminator 10 view .LVU921
 3080 0348 9202     		lsls	r2, r2, #10
 3081              	.LVL334:
 448:Drivers/STM32F0xx_HAL_Driver/Src/stm32f0xx_ll_usb.c ****             pmabuffer = ep->pmaaddr1;
 3082              		.loc 1 448 13 is_stmt 0 discriminator 10 view .LVU922
 3083 034a 92B2     		uxth	r2, r2
 3084 034c 1A80     		strh	r2, [r3]
 448:Drivers/STM32F0xx_HAL_Driver/Src/stm32f0xx_ll_usb.c ****             pmabuffer = ep->pmaaddr1;
 3085              		.loc 1 448 13 is_stmt 1 discriminator 10 view .LVU923
 3086 034e 0CE0     		b	.L113
 3087              	.L114:
 448:Drivers/STM32F0xx_HAL_Driver/Src/stm32f0xx_ll_usb.c ****             pmabuffer = ep->pmaaddr1;
 3088              		.loc 1 448 13 discriminator 7 view .LVU924
 448:Drivers/STM32F0xx_HAL_Driver/Src/stm32f0xx_ll_usb.c ****             pmabuffer = ep->pmaaddr1;
 3089              		.loc 1 448 13 discriminator 7 view .LVU925
 3090 0350 7209     		lsrs	r2, r6, #5
 3091              	.LVL335:
 448:Drivers/STM32F0xx_HAL_Driver/Src/stm32f0xx_ll_usb.c ****             pmabuffer = ep->pmaaddr1;
 3092              		.loc 1 448 13 discriminator 7 view .LVU926
 3093 0352 F106     		lsls	r1, r6, #27
 3094 0354 00D1     		bne	.L116
 448:Drivers/STM32F0xx_HAL_Driver/Src/stm32f0xx_ll_usb.c ****             pmabuffer = ep->pmaaddr1;
 3095              		.loc 1 448 13 discriminator 12 view .LVU927
ARM GAS  /tmp/ccnaAMFS.s 			page 78


 3096 0356 013A     		subs	r2, r2, #1
 3097              	.LVL336:
 3098              	.L116:
 448:Drivers/STM32F0xx_HAL_Driver/Src/stm32f0xx_ll_usb.c ****             pmabuffer = ep->pmaaddr1;
 3099              		.loc 1 448 13 discriminator 14 view .LVU928
 3100 0358 9202     		lsls	r2, r2, #10
 3101              	.LVL337:
 448:Drivers/STM32F0xx_HAL_Driver/Src/stm32f0xx_ll_usb.c ****             pmabuffer = ep->pmaaddr1;
 3102              		.loc 1 448 13 is_stmt 0 discriminator 14 view .LVU929
 3103 035a 92B2     		uxth	r2, r2
 3104 035c C249     		ldr	r1, .L176
 3105 035e 0A43     		orrs	r2, r1
 3106 0360 92B2     		uxth	r2, r2
 3107 0362 1A80     		strh	r2, [r3]
 3108 0364 01E0     		b	.L113
 3109              	.LVL338:
 3110              	.L111:
 448:Drivers/STM32F0xx_HAL_Driver/Src/stm32f0xx_ll_usb.c ****             pmabuffer = ep->pmaaddr1;
 3111              		.loc 1 448 13 discriminator 14 view .LVU930
 3112              	.LBE87:
 3113              	.LBE88:
 448:Drivers/STM32F0xx_HAL_Driver/Src/stm32f0xx_ll_usb.c ****             pmabuffer = ep->pmaaddr1;
 3114              		.loc 1 448 13 is_stmt 1 discriminator 2 view .LVU931
 3115 0366 012B     		cmp	r3, #1
 3116 0368 06D0     		beq	.L171
 3117              	.LVL339:
 3118              	.L113:
 448:Drivers/STM32F0xx_HAL_Driver/Src/stm32f0xx_ll_usb.c ****             pmabuffer = ep->pmaaddr1;
 3119              		.loc 1 448 13 is_stmt 0 discriminator 2 view .LVU932
 3120              	.LBE90:
 448:Drivers/STM32F0xx_HAL_Driver/Src/stm32f0xx_ll_usb.c ****             pmabuffer = ep->pmaaddr1;
 3121              		.loc 1 448 13 is_stmt 1 discriminator 18 view .LVU933
 449:Drivers/STM32F0xx_HAL_Driver/Src/stm32f0xx_ll_usb.c **** 
 3122              		.loc 1 449 13 discriminator 18 view .LVU934
 449:Drivers/STM32F0xx_HAL_Driver/Src/stm32f0xx_ll_usb.c **** 
 3123              		.loc 1 449 23 is_stmt 0 discriminator 18 view .LVU935
 3124 036a 6289     		ldrh	r2, [r4, #10]
 3125              	.LVL340:
 452:Drivers/STM32F0xx_HAL_Driver/Src/stm32f0xx_ll_usb.c ****           }
 3126              		.loc 1 452 13 is_stmt 1 discriminator 18 view .LVU936
 3127 036c B3B2     		uxth	r3, r6
 3128 036e 6169     		ldr	r1, [r4, #20]
 3129 0370 2800     		movs	r0, r5
 3130 0372 FFF7FEFF 		bl	USB_WritePMA
 3131              	.LVL341:
 452:Drivers/STM32F0xx_HAL_Driver/Src/stm32f0xx_ll_usb.c ****           }
 3132              		.loc 1 452 13 is_stmt 0 discriminator 18 view .LVU937
 3133 0376 B6E6     		b	.L85
 3134              	.LVL342:
 3135              	.L171:
 3136              	.LBB91:
 448:Drivers/STM32F0xx_HAL_Driver/Src/stm32f0xx_ll_usb.c ****             pmabuffer = ep->pmaaddr1;
 3137              		.loc 1 448 13 is_stmt 1 discriminator 16 view .LVU938
 3138 0378 4F33     		adds	r3, r3, #79
 3139 037a EA5A     		ldrh	r2, [r5, r3]
 3140 037c AA18     		adds	r2, r5, r2
 3141              	.LVL343:
ARM GAS  /tmp/ccnaAMFS.s 			page 79


 448:Drivers/STM32F0xx_HAL_Driver/Src/stm32f0xx_ll_usb.c ****             pmabuffer = ep->pmaaddr1;
 3142              		.loc 1 448 13 discriminator 16 view .LVU939
 3143 037e 2378     		ldrb	r3, [r4]
 3144 0380 DB00     		lsls	r3, r3, #3
 3145 0382 9B18     		adds	r3, r3, r2
 3146 0384 B94A     		ldr	r2, .L176+4
 3147              	.LVL344:
 448:Drivers/STM32F0xx_HAL_Driver/Src/stm32f0xx_ll_usb.c ****             pmabuffer = ep->pmaaddr1;
 3148              		.loc 1 448 13 is_stmt 0 discriminator 16 view .LVU940
 3149 0386 9446     		mov	ip, r2
 3150 0388 6344     		add	r3, r3, ip
 3151              	.LVL345:
 448:Drivers/STM32F0xx_HAL_Driver/Src/stm32f0xx_ll_usb.c ****             pmabuffer = ep->pmaaddr1;
 3152              		.loc 1 448 13 is_stmt 1 discriminator 16 view .LVU941
 3153 038a B2B2     		uxth	r2, r6
