ARM GAS  /tmp/ccCXsivu.s 			page 1


   1              		.cpu cortex-m0
   2              		.eabi_attribute 20, 1
   3              		.eabi_attribute 21, 1
   4              		.eabi_attribute 23, 3
   5              		.eabi_attribute 24, 1
   6              		.eabi_attribute 25, 1
   7              		.eabi_attribute 26, 1
   8              		.eabi_attribute 30, 1
   9              		.eabi_attribute 34, 0
  10              		.eabi_attribute 18, 4
  11              		.file	"usbd_conf.c"
  12              		.text
  13              	.Ltext0:
  14              		.cfi_sections	.debug_frame
  15              		.section	.text.USBD_Get_USB_Status,"ax",%progbits
  16              		.align	1
  17              		.arch armv6s-m
  18              		.syntax unified
  19              		.code	16
  20              		.thumb_func
  21              		.fpu softvfp
  23              	USBD_Get_USB_Status:
  24              	.LVL0:
  25              	.LFB74:
  26              		.file 1 "USB_DEVICE/Target/usbd_conf.c"
   1:USB_DEVICE/Target/usbd_conf.c **** /* USER CODE BEGIN Header */
   2:USB_DEVICE/Target/usbd_conf.c **** /**
   3:USB_DEVICE/Target/usbd_conf.c ****   ******************************************************************************
   4:USB_DEVICE/Target/usbd_conf.c ****   * @file           : Target/usbd_conf.c
   5:USB_DEVICE/Target/usbd_conf.c ****   * @version        : v2.0_Cube
   6:USB_DEVICE/Target/usbd_conf.c ****   * @brief          : This file implements the board support package for the USB device library
   7:USB_DEVICE/Target/usbd_conf.c ****   ******************************************************************************
   8:USB_DEVICE/Target/usbd_conf.c ****   * @attention
   9:USB_DEVICE/Target/usbd_conf.c ****   *
  10:USB_DEVICE/Target/usbd_conf.c ****   * <h2><center>&copy; Copyright (c) 2021 STMicroelectronics.
  11:USB_DEVICE/Target/usbd_conf.c ****   * All rights reserved.</center></h2>
  12:USB_DEVICE/Target/usbd_conf.c ****   *
  13:USB_DEVICE/Target/usbd_conf.c ****   * This software component is licensed by ST under Ultimate Liberty license
  14:USB_DEVICE/Target/usbd_conf.c ****   * SLA0044, the "License"; You may not use this file except in compliance with
  15:USB_DEVICE/Target/usbd_conf.c ****   * the License. You may obtain a copy of the License at:
  16:USB_DEVICE/Target/usbd_conf.c ****   *                             www.st.com/SLA0044
  17:USB_DEVICE/Target/usbd_conf.c ****   *
  18:USB_DEVICE/Target/usbd_conf.c ****   ******************************************************************************
  19:USB_DEVICE/Target/usbd_conf.c ****   */
  20:USB_DEVICE/Target/usbd_conf.c **** /* USER CODE END Header */
  21:USB_DEVICE/Target/usbd_conf.c **** 
  22:USB_DEVICE/Target/usbd_conf.c **** /* Includes ------------------------------------------------------------------*/
  23:USB_DEVICE/Target/usbd_conf.c **** #include "stm32f0xx.h"
  24:USB_DEVICE/Target/usbd_conf.c **** #include "stm32f0xx_hal.h"
  25:USB_DEVICE/Target/usbd_conf.c **** #include "usbd_def.h"
  26:USB_DEVICE/Target/usbd_conf.c **** #include "usbd_core.h"
  27:USB_DEVICE/Target/usbd_conf.c **** #include "usbd_cdc.h"
  28:USB_DEVICE/Target/usbd_conf.c **** 
  29:USB_DEVICE/Target/usbd_conf.c **** /* USER CODE BEGIN Includes */
  30:USB_DEVICE/Target/usbd_conf.c **** 
  31:USB_DEVICE/Target/usbd_conf.c **** /* USER CODE END Includes */
  32:USB_DEVICE/Target/usbd_conf.c **** 
ARM GAS  /tmp/ccCXsivu.s 			page 2


  33:USB_DEVICE/Target/usbd_conf.c **** /* Private typedef -----------------------------------------------------------*/
  34:USB_DEVICE/Target/usbd_conf.c **** /* Private define ------------------------------------------------------------*/
  35:USB_DEVICE/Target/usbd_conf.c **** /* Private macro -------------------------------------------------------------*/
  36:USB_DEVICE/Target/usbd_conf.c **** 
  37:USB_DEVICE/Target/usbd_conf.c **** /* USER CODE BEGIN PV */
  38:USB_DEVICE/Target/usbd_conf.c **** /* Private variables ---------------------------------------------------------*/
  39:USB_DEVICE/Target/usbd_conf.c **** 
  40:USB_DEVICE/Target/usbd_conf.c **** /* USER CODE END PV */
  41:USB_DEVICE/Target/usbd_conf.c **** 
  42:USB_DEVICE/Target/usbd_conf.c **** PCD_HandleTypeDef hpcd_USB_FS;
  43:USB_DEVICE/Target/usbd_conf.c **** void Error_Handler(void);
  44:USB_DEVICE/Target/usbd_conf.c **** 
  45:USB_DEVICE/Target/usbd_conf.c **** /* USER CODE BEGIN 0 */
  46:USB_DEVICE/Target/usbd_conf.c **** 
  47:USB_DEVICE/Target/usbd_conf.c **** /* USER CODE END 0 */
  48:USB_DEVICE/Target/usbd_conf.c **** 
  49:USB_DEVICE/Target/usbd_conf.c **** /* USER CODE BEGIN PFP */
  50:USB_DEVICE/Target/usbd_conf.c **** /* Private function prototypes -----------------------------------------------*/
  51:USB_DEVICE/Target/usbd_conf.c **** 
  52:USB_DEVICE/Target/usbd_conf.c **** /* USER CODE END PFP */
  53:USB_DEVICE/Target/usbd_conf.c **** 
  54:USB_DEVICE/Target/usbd_conf.c **** /* Private functions ---------------------------------------------------------*/
  55:USB_DEVICE/Target/usbd_conf.c **** static USBD_StatusTypeDef USBD_Get_USB_Status(HAL_StatusTypeDef hal_status);
  56:USB_DEVICE/Target/usbd_conf.c **** /* USER CODE BEGIN 1 */
  57:USB_DEVICE/Target/usbd_conf.c **** static void SystemClockConfig_Resume(void);
  58:USB_DEVICE/Target/usbd_conf.c **** /* USER CODE END 1 */
  59:USB_DEVICE/Target/usbd_conf.c **** extern void SystemClock_Config(void);
  60:USB_DEVICE/Target/usbd_conf.c **** 
  61:USB_DEVICE/Target/usbd_conf.c **** /*******************************************************************************
  62:USB_DEVICE/Target/usbd_conf.c ****                        LL Driver Callbacks (PCD -> USB Device Library)
  63:USB_DEVICE/Target/usbd_conf.c **** *******************************************************************************/
  64:USB_DEVICE/Target/usbd_conf.c **** /* MSP Init */
  65:USB_DEVICE/Target/usbd_conf.c **** 
  66:USB_DEVICE/Target/usbd_conf.c **** void HAL_PCD_MspInit(PCD_HandleTypeDef* pcdHandle)
  67:USB_DEVICE/Target/usbd_conf.c **** {
  68:USB_DEVICE/Target/usbd_conf.c ****   if(pcdHandle->Instance==USB)
  69:USB_DEVICE/Target/usbd_conf.c ****   {
  70:USB_DEVICE/Target/usbd_conf.c ****   /* USER CODE BEGIN USB_MspInit 0 */
  71:USB_DEVICE/Target/usbd_conf.c **** 
  72:USB_DEVICE/Target/usbd_conf.c ****   /* USER CODE END USB_MspInit 0 */
  73:USB_DEVICE/Target/usbd_conf.c ****     /* Peripheral clock enable */
  74:USB_DEVICE/Target/usbd_conf.c ****     __HAL_RCC_USB_CLK_ENABLE();
  75:USB_DEVICE/Target/usbd_conf.c **** 
  76:USB_DEVICE/Target/usbd_conf.c ****     /* Peripheral interrupt init */
  77:USB_DEVICE/Target/usbd_conf.c ****     HAL_NVIC_SetPriority(USB_IRQn, 0, 0);
  78:USB_DEVICE/Target/usbd_conf.c ****     HAL_NVIC_EnableIRQ(USB_IRQn);
  79:USB_DEVICE/Target/usbd_conf.c ****   /* USER CODE BEGIN USB_MspInit 1 */
  80:USB_DEVICE/Target/usbd_conf.c **** 
  81:USB_DEVICE/Target/usbd_conf.c ****   /* USER CODE END USB_MspInit 1 */
  82:USB_DEVICE/Target/usbd_conf.c ****   }
  83:USB_DEVICE/Target/usbd_conf.c **** }
  84:USB_DEVICE/Target/usbd_conf.c **** 
  85:USB_DEVICE/Target/usbd_conf.c **** void HAL_PCD_MspDeInit(PCD_HandleTypeDef* pcdHandle)
  86:USB_DEVICE/Target/usbd_conf.c **** {
  87:USB_DEVICE/Target/usbd_conf.c ****   if(pcdHandle->Instance==USB)
  88:USB_DEVICE/Target/usbd_conf.c ****   {
  89:USB_DEVICE/Target/usbd_conf.c ****   /* USER CODE BEGIN USB_MspDeInit 0 */
ARM GAS  /tmp/ccCXsivu.s 			page 3


  90:USB_DEVICE/Target/usbd_conf.c **** 
  91:USB_DEVICE/Target/usbd_conf.c ****   /* USER CODE END USB_MspDeInit 0 */
  92:USB_DEVICE/Target/usbd_conf.c ****     /* Peripheral clock disable */
  93:USB_DEVICE/Target/usbd_conf.c ****     __HAL_RCC_USB_CLK_DISABLE();
  94:USB_DEVICE/Target/usbd_conf.c **** 
  95:USB_DEVICE/Target/usbd_conf.c ****     /* Peripheral interrupt Deinit*/
  96:USB_DEVICE/Target/usbd_conf.c ****     HAL_NVIC_DisableIRQ(USB_IRQn);
  97:USB_DEVICE/Target/usbd_conf.c **** 
  98:USB_DEVICE/Target/usbd_conf.c ****   /* USER CODE BEGIN USB_MspDeInit 1 */
  99:USB_DEVICE/Target/usbd_conf.c **** 
 100:USB_DEVICE/Target/usbd_conf.c ****   /* USER CODE END USB_MspDeInit 1 */
 101:USB_DEVICE/Target/usbd_conf.c ****   }
 102:USB_DEVICE/Target/usbd_conf.c **** }
 103:USB_DEVICE/Target/usbd_conf.c **** 
 104:USB_DEVICE/Target/usbd_conf.c **** /**
 105:USB_DEVICE/Target/usbd_conf.c ****   * @brief  Setup stage callback
 106:USB_DEVICE/Target/usbd_conf.c ****   * @param  hpcd: PCD handle
 107:USB_DEVICE/Target/usbd_conf.c ****   * @retval None
 108:USB_DEVICE/Target/usbd_conf.c ****   */
 109:USB_DEVICE/Target/usbd_conf.c **** #if (USE_HAL_PCD_REGISTER_CALLBACKS == 1U)
 110:USB_DEVICE/Target/usbd_conf.c **** static void PCD_SetupStageCallback(PCD_HandleTypeDef *hpcd)
 111:USB_DEVICE/Target/usbd_conf.c **** #else
 112:USB_DEVICE/Target/usbd_conf.c **** void HAL_PCD_SetupStageCallback(PCD_HandleTypeDef *hpcd)
 113:USB_DEVICE/Target/usbd_conf.c **** #endif /* USE_HAL_PCD_REGISTER_CALLBACKS */
 114:USB_DEVICE/Target/usbd_conf.c **** {
 115:USB_DEVICE/Target/usbd_conf.c ****   USBD_LL_SetupStage((USBD_HandleTypeDef*)hpcd->pData, (uint8_t *)hpcd->Setup);
 116:USB_DEVICE/Target/usbd_conf.c **** }
 117:USB_DEVICE/Target/usbd_conf.c **** 
 118:USB_DEVICE/Target/usbd_conf.c **** /**
 119:USB_DEVICE/Target/usbd_conf.c ****   * @brief  Data Out stage callback.
 120:USB_DEVICE/Target/usbd_conf.c ****   * @param  hpcd: PCD handle
 121:USB_DEVICE/Target/usbd_conf.c ****   * @param  epnum: Endpoint number
 122:USB_DEVICE/Target/usbd_conf.c ****   * @retval None
 123:USB_DEVICE/Target/usbd_conf.c ****   */
 124:USB_DEVICE/Target/usbd_conf.c **** #if (USE_HAL_PCD_REGISTER_CALLBACKS == 1U)
 125:USB_DEVICE/Target/usbd_conf.c **** static void PCD_DataOutStageCallback(PCD_HandleTypeDef *hpcd, uint8_t epnum)
 126:USB_DEVICE/Target/usbd_conf.c **** #else
 127:USB_DEVICE/Target/usbd_conf.c **** void HAL_PCD_DataOutStageCallback(PCD_HandleTypeDef *hpcd, uint8_t epnum)
 128:USB_DEVICE/Target/usbd_conf.c **** #endif /* USE_HAL_PCD_REGISTER_CALLBACKS */
 129:USB_DEVICE/Target/usbd_conf.c **** {
 130:USB_DEVICE/Target/usbd_conf.c ****   USBD_LL_DataOutStage((USBD_HandleTypeDef*)hpcd->pData, epnum, hpcd->OUT_ep[epnum].xfer_buff);
 131:USB_DEVICE/Target/usbd_conf.c **** }
 132:USB_DEVICE/Target/usbd_conf.c **** 
 133:USB_DEVICE/Target/usbd_conf.c **** /**
 134:USB_DEVICE/Target/usbd_conf.c ****   * @brief  Data In stage callback.
 135:USB_DEVICE/Target/usbd_conf.c ****   * @param  hpcd: PCD handle
 136:USB_DEVICE/Target/usbd_conf.c ****   * @param  epnum: Endpoint number
 137:USB_DEVICE/Target/usbd_conf.c ****   * @retval None
 138:USB_DEVICE/Target/usbd_conf.c ****   */
 139:USB_DEVICE/Target/usbd_conf.c **** #if (USE_HAL_PCD_REGISTER_CALLBACKS == 1U)
 140:USB_DEVICE/Target/usbd_conf.c **** static void PCD_DataInStageCallback(PCD_HandleTypeDef *hpcd, uint8_t epnum)
 141:USB_DEVICE/Target/usbd_conf.c **** #else
 142:USB_DEVICE/Target/usbd_conf.c **** void HAL_PCD_DataInStageCallback(PCD_HandleTypeDef *hpcd, uint8_t epnum)
 143:USB_DEVICE/Target/usbd_conf.c **** #endif /* USE_HAL_PCD_REGISTER_CALLBACKS */
 144:USB_DEVICE/Target/usbd_conf.c **** {
 145:USB_DEVICE/Target/usbd_conf.c ****   USBD_LL_DataInStage((USBD_HandleTypeDef*)hpcd->pData, epnum, hpcd->IN_ep[epnum].xfer_buff);
 146:USB_DEVICE/Target/usbd_conf.c **** }
ARM GAS  /tmp/ccCXsivu.s 			page 4


 147:USB_DEVICE/Target/usbd_conf.c **** 
 148:USB_DEVICE/Target/usbd_conf.c **** /**
 149:USB_DEVICE/Target/usbd_conf.c ****   * @brief  SOF callback.
 150:USB_DEVICE/Target/usbd_conf.c ****   * @param  hpcd: PCD handle
 151:USB_DEVICE/Target/usbd_conf.c ****   * @retval None
 152:USB_DEVICE/Target/usbd_conf.c ****   */
 153:USB_DEVICE/Target/usbd_conf.c **** #if (USE_HAL_PCD_REGISTER_CALLBACKS == 1U)
 154:USB_DEVICE/Target/usbd_conf.c **** static void PCD_SOFCallback(PCD_HandleTypeDef *hpcd)
 155:USB_DEVICE/Target/usbd_conf.c **** #else
 156:USB_DEVICE/Target/usbd_conf.c **** void HAL_PCD_SOFCallback(PCD_HandleTypeDef *hpcd)
 157:USB_DEVICE/Target/usbd_conf.c **** #endif /* USE_HAL_PCD_REGISTER_CALLBACKS */
 158:USB_DEVICE/Target/usbd_conf.c **** {
 159:USB_DEVICE/Target/usbd_conf.c ****   USBD_LL_SOF((USBD_HandleTypeDef*)hpcd->pData);
 160:USB_DEVICE/Target/usbd_conf.c **** }
 161:USB_DEVICE/Target/usbd_conf.c **** 
 162:USB_DEVICE/Target/usbd_conf.c **** /**
 163:USB_DEVICE/Target/usbd_conf.c ****   * @brief  Reset callback.
 164:USB_DEVICE/Target/usbd_conf.c ****   * @param  hpcd: PCD handle
 165:USB_DEVICE/Target/usbd_conf.c ****   * @retval None
 166:USB_DEVICE/Target/usbd_conf.c ****   */
 167:USB_DEVICE/Target/usbd_conf.c **** #if (USE_HAL_PCD_REGISTER_CALLBACKS == 1U)
 168:USB_DEVICE/Target/usbd_conf.c **** static void PCD_ResetCallback(PCD_HandleTypeDef *hpcd)
 169:USB_DEVICE/Target/usbd_conf.c **** #else
 170:USB_DEVICE/Target/usbd_conf.c **** void HAL_PCD_ResetCallback(PCD_HandleTypeDef *hpcd)
 171:USB_DEVICE/Target/usbd_conf.c **** #endif /* USE_HAL_PCD_REGISTER_CALLBACKS */
 172:USB_DEVICE/Target/usbd_conf.c **** {
 173:USB_DEVICE/Target/usbd_conf.c ****   USBD_SpeedTypeDef speed = USBD_SPEED_FULL;
 174:USB_DEVICE/Target/usbd_conf.c **** 
 175:USB_DEVICE/Target/usbd_conf.c ****   if ( hpcd->Init.speed != PCD_SPEED_FULL)
 176:USB_DEVICE/Target/usbd_conf.c ****   {
 177:USB_DEVICE/Target/usbd_conf.c ****     Error_Handler();
 178:USB_DEVICE/Target/usbd_conf.c ****   }
 179:USB_DEVICE/Target/usbd_conf.c ****     /* Set Speed. */
 180:USB_DEVICE/Target/usbd_conf.c ****   USBD_LL_SetSpeed((USBD_HandleTypeDef*)hpcd->pData, speed);
 181:USB_DEVICE/Target/usbd_conf.c **** 
 182:USB_DEVICE/Target/usbd_conf.c ****   /* Reset Device. */
 183:USB_DEVICE/Target/usbd_conf.c ****   USBD_LL_Reset((USBD_HandleTypeDef*)hpcd->pData);
 184:USB_DEVICE/Target/usbd_conf.c **** }
 185:USB_DEVICE/Target/usbd_conf.c **** 
 186:USB_DEVICE/Target/usbd_conf.c **** /**
 187:USB_DEVICE/Target/usbd_conf.c ****   * @brief  Suspend callback.
 188:USB_DEVICE/Target/usbd_conf.c ****   * When Low power mode is enabled the debug cannot be used (IAR, Keil doesn't support it)
 189:USB_DEVICE/Target/usbd_conf.c ****   * @param  hpcd: PCD handle
 190:USB_DEVICE/Target/usbd_conf.c ****   * @retval None
 191:USB_DEVICE/Target/usbd_conf.c ****   */
 192:USB_DEVICE/Target/usbd_conf.c **** #if (USE_HAL_PCD_REGISTER_CALLBACKS == 1U)
 193:USB_DEVICE/Target/usbd_conf.c **** static void PCD_SuspendCallback(PCD_HandleTypeDef *hpcd)
 194:USB_DEVICE/Target/usbd_conf.c **** #else
 195:USB_DEVICE/Target/usbd_conf.c **** void HAL_PCD_SuspendCallback(PCD_HandleTypeDef *hpcd)
 196:USB_DEVICE/Target/usbd_conf.c **** #endif /* USE_HAL_PCD_REGISTER_CALLBACKS */
 197:USB_DEVICE/Target/usbd_conf.c **** {
 198:USB_DEVICE/Target/usbd_conf.c ****   /* Inform USB library that core enters in suspend Mode. */
 199:USB_DEVICE/Target/usbd_conf.c ****   USBD_LL_Suspend((USBD_HandleTypeDef*)hpcd->pData);
 200:USB_DEVICE/Target/usbd_conf.c ****   /* Enter in STOP mode. */
 201:USB_DEVICE/Target/usbd_conf.c ****   /* USER CODE BEGIN 2 */
 202:USB_DEVICE/Target/usbd_conf.c ****   if (hpcd->Init.low_power_enable)
 203:USB_DEVICE/Target/usbd_conf.c ****   {
ARM GAS  /tmp/ccCXsivu.s 			page 5


 204:USB_DEVICE/Target/usbd_conf.c ****     /* Set SLEEPDEEP bit and SleepOnExit of Cortex System Control Register. */
 205:USB_DEVICE/Target/usbd_conf.c ****     SCB->SCR |= (uint32_t)((uint32_t)(SCB_SCR_SLEEPDEEP_Msk | SCB_SCR_SLEEPONEXIT_Msk));
 206:USB_DEVICE/Target/usbd_conf.c ****   }
 207:USB_DEVICE/Target/usbd_conf.c ****   /* USER CODE END 2 */
 208:USB_DEVICE/Target/usbd_conf.c **** }
 209:USB_DEVICE/Target/usbd_conf.c **** 
 210:USB_DEVICE/Target/usbd_conf.c **** /**
 211:USB_DEVICE/Target/usbd_conf.c ****   * @brief  Resume callback.
 212:USB_DEVICE/Target/usbd_conf.c ****   * When Low power mode is enabled the debug cannot be used (IAR, Keil doesn't support it)
 213:USB_DEVICE/Target/usbd_conf.c ****   * @param  hpcd: PCD handle
 214:USB_DEVICE/Target/usbd_conf.c ****   * @retval None
 215:USB_DEVICE/Target/usbd_conf.c ****   */
 216:USB_DEVICE/Target/usbd_conf.c **** #if (USE_HAL_PCD_REGISTER_CALLBACKS == 1U)
 217:USB_DEVICE/Target/usbd_conf.c **** static void PCD_ResumeCallback(PCD_HandleTypeDef *hpcd)
 218:USB_DEVICE/Target/usbd_conf.c **** #else
 219:USB_DEVICE/Target/usbd_conf.c **** void HAL_PCD_ResumeCallback(PCD_HandleTypeDef *hpcd)
 220:USB_DEVICE/Target/usbd_conf.c **** #endif /* USE_HAL_PCD_REGISTER_CALLBACKS */
 221:USB_DEVICE/Target/usbd_conf.c **** {
 222:USB_DEVICE/Target/usbd_conf.c ****   /* USER CODE BEGIN 3 */
 223:USB_DEVICE/Target/usbd_conf.c ****   if (hpcd->Init.low_power_enable)
 224:USB_DEVICE/Target/usbd_conf.c ****   {
 225:USB_DEVICE/Target/usbd_conf.c ****     /* Reset SLEEPDEEP bit of Cortex System Control Register. */
 226:USB_DEVICE/Target/usbd_conf.c ****     SCB->SCR &= (uint32_t)~((uint32_t)(SCB_SCR_SLEEPDEEP_Msk | SCB_SCR_SLEEPONEXIT_Msk));
 227:USB_DEVICE/Target/usbd_conf.c ****     SystemClockConfig_Resume();
 228:USB_DEVICE/Target/usbd_conf.c ****   }
 229:USB_DEVICE/Target/usbd_conf.c ****   /* USER CODE END 3 */
 230:USB_DEVICE/Target/usbd_conf.c ****   USBD_LL_Resume((USBD_HandleTypeDef*)hpcd->pData);
 231:USB_DEVICE/Target/usbd_conf.c **** }
 232:USB_DEVICE/Target/usbd_conf.c **** 
 233:USB_DEVICE/Target/usbd_conf.c **** /**
 234:USB_DEVICE/Target/usbd_conf.c ****   * @brief  ISOOUTIncomplete callback.
 235:USB_DEVICE/Target/usbd_conf.c ****   * @param  hpcd: PCD handle
 236:USB_DEVICE/Target/usbd_conf.c ****   * @param  epnum: Endpoint number
 237:USB_DEVICE/Target/usbd_conf.c ****   * @retval None
 238:USB_DEVICE/Target/usbd_conf.c ****   */
 239:USB_DEVICE/Target/usbd_conf.c **** #if (USE_HAL_PCD_REGISTER_CALLBACKS == 1U)
 240:USB_DEVICE/Target/usbd_conf.c **** static void PCD_ISOOUTIncompleteCallback(PCD_HandleTypeDef *hpcd, uint8_t epnum)
 241:USB_DEVICE/Target/usbd_conf.c **** #else
 242:USB_DEVICE/Target/usbd_conf.c **** void HAL_PCD_ISOOUTIncompleteCallback(PCD_HandleTypeDef *hpcd, uint8_t epnum)
 243:USB_DEVICE/Target/usbd_conf.c **** #endif /* USE_HAL_PCD_REGISTER_CALLBACKS */
 244:USB_DEVICE/Target/usbd_conf.c **** {
 245:USB_DEVICE/Target/usbd_conf.c ****   USBD_LL_IsoOUTIncomplete((USBD_HandleTypeDef*)hpcd->pData, epnum);
 246:USB_DEVICE/Target/usbd_conf.c **** }
 247:USB_DEVICE/Target/usbd_conf.c **** 
 248:USB_DEVICE/Target/usbd_conf.c **** /**
 249:USB_DEVICE/Target/usbd_conf.c ****   * @brief  ISOINIncomplete callback.
 250:USB_DEVICE/Target/usbd_conf.c ****   * @param  hpcd: PCD handle
 251:USB_DEVICE/Target/usbd_conf.c ****   * @param  epnum: Endpoint number
 252:USB_DEVICE/Target/usbd_conf.c ****   * @retval None
 253:USB_DEVICE/Target/usbd_conf.c ****   */
 254:USB_DEVICE/Target/usbd_conf.c **** #if (USE_HAL_PCD_REGISTER_CALLBACKS == 1U)
 255:USB_DEVICE/Target/usbd_conf.c **** static void PCD_ISOINIncompleteCallback(PCD_HandleTypeDef *hpcd, uint8_t epnum)
 256:USB_DEVICE/Target/usbd_conf.c **** #else
 257:USB_DEVICE/Target/usbd_conf.c **** void HAL_PCD_ISOINIncompleteCallback(PCD_HandleTypeDef *hpcd, uint8_t epnum)
 258:USB_DEVICE/Target/usbd_conf.c **** #endif /* USE_HAL_PCD_REGISTER_CALLBACKS */
 259:USB_DEVICE/Target/usbd_conf.c **** {
 260:USB_DEVICE/Target/usbd_conf.c ****   USBD_LL_IsoINIncomplete((USBD_HandleTypeDef*)hpcd->pData, epnum);
ARM GAS  /tmp/ccCXsivu.s 			page 6


 261:USB_DEVICE/Target/usbd_conf.c **** }
 262:USB_DEVICE/Target/usbd_conf.c **** 
 263:USB_DEVICE/Target/usbd_conf.c **** /**
 264:USB_DEVICE/Target/usbd_conf.c ****   * @brief  Connect callback.
 265:USB_DEVICE/Target/usbd_conf.c ****   * @param  hpcd: PCD handle
 266:USB_DEVICE/Target/usbd_conf.c ****   * @retval None
 267:USB_DEVICE/Target/usbd_conf.c ****   */
 268:USB_DEVICE/Target/usbd_conf.c **** #if (USE_HAL_PCD_REGISTER_CALLBACKS == 1U)
 269:USB_DEVICE/Target/usbd_conf.c **** static void PCD_ConnectCallback(PCD_HandleTypeDef *hpcd)
 270:USB_DEVICE/Target/usbd_conf.c **** #else
 271:USB_DEVICE/Target/usbd_conf.c **** void HAL_PCD_ConnectCallback(PCD_HandleTypeDef *hpcd)
 272:USB_DEVICE/Target/usbd_conf.c **** #endif /* USE_HAL_PCD_REGISTER_CALLBACKS */
 273:USB_DEVICE/Target/usbd_conf.c **** {
 274:USB_DEVICE/Target/usbd_conf.c ****   USBD_LL_DevConnected((USBD_HandleTypeDef*)hpcd->pData);
 275:USB_DEVICE/Target/usbd_conf.c **** }
 276:USB_DEVICE/Target/usbd_conf.c **** 
 277:USB_DEVICE/Target/usbd_conf.c **** /**
 278:USB_DEVICE/Target/usbd_conf.c ****   * @brief  Disconnect callback.
 279:USB_DEVICE/Target/usbd_conf.c ****   * @param  hpcd: PCD handle
 280:USB_DEVICE/Target/usbd_conf.c ****   * @retval None
 281:USB_DEVICE/Target/usbd_conf.c ****   */
 282:USB_DEVICE/Target/usbd_conf.c **** #if (USE_HAL_PCD_REGISTER_CALLBACKS == 1U)
 283:USB_DEVICE/Target/usbd_conf.c **** static void PCD_DisconnectCallback(PCD_HandleTypeDef *hpcd)
 284:USB_DEVICE/Target/usbd_conf.c **** #else
 285:USB_DEVICE/Target/usbd_conf.c **** void HAL_PCD_DisconnectCallback(PCD_HandleTypeDef *hpcd)
 286:USB_DEVICE/Target/usbd_conf.c **** #endif /* USE_HAL_PCD_REGISTER_CALLBACKS */
 287:USB_DEVICE/Target/usbd_conf.c **** {
 288:USB_DEVICE/Target/usbd_conf.c ****   USBD_LL_DevDisconnected((USBD_HandleTypeDef*)hpcd->pData);
 289:USB_DEVICE/Target/usbd_conf.c **** }
 290:USB_DEVICE/Target/usbd_conf.c **** 
 291:USB_DEVICE/Target/usbd_conf.c **** /*******************************************************************************
 292:USB_DEVICE/Target/usbd_conf.c ****                        LL Driver Interface (USB Device Library --> PCD)
 293:USB_DEVICE/Target/usbd_conf.c **** *******************************************************************************/
 294:USB_DEVICE/Target/usbd_conf.c **** 
 295:USB_DEVICE/Target/usbd_conf.c **** /**
 296:USB_DEVICE/Target/usbd_conf.c ****   * @brief  Initializes the low level portion of the device driver.
 297:USB_DEVICE/Target/usbd_conf.c ****   * @param  pdev: Device handle
 298:USB_DEVICE/Target/usbd_conf.c ****   * @retval USBD status
 299:USB_DEVICE/Target/usbd_conf.c ****   */
 300:USB_DEVICE/Target/usbd_conf.c **** USBD_StatusTypeDef USBD_LL_Init(USBD_HandleTypeDef *pdev)
 301:USB_DEVICE/Target/usbd_conf.c **** {
 302:USB_DEVICE/Target/usbd_conf.c ****   /* Init USB Ip. */
 303:USB_DEVICE/Target/usbd_conf.c ****   /* Link the driver to the stack. */
 304:USB_DEVICE/Target/usbd_conf.c ****   hpcd_USB_FS.pData = pdev;
 305:USB_DEVICE/Target/usbd_conf.c ****   pdev->pData = &hpcd_USB_FS;
 306:USB_DEVICE/Target/usbd_conf.c **** 
 307:USB_DEVICE/Target/usbd_conf.c ****   hpcd_USB_FS.Instance = USB;
 308:USB_DEVICE/Target/usbd_conf.c ****   hpcd_USB_FS.Init.dev_endpoints = 8;
 309:USB_DEVICE/Target/usbd_conf.c ****   hpcd_USB_FS.Init.speed = PCD_SPEED_FULL;
 310:USB_DEVICE/Target/usbd_conf.c ****   hpcd_USB_FS.Init.phy_itface = PCD_PHY_EMBEDDED;
 311:USB_DEVICE/Target/usbd_conf.c ****   hpcd_USB_FS.Init.low_power_enable = DISABLE;
 312:USB_DEVICE/Target/usbd_conf.c ****   hpcd_USB_FS.Init.lpm_enable = DISABLE;
 313:USB_DEVICE/Target/usbd_conf.c ****   hpcd_USB_FS.Init.battery_charging_enable = DISABLE;
 314:USB_DEVICE/Target/usbd_conf.c ****   if (HAL_PCD_Init(&hpcd_USB_FS) != HAL_OK)
 315:USB_DEVICE/Target/usbd_conf.c ****   {
 316:USB_DEVICE/Target/usbd_conf.c ****     Error_Handler( );
 317:USB_DEVICE/Target/usbd_conf.c ****   }
ARM GAS  /tmp/ccCXsivu.s 			page 7


 318:USB_DEVICE/Target/usbd_conf.c **** 
 319:USB_DEVICE/Target/usbd_conf.c **** #if (USE_HAL_PCD_REGISTER_CALLBACKS == 1U)
 320:USB_DEVICE/Target/usbd_conf.c ****   /* Register USB PCD CallBacks */
 321:USB_DEVICE/Target/usbd_conf.c ****   HAL_PCD_RegisterCallback(&hpcd_USB_FS, HAL_PCD_SOF_CB_ID, PCD_SOFCallback);
 322:USB_DEVICE/Target/usbd_conf.c ****   HAL_PCD_RegisterCallback(&hpcd_USB_FS, HAL_PCD_SETUPSTAGE_CB_ID, PCD_SetupStageCallback);
 323:USB_DEVICE/Target/usbd_conf.c ****   HAL_PCD_RegisterCallback(&hpcd_USB_FS, HAL_PCD_RESET_CB_ID, PCD_ResetCallback);
 324:USB_DEVICE/Target/usbd_conf.c ****   HAL_PCD_RegisterCallback(&hpcd_USB_FS, HAL_PCD_SUSPEND_CB_ID, PCD_SuspendCallback);
 325:USB_DEVICE/Target/usbd_conf.c ****   HAL_PCD_RegisterCallback(&hpcd_USB_FS, HAL_PCD_RESUME_CB_ID, PCD_ResumeCallback);
 326:USB_DEVICE/Target/usbd_conf.c ****   HAL_PCD_RegisterCallback(&hpcd_USB_FS, HAL_PCD_CONNECT_CB_ID, PCD_ConnectCallback);
 327:USB_DEVICE/Target/usbd_conf.c ****   HAL_PCD_RegisterCallback(&hpcd_USB_FS, HAL_PCD_DISCONNECT_CB_ID, PCD_DisconnectCallback);
 328:USB_DEVICE/Target/usbd_conf.c **** 
 329:USB_DEVICE/Target/usbd_conf.c ****   HAL_PCD_RegisterDataOutStageCallback(&hpcd_USB_FS, PCD_DataOutStageCallback);
 330:USB_DEVICE/Target/usbd_conf.c ****   HAL_PCD_RegisterDataInStageCallback(&hpcd_USB_FS, PCD_DataInStageCallback);
 331:USB_DEVICE/Target/usbd_conf.c ****   HAL_PCD_RegisterIsoOutIncpltCallback(&hpcd_USB_FS, PCD_ISOOUTIncompleteCallback);
 332:USB_DEVICE/Target/usbd_conf.c ****   HAL_PCD_RegisterIsoInIncpltCallback(&hpcd_USB_FS, PCD_ISOINIncompleteCallback);
 333:USB_DEVICE/Target/usbd_conf.c **** #endif /* USE_HAL_PCD_REGISTER_CALLBACKS */
 334:USB_DEVICE/Target/usbd_conf.c ****   /* USER CODE BEGIN EndPoint_Configuration */
 335:USB_DEVICE/Target/usbd_conf.c ****   HAL_PCDEx_PMAConfig((PCD_HandleTypeDef*)pdev->pData , 0x00 , PCD_SNG_BUF, 0x18);
 336:USB_DEVICE/Target/usbd_conf.c ****   HAL_PCDEx_PMAConfig((PCD_HandleTypeDef*)pdev->pData , 0x80 , PCD_SNG_BUF, 0x58);
 337:USB_DEVICE/Target/usbd_conf.c ****   /* USER CODE END EndPoint_Configuration */
 338:USB_DEVICE/Target/usbd_conf.c ****   /* USER CODE BEGIN EndPoint_Configuration_CDC */
 339:USB_DEVICE/Target/usbd_conf.c ****   HAL_PCDEx_PMAConfig((PCD_HandleTypeDef*)pdev->pData , 0x81 , PCD_SNG_BUF, 0xC0);
 340:USB_DEVICE/Target/usbd_conf.c ****   HAL_PCDEx_PMAConfig((PCD_HandleTypeDef*)pdev->pData , 0x01 , PCD_SNG_BUF, 0x110);
 341:USB_DEVICE/Target/usbd_conf.c ****   HAL_PCDEx_PMAConfig((PCD_HandleTypeDef*)pdev->pData , 0x82 , PCD_SNG_BUF, 0x100);
 342:USB_DEVICE/Target/usbd_conf.c ****   /* USER CODE END EndPoint_Configuration_CDC */
 343:USB_DEVICE/Target/usbd_conf.c ****   return USBD_OK;
 344:USB_DEVICE/Target/usbd_conf.c **** }
 345:USB_DEVICE/Target/usbd_conf.c **** 
 346:USB_DEVICE/Target/usbd_conf.c **** /**
 347:USB_DEVICE/Target/usbd_conf.c ****   * @brief  De-Initializes the low level portion of the device driver.
 348:USB_DEVICE/Target/usbd_conf.c ****   * @param  pdev: Device handle
 349:USB_DEVICE/Target/usbd_conf.c ****   * @retval USBD status
 350:USB_DEVICE/Target/usbd_conf.c ****   */
 351:USB_DEVICE/Target/usbd_conf.c **** USBD_StatusTypeDef USBD_LL_DeInit(USBD_HandleTypeDef *pdev)
 352:USB_DEVICE/Target/usbd_conf.c **** {
 353:USB_DEVICE/Target/usbd_conf.c ****   HAL_StatusTypeDef hal_status = HAL_OK;
 354:USB_DEVICE/Target/usbd_conf.c ****   USBD_StatusTypeDef usb_status = USBD_OK;
 355:USB_DEVICE/Target/usbd_conf.c **** 
 356:USB_DEVICE/Target/usbd_conf.c ****   hal_status = HAL_PCD_DeInit(pdev->pData);
 357:USB_DEVICE/Target/usbd_conf.c **** 
 358:USB_DEVICE/Target/usbd_conf.c ****   usb_status =  USBD_Get_USB_Status(hal_status);
 359:USB_DEVICE/Target/usbd_conf.c **** 
 360:USB_DEVICE/Target/usbd_conf.c ****   return usb_status;
 361:USB_DEVICE/Target/usbd_conf.c **** }
 362:USB_DEVICE/Target/usbd_conf.c **** 
 363:USB_DEVICE/Target/usbd_conf.c **** /**
 364:USB_DEVICE/Target/usbd_conf.c ****   * @brief  Starts the low level portion of the device driver.
 365:USB_DEVICE/Target/usbd_conf.c ****   * @param  pdev: Device handle
 366:USB_DEVICE/Target/usbd_conf.c ****   * @retval USBD status
 367:USB_DEVICE/Target/usbd_conf.c ****   */
 368:USB_DEVICE/Target/usbd_conf.c **** USBD_StatusTypeDef USBD_LL_Start(USBD_HandleTypeDef *pdev)
 369:USB_DEVICE/Target/usbd_conf.c **** {
 370:USB_DEVICE/Target/usbd_conf.c ****   HAL_StatusTypeDef hal_status = HAL_OK;
 371:USB_DEVICE/Target/usbd_conf.c ****   USBD_StatusTypeDef usb_status = USBD_OK;
 372:USB_DEVICE/Target/usbd_conf.c **** 
 373:USB_DEVICE/Target/usbd_conf.c ****   hal_status = HAL_PCD_Start(pdev->pData);
 374:USB_DEVICE/Target/usbd_conf.c **** 
ARM GAS  /tmp/ccCXsivu.s 			page 8


 375:USB_DEVICE/Target/usbd_conf.c ****   usb_status =  USBD_Get_USB_Status(hal_status);
 376:USB_DEVICE/Target/usbd_conf.c **** 
 377:USB_DEVICE/Target/usbd_conf.c ****   return usb_status;
 378:USB_DEVICE/Target/usbd_conf.c **** }
 379:USB_DEVICE/Target/usbd_conf.c **** 
 380:USB_DEVICE/Target/usbd_conf.c **** /**
 381:USB_DEVICE/Target/usbd_conf.c ****   * @brief  Stops the low level portion of the device driver.
 382:USB_DEVICE/Target/usbd_conf.c ****   * @param  pdev: Device handle
 383:USB_DEVICE/Target/usbd_conf.c ****   * @retval USBD status
 384:USB_DEVICE/Target/usbd_conf.c ****   */
 385:USB_DEVICE/Target/usbd_conf.c **** USBD_StatusTypeDef USBD_LL_Stop(USBD_HandleTypeDef *pdev)
 386:USB_DEVICE/Target/usbd_conf.c **** {
 387:USB_DEVICE/Target/usbd_conf.c ****   HAL_StatusTypeDef hal_status = HAL_OK;
 388:USB_DEVICE/Target/usbd_conf.c ****   USBD_StatusTypeDef usb_status = USBD_OK;
 389:USB_DEVICE/Target/usbd_conf.c **** 
 390:USB_DEVICE/Target/usbd_conf.c ****   hal_status = HAL_PCD_Stop(pdev->pData);
 391:USB_DEVICE/Target/usbd_conf.c **** 
 392:USB_DEVICE/Target/usbd_conf.c ****   usb_status =  USBD_Get_USB_Status(hal_status);
 393:USB_DEVICE/Target/usbd_conf.c **** 
 394:USB_DEVICE/Target/usbd_conf.c ****   return usb_status;
 395:USB_DEVICE/Target/usbd_conf.c **** }
 396:USB_DEVICE/Target/usbd_conf.c **** 
 397:USB_DEVICE/Target/usbd_conf.c **** /**
 398:USB_DEVICE/Target/usbd_conf.c ****   * @brief  Opens an endpoint of the low level driver.
 399:USB_DEVICE/Target/usbd_conf.c ****   * @param  pdev: Device handle
 400:USB_DEVICE/Target/usbd_conf.c ****   * @param  ep_addr: Endpoint number
 401:USB_DEVICE/Target/usbd_conf.c ****   * @param  ep_type: Endpoint type
 402:USB_DEVICE/Target/usbd_conf.c ****   * @param  ep_mps: Endpoint max packet size
 403:USB_DEVICE/Target/usbd_conf.c ****   * @retval USBD status
 404:USB_DEVICE/Target/usbd_conf.c ****   */
 405:USB_DEVICE/Target/usbd_conf.c **** USBD_StatusTypeDef USBD_LL_OpenEP(USBD_HandleTypeDef *pdev, uint8_t ep_addr, uint8_t ep_type, uint1
 406:USB_DEVICE/Target/usbd_conf.c **** {
 407:USB_DEVICE/Target/usbd_conf.c ****   HAL_StatusTypeDef hal_status = HAL_OK;
 408:USB_DEVICE/Target/usbd_conf.c ****   USBD_StatusTypeDef usb_status = USBD_OK;
 409:USB_DEVICE/Target/usbd_conf.c **** 
 410:USB_DEVICE/Target/usbd_conf.c ****   hal_status = HAL_PCD_EP_Open(pdev->pData, ep_addr, ep_mps, ep_type);
 411:USB_DEVICE/Target/usbd_conf.c **** 
 412:USB_DEVICE/Target/usbd_conf.c ****   usb_status =  USBD_Get_USB_Status(hal_status);
 413:USB_DEVICE/Target/usbd_conf.c **** 
 414:USB_DEVICE/Target/usbd_conf.c ****   return usb_status;
 415:USB_DEVICE/Target/usbd_conf.c **** }
 416:USB_DEVICE/Target/usbd_conf.c **** 
 417:USB_DEVICE/Target/usbd_conf.c **** /**
 418:USB_DEVICE/Target/usbd_conf.c ****   * @brief  Closes an endpoint of the low level driver.
 419:USB_DEVICE/Target/usbd_conf.c ****   * @param  pdev: Device handle
 420:USB_DEVICE/Target/usbd_conf.c ****   * @param  ep_addr: Endpoint number
 421:USB_DEVICE/Target/usbd_conf.c ****   * @retval USBD status
 422:USB_DEVICE/Target/usbd_conf.c ****   */
 423:USB_DEVICE/Target/usbd_conf.c **** USBD_StatusTypeDef USBD_LL_CloseEP(USBD_HandleTypeDef *pdev, uint8_t ep_addr)
 424:USB_DEVICE/Target/usbd_conf.c **** {
 425:USB_DEVICE/Target/usbd_conf.c ****   HAL_StatusTypeDef hal_status = HAL_OK;
 426:USB_DEVICE/Target/usbd_conf.c ****   USBD_StatusTypeDef usb_status = USBD_OK;
 427:USB_DEVICE/Target/usbd_conf.c **** 
 428:USB_DEVICE/Target/usbd_conf.c ****   hal_status = HAL_PCD_EP_Close(pdev->pData, ep_addr);
 429:USB_DEVICE/Target/usbd_conf.c **** 
 430:USB_DEVICE/Target/usbd_conf.c ****   usb_status =  USBD_Get_USB_Status(hal_status);
 431:USB_DEVICE/Target/usbd_conf.c **** 
ARM GAS  /tmp/ccCXsivu.s 			page 9


 432:USB_DEVICE/Target/usbd_conf.c ****   return usb_status;
 433:USB_DEVICE/Target/usbd_conf.c **** }
 434:USB_DEVICE/Target/usbd_conf.c **** 
 435:USB_DEVICE/Target/usbd_conf.c **** /**
 436:USB_DEVICE/Target/usbd_conf.c ****   * @brief  Flushes an endpoint of the Low Level Driver.
 437:USB_DEVICE/Target/usbd_conf.c ****   * @param  pdev: Device handle
 438:USB_DEVICE/Target/usbd_conf.c ****   * @param  ep_addr: Endpoint number
 439:USB_DEVICE/Target/usbd_conf.c ****   * @retval USBD status
 440:USB_DEVICE/Target/usbd_conf.c ****   */
 441:USB_DEVICE/Target/usbd_conf.c **** USBD_StatusTypeDef USBD_LL_FlushEP(USBD_HandleTypeDef *pdev, uint8_t ep_addr)
 442:USB_DEVICE/Target/usbd_conf.c **** {
 443:USB_DEVICE/Target/usbd_conf.c ****   HAL_StatusTypeDef hal_status = HAL_OK;
 444:USB_DEVICE/Target/usbd_conf.c ****   USBD_StatusTypeDef usb_status = USBD_OK;
 445:USB_DEVICE/Target/usbd_conf.c **** 
 446:USB_DEVICE/Target/usbd_conf.c ****   hal_status = HAL_PCD_EP_Flush(pdev->pData, ep_addr);
 447:USB_DEVICE/Target/usbd_conf.c **** 
 448:USB_DEVICE/Target/usbd_conf.c ****   usb_status =  USBD_Get_USB_Status(hal_status);
 449:USB_DEVICE/Target/usbd_conf.c **** 
 450:USB_DEVICE/Target/usbd_conf.c ****   return usb_status;
 451:USB_DEVICE/Target/usbd_conf.c **** }
 452:USB_DEVICE/Target/usbd_conf.c **** 
 453:USB_DEVICE/Target/usbd_conf.c **** /**
 454:USB_DEVICE/Target/usbd_conf.c ****   * @brief  Sets a Stall condition on an endpoint of the Low Level Driver.
 455:USB_DEVICE/Target/usbd_conf.c ****   * @param  pdev: Device handle
 456:USB_DEVICE/Target/usbd_conf.c ****   * @param  ep_addr: Endpoint number
 457:USB_DEVICE/Target/usbd_conf.c ****   * @retval USBD status
 458:USB_DEVICE/Target/usbd_conf.c ****   */
 459:USB_DEVICE/Target/usbd_conf.c **** USBD_StatusTypeDef USBD_LL_StallEP(USBD_HandleTypeDef *pdev, uint8_t ep_addr)
 460:USB_DEVICE/Target/usbd_conf.c **** {
 461:USB_DEVICE/Target/usbd_conf.c ****   HAL_StatusTypeDef hal_status = HAL_OK;
 462:USB_DEVICE/Target/usbd_conf.c ****   USBD_StatusTypeDef usb_status = USBD_OK;
 463:USB_DEVICE/Target/usbd_conf.c **** 
 464:USB_DEVICE/Target/usbd_conf.c ****   hal_status = HAL_PCD_EP_SetStall(pdev->pData, ep_addr);
 465:USB_DEVICE/Target/usbd_conf.c **** 
 466:USB_DEVICE/Target/usbd_conf.c ****   usb_status =  USBD_Get_USB_Status(hal_status);
 467:USB_DEVICE/Target/usbd_conf.c **** 
 468:USB_DEVICE/Target/usbd_conf.c ****   return usb_status;
 469:USB_DEVICE/Target/usbd_conf.c **** }
 470:USB_DEVICE/Target/usbd_conf.c **** 
 471:USB_DEVICE/Target/usbd_conf.c **** /**
 472:USB_DEVICE/Target/usbd_conf.c ****   * @brief  Clears a Stall condition on an endpoint of the Low Level Driver.
 473:USB_DEVICE/Target/usbd_conf.c ****   * @param  pdev: Device handle
 474:USB_DEVICE/Target/usbd_conf.c ****   * @param  ep_addr: Endpoint number
 475:USB_DEVICE/Target/usbd_conf.c ****   * @retval USBD status
 476:USB_DEVICE/Target/usbd_conf.c ****   */
 477:USB_DEVICE/Target/usbd_conf.c **** USBD_StatusTypeDef USBD_LL_ClearStallEP(USBD_HandleTypeDef *pdev, uint8_t ep_addr)
 478:USB_DEVICE/Target/usbd_conf.c **** {
 479:USB_DEVICE/Target/usbd_conf.c ****   HAL_StatusTypeDef hal_status = HAL_OK;
 480:USB_DEVICE/Target/usbd_conf.c ****   USBD_StatusTypeDef usb_status = USBD_OK;
 481:USB_DEVICE/Target/usbd_conf.c **** 
 482:USB_DEVICE/Target/usbd_conf.c ****   hal_status = HAL_PCD_EP_ClrStall(pdev->pData, ep_addr);
 483:USB_DEVICE/Target/usbd_conf.c **** 
 484:USB_DEVICE/Target/usbd_conf.c ****   usb_status =  USBD_Get_USB_Status(hal_status);
 485:USB_DEVICE/Target/usbd_conf.c **** 
 486:USB_DEVICE/Target/usbd_conf.c ****   return usb_status;
 487:USB_DEVICE/Target/usbd_conf.c **** }
 488:USB_DEVICE/Target/usbd_conf.c **** 
ARM GAS  /tmp/ccCXsivu.s 			page 10


 489:USB_DEVICE/Target/usbd_conf.c **** /**
 490:USB_DEVICE/Target/usbd_conf.c ****   * @brief  Returns Stall condition.
 491:USB_DEVICE/Target/usbd_conf.c ****   * @param  pdev: Device handle
 492:USB_DEVICE/Target/usbd_conf.c ****   * @param  ep_addr: Endpoint number
 493:USB_DEVICE/Target/usbd_conf.c ****   * @retval Stall (1: Yes, 0: No)
 494:USB_DEVICE/Target/usbd_conf.c ****   */
 495:USB_DEVICE/Target/usbd_conf.c **** uint8_t USBD_LL_IsStallEP(USBD_HandleTypeDef *pdev, uint8_t ep_addr)
 496:USB_DEVICE/Target/usbd_conf.c **** {
 497:USB_DEVICE/Target/usbd_conf.c ****   PCD_HandleTypeDef *hpcd = (PCD_HandleTypeDef*) pdev->pData;
 498:USB_DEVICE/Target/usbd_conf.c **** 
 499:USB_DEVICE/Target/usbd_conf.c ****   if((ep_addr & 0x80) == 0x80)
 500:USB_DEVICE/Target/usbd_conf.c ****   {
 501:USB_DEVICE/Target/usbd_conf.c ****     return hpcd->IN_ep[ep_addr & 0x7F].is_stall;
 502:USB_DEVICE/Target/usbd_conf.c ****   }
 503:USB_DEVICE/Target/usbd_conf.c ****   else
 504:USB_DEVICE/Target/usbd_conf.c ****   {
 505:USB_DEVICE/Target/usbd_conf.c ****     return hpcd->OUT_ep[ep_addr & 0x7F].is_stall;
 506:USB_DEVICE/Target/usbd_conf.c ****   }
 507:USB_DEVICE/Target/usbd_conf.c **** }
 508:USB_DEVICE/Target/usbd_conf.c **** 
 509:USB_DEVICE/Target/usbd_conf.c **** /**
 510:USB_DEVICE/Target/usbd_conf.c ****   * @brief  Assigns a USB address to the device.
 511:USB_DEVICE/Target/usbd_conf.c ****   * @param  pdev: Device handle
 512:USB_DEVICE/Target/usbd_conf.c ****   * @param  dev_addr: Device address
 513:USB_DEVICE/Target/usbd_conf.c ****   * @retval USBD status
 514:USB_DEVICE/Target/usbd_conf.c ****   */
 515:USB_DEVICE/Target/usbd_conf.c **** USBD_StatusTypeDef USBD_LL_SetUSBAddress(USBD_HandleTypeDef *pdev, uint8_t dev_addr)
 516:USB_DEVICE/Target/usbd_conf.c **** {
 517:USB_DEVICE/Target/usbd_conf.c ****   HAL_StatusTypeDef hal_status = HAL_OK;
 518:USB_DEVICE/Target/usbd_conf.c ****   USBD_StatusTypeDef usb_status = USBD_OK;
 519:USB_DEVICE/Target/usbd_conf.c **** 
 520:USB_DEVICE/Target/usbd_conf.c ****   hal_status = HAL_PCD_SetAddress(pdev->pData, dev_addr);
 521:USB_DEVICE/Target/usbd_conf.c **** 
 522:USB_DEVICE/Target/usbd_conf.c ****   usb_status =  USBD_Get_USB_Status(hal_status);
 523:USB_DEVICE/Target/usbd_conf.c **** 
 524:USB_DEVICE/Target/usbd_conf.c ****   return usb_status;
 525:USB_DEVICE/Target/usbd_conf.c **** }
 526:USB_DEVICE/Target/usbd_conf.c **** 
 527:USB_DEVICE/Target/usbd_conf.c **** /**
 528:USB_DEVICE/Target/usbd_conf.c ****   * @brief  Transmits data over an endpoint.
 529:USB_DEVICE/Target/usbd_conf.c ****   * @param  pdev: Device handle
 530:USB_DEVICE/Target/usbd_conf.c ****   * @param  ep_addr: Endpoint number
 531:USB_DEVICE/Target/usbd_conf.c ****   * @param  pbuf: Pointer to data to be sent
 532:USB_DEVICE/Target/usbd_conf.c ****   * @param  size: Data size
 533:USB_DEVICE/Target/usbd_conf.c ****   * @retval USBD status
 534:USB_DEVICE/Target/usbd_conf.c ****   */
 535:USB_DEVICE/Target/usbd_conf.c **** USBD_StatusTypeDef USBD_LL_Transmit(USBD_HandleTypeDef *pdev, uint8_t ep_addr, uint8_t *pbuf, uint1
 536:USB_DEVICE/Target/usbd_conf.c **** {
 537:USB_DEVICE/Target/usbd_conf.c ****   HAL_StatusTypeDef hal_status = HAL_OK;
 538:USB_DEVICE/Target/usbd_conf.c ****   USBD_StatusTypeDef usb_status = USBD_OK;
 539:USB_DEVICE/Target/usbd_conf.c **** 
 540:USB_DEVICE/Target/usbd_conf.c ****   hal_status = HAL_PCD_EP_Transmit(pdev->pData, ep_addr, pbuf, size);
 541:USB_DEVICE/Target/usbd_conf.c **** 
 542:USB_DEVICE/Target/usbd_conf.c ****   usb_status =  USBD_Get_USB_Status(hal_status);
 543:USB_DEVICE/Target/usbd_conf.c **** 
 544:USB_DEVICE/Target/usbd_conf.c ****   return usb_status;
 545:USB_DEVICE/Target/usbd_conf.c **** }
ARM GAS  /tmp/ccCXsivu.s 			page 11


 546:USB_DEVICE/Target/usbd_conf.c **** 
 547:USB_DEVICE/Target/usbd_conf.c **** /**
 548:USB_DEVICE/Target/usbd_conf.c ****   * @brief  Prepares an endpoint for reception.
 549:USB_DEVICE/Target/usbd_conf.c ****   * @param  pdev: Device handle
 550:USB_DEVICE/Target/usbd_conf.c ****   * @param  ep_addr: Endpoint number
 551:USB_DEVICE/Target/usbd_conf.c ****   * @param  pbuf: Pointer to data to be received
 552:USB_DEVICE/Target/usbd_conf.c ****   * @param  size: Data size
 553:USB_DEVICE/Target/usbd_conf.c ****   * @retval USBD status
 554:USB_DEVICE/Target/usbd_conf.c ****   */
 555:USB_DEVICE/Target/usbd_conf.c **** USBD_StatusTypeDef USBD_LL_PrepareReceive(USBD_HandleTypeDef *pdev, uint8_t ep_addr, uint8_t *pbuf,
 556:USB_DEVICE/Target/usbd_conf.c **** {
 557:USB_DEVICE/Target/usbd_conf.c ****   HAL_StatusTypeDef hal_status = HAL_OK;
 558:USB_DEVICE/Target/usbd_conf.c ****   USBD_StatusTypeDef usb_status = USBD_OK;
 559:USB_DEVICE/Target/usbd_conf.c **** 
 560:USB_DEVICE/Target/usbd_conf.c ****   hal_status = HAL_PCD_EP_Receive(pdev->pData, ep_addr, pbuf, size);
 561:USB_DEVICE/Target/usbd_conf.c **** 
 562:USB_DEVICE/Target/usbd_conf.c ****   usb_status =  USBD_Get_USB_Status(hal_status);
 563:USB_DEVICE/Target/usbd_conf.c **** 
 564:USB_DEVICE/Target/usbd_conf.c ****   return usb_status;
 565:USB_DEVICE/Target/usbd_conf.c **** }
 566:USB_DEVICE/Target/usbd_conf.c **** 
 567:USB_DEVICE/Target/usbd_conf.c **** /**
 568:USB_DEVICE/Target/usbd_conf.c ****   * @brief  Returns the last transferred packet size.
 569:USB_DEVICE/Target/usbd_conf.c ****   * @param  pdev: Device handle
 570:USB_DEVICE/Target/usbd_conf.c ****   * @param  ep_addr: Endpoint number
 571:USB_DEVICE/Target/usbd_conf.c ****   * @retval Received Data Size
 572:USB_DEVICE/Target/usbd_conf.c ****   */
 573:USB_DEVICE/Target/usbd_conf.c **** uint32_t USBD_LL_GetRxDataSize(USBD_HandleTypeDef *pdev, uint8_t ep_addr)
 574:USB_DEVICE/Target/usbd_conf.c **** {
 575:USB_DEVICE/Target/usbd_conf.c ****   return HAL_PCD_EP_GetRxCount((PCD_HandleTypeDef*) pdev->pData, ep_addr);
 576:USB_DEVICE/Target/usbd_conf.c **** }
 577:USB_DEVICE/Target/usbd_conf.c **** 
 578:USB_DEVICE/Target/usbd_conf.c **** /**
 579:USB_DEVICE/Target/usbd_conf.c ****   * @brief  Delays routine for the USB device library.
 580:USB_DEVICE/Target/usbd_conf.c ****   * @param  Delay: Delay in ms
 581:USB_DEVICE/Target/usbd_conf.c ****   * @retval None
 582:USB_DEVICE/Target/usbd_conf.c ****   */
 583:USB_DEVICE/Target/usbd_conf.c **** void USBD_LL_Delay(uint32_t Delay)
 584:USB_DEVICE/Target/usbd_conf.c **** {
 585:USB_DEVICE/Target/usbd_conf.c ****   HAL_Delay(Delay);
 586:USB_DEVICE/Target/usbd_conf.c **** }
 587:USB_DEVICE/Target/usbd_conf.c **** 
 588:USB_DEVICE/Target/usbd_conf.c **** /**
 589:USB_DEVICE/Target/usbd_conf.c ****   * @brief  Static single allocation.
 590:USB_DEVICE/Target/usbd_conf.c ****   * @param  size: Size of allocated memory
 591:USB_DEVICE/Target/usbd_conf.c ****   * @retval None
 592:USB_DEVICE/Target/usbd_conf.c ****   */
 593:USB_DEVICE/Target/usbd_conf.c **** void *USBD_static_malloc(uint32_t size)
 594:USB_DEVICE/Target/usbd_conf.c **** {
 595:USB_DEVICE/Target/usbd_conf.c ****   static uint32_t mem[(sizeof(USBD_CDC_HandleTypeDef)/4)+1];/* On 32-bit boundary */
 596:USB_DEVICE/Target/usbd_conf.c ****   return mem;
 597:USB_DEVICE/Target/usbd_conf.c **** }
 598:USB_DEVICE/Target/usbd_conf.c **** 
 599:USB_DEVICE/Target/usbd_conf.c **** /**
 600:USB_DEVICE/Target/usbd_conf.c ****   * @brief  Dummy memory free
 601:USB_DEVICE/Target/usbd_conf.c ****   * @param  p: Pointer to allocated  memory address
 602:USB_DEVICE/Target/usbd_conf.c ****   * @retval None
ARM GAS  /tmp/ccCXsivu.s 			page 12


 603:USB_DEVICE/Target/usbd_conf.c ****   */
 604:USB_DEVICE/Target/usbd_conf.c **** void USBD_static_free(void *p)
 605:USB_DEVICE/Target/usbd_conf.c **** {
 606:USB_DEVICE/Target/usbd_conf.c **** 
 607:USB_DEVICE/Target/usbd_conf.c **** }
 608:USB_DEVICE/Target/usbd_conf.c **** 
 609:USB_DEVICE/Target/usbd_conf.c **** /* USER CODE BEGIN 5 */
 610:USB_DEVICE/Target/usbd_conf.c **** /**
 611:USB_DEVICE/Target/usbd_conf.c ****   * @brief  Configures system clock after wake-up from USB Resume CallBack:
 612:USB_DEVICE/Target/usbd_conf.c ****   *         enable HSI, PLL and select PLL as system clock source.
 613:USB_DEVICE/Target/usbd_conf.c ****   * @retval None
 614:USB_DEVICE/Target/usbd_conf.c ****   */
 615:USB_DEVICE/Target/usbd_conf.c **** static void SystemClockConfig_Resume(void)
 616:USB_DEVICE/Target/usbd_conf.c **** {
 617:USB_DEVICE/Target/usbd_conf.c ****   SystemClock_Config();
 618:USB_DEVICE/Target/usbd_conf.c **** }
 619:USB_DEVICE/Target/usbd_conf.c **** /* USER CODE END 5 */
 620:USB_DEVICE/Target/usbd_conf.c **** 
 621:USB_DEVICE/Target/usbd_conf.c **** /**
 622:USB_DEVICE/Target/usbd_conf.c ****   * @brief  Returns the USB status depending on the HAL status:
 623:USB_DEVICE/Target/usbd_conf.c ****   * @param  hal_status: HAL status
 624:USB_DEVICE/Target/usbd_conf.c ****   * @retval USB status
 625:USB_DEVICE/Target/usbd_conf.c ****   */
 626:USB_DEVICE/Target/usbd_conf.c **** USBD_StatusTypeDef USBD_Get_USB_Status(HAL_StatusTypeDef hal_status)
 627:USB_DEVICE/Target/usbd_conf.c **** {
  27              		.loc 1 627 1 view -0
  28              		.cfi_startproc
  29              		@ args = 0, pretend = 0, frame = 0
  30              		@ frame_needed = 0, uses_anonymous_args = 0
  31              		@ link register save eliminated.
 628:USB_DEVICE/Target/usbd_conf.c ****   USBD_StatusTypeDef usb_status = USBD_OK;
  32              		.loc 1 628 3 view .LVU1
 629:USB_DEVICE/Target/usbd_conf.c **** 
 630:USB_DEVICE/Target/usbd_conf.c ****   switch (hal_status)
  33              		.loc 1 630 3 view .LVU2
  34 0000 0228     		cmp	r0, #2
  35 0002 04D0     		beq	.L3
  36 0004 05D8     		bhi	.L4
  37 0006 0028     		cmp	r0, #0
  38 0008 00D0     		beq	.L2
 631:USB_DEVICE/Target/usbd_conf.c ****   {
 632:USB_DEVICE/Target/usbd_conf.c ****     case HAL_OK :
 633:USB_DEVICE/Target/usbd_conf.c ****       usb_status = USBD_OK;
 634:USB_DEVICE/Target/usbd_conf.c ****     break;
 635:USB_DEVICE/Target/usbd_conf.c ****     case HAL_ERROR :
 636:USB_DEVICE/Target/usbd_conf.c ****       usb_status = USBD_FAIL;
  39              		.loc 1 636 18 is_stmt 0 view .LVU3
  40 000a 0220     		movs	r0, #2
  41              	.LVL1:
  42              	.L2:
 637:USB_DEVICE/Target/usbd_conf.c ****     break;
 638:USB_DEVICE/Target/usbd_conf.c ****     case HAL_BUSY :
 639:USB_DEVICE/Target/usbd_conf.c ****       usb_status = USBD_BUSY;
 640:USB_DEVICE/Target/usbd_conf.c ****     break;
 641:USB_DEVICE/Target/usbd_conf.c ****     case HAL_TIMEOUT :
 642:USB_DEVICE/Target/usbd_conf.c ****       usb_status = USBD_FAIL;
 643:USB_DEVICE/Target/usbd_conf.c ****     break;
ARM GAS  /tmp/ccCXsivu.s 			page 13


 644:USB_DEVICE/Target/usbd_conf.c ****     default :
 645:USB_DEVICE/Target/usbd_conf.c ****       usb_status = USBD_FAIL;
 646:USB_DEVICE/Target/usbd_conf.c ****     break;
 647:USB_DEVICE/Target/usbd_conf.c ****   }
 648:USB_DEVICE/Target/usbd_conf.c ****   return usb_status;
  43              		.loc 1 648 3 is_stmt 1 view .LVU4
 649:USB_DEVICE/Target/usbd_conf.c **** }
  44              		.loc 1 649 1 is_stmt 0 view .LVU5
  45              		@ sp needed
  46 000c 7047     		bx	lr
  47              	.LVL2:
  48              	.L3:
 639:USB_DEVICE/Target/usbd_conf.c ****     break;
  49              		.loc 1 639 18 view .LVU6
  50 000e 0120     		movs	r0, #1
  51              	.LVL3:
 639:USB_DEVICE/Target/usbd_conf.c ****     break;
  52              		.loc 1 639 18 view .LVU7
  53 0010 FCE7     		b	.L2
  54              	.LVL4:
  55              	.L4:
 642:USB_DEVICE/Target/usbd_conf.c ****     break;
  56              		.loc 1 642 18 view .LVU8
  57 0012 0220     		movs	r0, #2
  58              	.LVL5:
 642:USB_DEVICE/Target/usbd_conf.c ****     break;
  59              		.loc 1 642 18 view .LVU9
  60 0014 FAE7     		b	.L2
  61              		.cfi_endproc
  62              	.LFE74:
  64              		.section	.text.SystemClockConfig_Resume,"ax",%progbits
  65              		.align	1
  66              		.syntax unified
  67              		.code	16
  68              		.thumb_func
  69              		.fpu softvfp
  71              	SystemClockConfig_Resume:
  72              	.LFB73:
 616:USB_DEVICE/Target/usbd_conf.c ****   SystemClock_Config();
  73              		.loc 1 616 1 is_stmt 1 view -0
  74              		.cfi_startproc
  75              		@ args = 0, pretend = 0, frame = 0
  76              		@ frame_needed = 0, uses_anonymous_args = 0
  77 0000 10B5     		push	{r4, lr}
  78              	.LCFI0:
  79              		.cfi_def_cfa_offset 8
  80              		.cfi_offset 4, -8
  81              		.cfi_offset 14, -4
 617:USB_DEVICE/Target/usbd_conf.c **** }
  82              		.loc 1 617 3 view .LVU11
  83 0002 FFF7FEFF 		bl	SystemClock_Config
  84              	.LVL6:
 618:USB_DEVICE/Target/usbd_conf.c **** /* USER CODE END 5 */
  85              		.loc 1 618 1 is_stmt 0 view .LVU12
  86              		@ sp needed
  87 0006 10BD     		pop	{r4, pc}
  88              		.cfi_endproc
ARM GAS  /tmp/ccCXsivu.s 			page 14


  89              	.LFE73:
  91              		.section	.text.HAL_PCD_MspInit,"ax",%progbits
  92              		.align	1
  93              		.global	HAL_PCD_MspInit
  94              		.syntax unified
  95              		.code	16
  96              		.thumb_func
  97              		.fpu softvfp
  99              	HAL_PCD_MspInit:
 100              	.LVL7:
 101              	.LFB43:
  67:USB_DEVICE/Target/usbd_conf.c ****   if(pcdHandle->Instance==USB)
 102              		.loc 1 67 1 is_stmt 1 view -0
 103              		.cfi_startproc
 104              		@ args = 0, pretend = 0, frame = 8
 105              		@ frame_needed = 0, uses_anonymous_args = 0
  67:USB_DEVICE/Target/usbd_conf.c ****   if(pcdHandle->Instance==USB)
 106              		.loc 1 67 1 is_stmt 0 view .LVU14
 107 0000 00B5     		push	{lr}
 108              	.LCFI1:
 109              		.cfi_def_cfa_offset 4
 110              		.cfi_offset 14, -4
 111 0002 83B0     		sub	sp, sp, #12
 112              	.LCFI2:
 113              		.cfi_def_cfa_offset 16
  68:USB_DEVICE/Target/usbd_conf.c ****   {
 114              		.loc 1 68 3 is_stmt 1 view .LVU15
  68:USB_DEVICE/Target/usbd_conf.c ****   {
 115              		.loc 1 68 15 is_stmt 0 view .LVU16
 116 0004 0268     		ldr	r2, [r0]
  68:USB_DEVICE/Target/usbd_conf.c ****   {
 117              		.loc 1 68 5 view .LVU17
 118 0006 0C4B     		ldr	r3, .L10
 119 0008 9A42     		cmp	r2, r3
 120 000a 01D0     		beq	.L9
 121              	.LVL8:
 122              	.L7:
  83:USB_DEVICE/Target/usbd_conf.c **** 
 123              		.loc 1 83 1 view .LVU18
 124 000c 03B0     		add	sp, sp, #12
 125              		@ sp needed
 126 000e 00BD     		pop	{pc}
 127              	.LVL9:
 128              	.L9:
  74:USB_DEVICE/Target/usbd_conf.c **** 
 129              		.loc 1 74 5 is_stmt 1 view .LVU19
 130              	.LBB2:
  74:USB_DEVICE/Target/usbd_conf.c **** 
 131              		.loc 1 74 5 view .LVU20
  74:USB_DEVICE/Target/usbd_conf.c **** 
 132              		.loc 1 74 5 view .LVU21
 133 0010 0A4A     		ldr	r2, .L10+4
 134 0012 D169     		ldr	r1, [r2, #28]
 135 0014 8020     		movs	r0, #128
 136              	.LVL10:
  74:USB_DEVICE/Target/usbd_conf.c **** 
 137              		.loc 1 74 5 is_stmt 0 view .LVU22
ARM GAS  /tmp/ccCXsivu.s 			page 15


 138 0016 0004     		lsls	r0, r0, #16
 139 0018 0143     		orrs	r1, r0
 140 001a D161     		str	r1, [r2, #28]
  74:USB_DEVICE/Target/usbd_conf.c **** 
 141              		.loc 1 74 5 is_stmt 1 view .LVU23
 142 001c D369     		ldr	r3, [r2, #28]
 143 001e 0340     		ands	r3, r0
 144 0020 0193     		str	r3, [sp, #4]
  74:USB_DEVICE/Target/usbd_conf.c **** 
 145              		.loc 1 74 5 view .LVU24
 146 0022 019B     		ldr	r3, [sp, #4]
 147              	.LBE2:
  74:USB_DEVICE/Target/usbd_conf.c **** 
 148              		.loc 1 74 5 view .LVU25
  77:USB_DEVICE/Target/usbd_conf.c ****     HAL_NVIC_EnableIRQ(USB_IRQn);
 149              		.loc 1 77 5 view .LVU26
 150 0024 0022     		movs	r2, #0
 151 0026 0021     		movs	r1, #0
 152 0028 1F20     		movs	r0, #31
 153 002a FFF7FEFF 		bl	HAL_NVIC_SetPriority
 154              	.LVL11:
  78:USB_DEVICE/Target/usbd_conf.c ****   /* USER CODE BEGIN USB_MspInit 1 */
 155              		.loc 1 78 5 view .LVU27
 156 002e 1F20     		movs	r0, #31
 157 0030 FFF7FEFF 		bl	HAL_NVIC_EnableIRQ
 158              	.LVL12:
  83:USB_DEVICE/Target/usbd_conf.c **** 
 159              		.loc 1 83 1 is_stmt 0 view .LVU28
 160 0034 EAE7     		b	.L7
 161              	.L11:
 162 0036 C046     		.align	2
 163              	.L10:
 164 0038 005C0040 		.word	1073765376
 165 003c 00100240 		.word	1073876992
 166              		.cfi_endproc
 167              	.LFE43:
 169              		.section	.text.HAL_PCD_MspDeInit,"ax",%progbits
 170              		.align	1
 171              		.global	HAL_PCD_MspDeInit
 172              		.syntax unified
 173              		.code	16
 174              		.thumb_func
 175              		.fpu softvfp
 177              	HAL_PCD_MspDeInit:
 178              	.LVL13:
 179              	.LFB44:
  86:USB_DEVICE/Target/usbd_conf.c ****   if(pcdHandle->Instance==USB)
 180              		.loc 1 86 1 is_stmt 1 view -0
 181              		.cfi_startproc
 182              		@ args = 0, pretend = 0, frame = 0
 183              		@ frame_needed = 0, uses_anonymous_args = 0
  86:USB_DEVICE/Target/usbd_conf.c ****   if(pcdHandle->Instance==USB)
 184              		.loc 1 86 1 is_stmt 0 view .LVU30
 185 0000 10B5     		push	{r4, lr}
 186              	.LCFI3:
 187              		.cfi_def_cfa_offset 8
 188              		.cfi_offset 4, -8
ARM GAS  /tmp/ccCXsivu.s 			page 16


 189              		.cfi_offset 14, -4
  87:USB_DEVICE/Target/usbd_conf.c ****   {
 190              		.loc 1 87 3 is_stmt 1 view .LVU31
  87:USB_DEVICE/Target/usbd_conf.c ****   {
 191              		.loc 1 87 15 is_stmt 0 view .LVU32
 192 0002 0268     		ldr	r2, [r0]
  87:USB_DEVICE/Target/usbd_conf.c ****   {
 193              		.loc 1 87 5 view .LVU33
 194 0004 064B     		ldr	r3, .L15
 195 0006 9A42     		cmp	r2, r3
 196 0008 00D0     		beq	.L14
 197              	.LVL14:
 198              	.L12:
 102:USB_DEVICE/Target/usbd_conf.c **** 
 199              		.loc 1 102 1 view .LVU34
 200              		@ sp needed
 201 000a 10BD     		pop	{r4, pc}
 202              	.LVL15:
 203              	.L14:
  93:USB_DEVICE/Target/usbd_conf.c **** 
 204              		.loc 1 93 5 is_stmt 1 view .LVU35
 205 000c 054A     		ldr	r2, .L15+4
 206 000e D369     		ldr	r3, [r2, #28]
 207 0010 0549     		ldr	r1, .L15+8
 208 0012 0B40     		ands	r3, r1
 209 0014 D361     		str	r3, [r2, #28]
  96:USB_DEVICE/Target/usbd_conf.c **** 
 210              		.loc 1 96 5 view .LVU36
 211 0016 1F20     		movs	r0, #31
 212              	.LVL16:
  96:USB_DEVICE/Target/usbd_conf.c **** 
 213              		.loc 1 96 5 is_stmt 0 view .LVU37
 214 0018 FFF7FEFF 		bl	HAL_NVIC_DisableIRQ
 215              	.LVL17:
 102:USB_DEVICE/Target/usbd_conf.c **** 
 216              		.loc 1 102 1 view .LVU38
 217 001c F5E7     		b	.L12
 218              	.L16:
 219 001e C046     		.align	2
 220              	.L15:
 221 0020 005C0040 		.word	1073765376
 222 0024 00100240 		.word	1073876992
 223 0028 FFFF7FFF 		.word	-8388609
 224              		.cfi_endproc
 225              	.LFE44:
 227              		.section	.text.HAL_PCD_SetupStageCallback,"ax",%progbits
 228              		.align	1
 229              		.global	HAL_PCD_SetupStageCallback
 230              		.syntax unified
 231              		.code	16
 232              		.thumb_func
 233              		.fpu softvfp
 235              	HAL_PCD_SetupStageCallback:
 236              	.LVL18:
 237              	.LFB45:
 114:USB_DEVICE/Target/usbd_conf.c ****   USBD_LL_SetupStage((USBD_HandleTypeDef*)hpcd->pData, (uint8_t *)hpcd->Setup);
 238              		.loc 1 114 1 is_stmt 1 view -0
ARM GAS  /tmp/ccCXsivu.s 			page 17


 239              		.cfi_startproc
 240              		@ args = 0, pretend = 0, frame = 0
 241              		@ frame_needed = 0, uses_anonymous_args = 0
 114:USB_DEVICE/Target/usbd_conf.c ****   USBD_LL_SetupStage((USBD_HandleTypeDef*)hpcd->pData, (uint8_t *)hpcd->Setup);
 242              		.loc 1 114 1 is_stmt 0 view .LVU40
 243 0000 10B5     		push	{r4, lr}
 244              	.LCFI4:
 245              		.cfi_def_cfa_offset 8
 246              		.cfi_offset 4, -8
 247              		.cfi_offset 14, -4
 248 0002 0100     		movs	r1, r0
 115:USB_DEVICE/Target/usbd_conf.c **** }
 249              		.loc 1 115 3 is_stmt 1 view .LVU41
 115:USB_DEVICE/Target/usbd_conf.c **** }
 250              		.loc 1 115 47 is_stmt 0 view .LVU42
 251 0004 BC23     		movs	r3, #188
 252 0006 9B00     		lsls	r3, r3, #2
 253 0008 C058     		ldr	r0, [r0, r3]
 254              	.LVL19:
 115:USB_DEVICE/Target/usbd_conf.c **** }
 255              		.loc 1 115 67 view .LVU43
 256 000a 403B     		subs	r3, r3, #64
 257 000c 9C46     		mov	ip, r3
 258 000e 6144     		add	r1, r1, ip
 259              	.LVL20:
 115:USB_DEVICE/Target/usbd_conf.c **** }
 260              		.loc 1 115 3 view .LVU44
 261 0010 FFF7FEFF 		bl	USBD_LL_SetupStage
 262              	.LVL21:
 116:USB_DEVICE/Target/usbd_conf.c **** 
 263              		.loc 1 116 1 view .LVU45
 264              		@ sp needed
 265 0014 10BD     		pop	{r4, pc}
 266              		.cfi_endproc
 267              	.LFE45:
 269              		.section	.text.HAL_PCD_DataOutStageCallback,"ax",%progbits
 270              		.align	1
 271              		.global	HAL_PCD_DataOutStageCallback
 272              		.syntax unified
 273              		.code	16
 274              		.thumb_func
 275              		.fpu softvfp
 277              	HAL_PCD_DataOutStageCallback:
 278              	.LVL22:
 279              	.LFB46:
 129:USB_DEVICE/Target/usbd_conf.c ****   USBD_LL_DataOutStage((USBD_HandleTypeDef*)hpcd->pData, epnum, hpcd->OUT_ep[epnum].xfer_buff);
 280              		.loc 1 129 1 is_stmt 1 view -0
 281              		.cfi_startproc
 282              		@ args = 0, pretend = 0, frame = 0
 283              		@ frame_needed = 0, uses_anonymous_args = 0
 129:USB_DEVICE/Target/usbd_conf.c ****   USBD_LL_DataOutStage((USBD_HandleTypeDef*)hpcd->pData, epnum, hpcd->OUT_ep[epnum].xfer_buff);
 284              		.loc 1 129 1 is_stmt 0 view .LVU47
 285 0000 10B5     		push	{r4, lr}
 286              	.LCFI5:
 287              		.cfi_def_cfa_offset 8
 288              		.cfi_offset 4, -8
 289              		.cfi_offset 14, -4
ARM GAS  /tmp/ccCXsivu.s 			page 18


 290 0002 0300     		movs	r3, r0
 130:USB_DEVICE/Target/usbd_conf.c **** }
 291              		.loc 1 130 3 is_stmt 1 view .LVU48
 130:USB_DEVICE/Target/usbd_conf.c **** }
 292              		.loc 1 130 49 is_stmt 0 view .LVU49
 293 0004 BC22     		movs	r2, #188
 294 0006 9200     		lsls	r2, r2, #2
 295 0008 8058     		ldr	r0, [r0, r2]
 296              	.LVL23:
 130:USB_DEVICE/Target/usbd_conf.c **** }
 297              		.loc 1 130 3 view .LVU50
 298 000a 8A00     		lsls	r2, r1, #2
 299 000c 5218     		adds	r2, r2, r1
 300 000e D200     		lsls	r2, r2, #3
 301 0010 9B18     		adds	r3, r3, r2
 302              	.LVL24:
 130:USB_DEVICE/Target/usbd_conf.c **** }
 303              		.loc 1 130 3 view .LVU51
 304 0012 7D33     		adds	r3, r3, #125
 305 0014 FF33     		adds	r3, r3, #255
 306 0016 1A68     		ldr	r2, [r3]
 307 0018 FFF7FEFF 		bl	USBD_LL_DataOutStage
 308              	.LVL25:
 131:USB_DEVICE/Target/usbd_conf.c **** 
 309              		.loc 1 131 1 view .LVU52
 310              		@ sp needed
 311 001c 10BD     		pop	{r4, pc}
 312              		.cfi_endproc
 313              	.LFE46:
 315              		.section	.text.HAL_PCD_DataInStageCallback,"ax",%progbits
 316              		.align	1
 317              		.global	HAL_PCD_DataInStageCallback
 318              		.syntax unified
 319              		.code	16
 320              		.thumb_func
 321              		.fpu softvfp
 323              	HAL_PCD_DataInStageCallback:
 324              	.LVL26:
 325              	.LFB47:
 144:USB_DEVICE/Target/usbd_conf.c ****   USBD_LL_DataInStage((USBD_HandleTypeDef*)hpcd->pData, epnum, hpcd->IN_ep[epnum].xfer_buff);
 326              		.loc 1 144 1 is_stmt 1 view -0
 327              		.cfi_startproc
 328              		@ args = 0, pretend = 0, frame = 0
 329              		@ frame_needed = 0, uses_anonymous_args = 0
 144:USB_DEVICE/Target/usbd_conf.c ****   USBD_LL_DataInStage((USBD_HandleTypeDef*)hpcd->pData, epnum, hpcd->IN_ep[epnum].xfer_buff);
 330              		.loc 1 144 1 is_stmt 0 view .LVU54
 331 0000 10B5     		push	{r4, lr}
 332              	.LCFI6:
 333              		.cfi_def_cfa_offset 8
 334              		.cfi_offset 4, -8
 335              		.cfi_offset 14, -4
 336 0002 0300     		movs	r3, r0
 145:USB_DEVICE/Target/usbd_conf.c **** }
 337              		.loc 1 145 3 is_stmt 1 view .LVU55
 145:USB_DEVICE/Target/usbd_conf.c **** }
 338              		.loc 1 145 48 is_stmt 0 view .LVU56
 339 0004 BC22     		movs	r2, #188
ARM GAS  /tmp/ccCXsivu.s 			page 19


 340 0006 9200     		lsls	r2, r2, #2
 341 0008 8058     		ldr	r0, [r0, r2]
 342              	.LVL27:
 145:USB_DEVICE/Target/usbd_conf.c **** }
 343              		.loc 1 145 3 view .LVU57
 344 000a 8A00     		lsls	r2, r1, #2
 345 000c 5218     		adds	r2, r2, r1
 346 000e D200     		lsls	r2, r2, #3
 347 0010 9B18     		adds	r3, r3, r2
 348              	.LVL28:
 145:USB_DEVICE/Target/usbd_conf.c **** }
 349              		.loc 1 145 3 view .LVU58
 350 0012 DA6B     		ldr	r2, [r3, #60]
 351 0014 FFF7FEFF 		bl	USBD_LL_DataInStage
 352              	.LVL29:
 146:USB_DEVICE/Target/usbd_conf.c **** 
 353              		.loc 1 146 1 view .LVU59
 354              		@ sp needed
 355 0018 10BD     		pop	{r4, pc}
 356              		.cfi_endproc
 357              	.LFE47:
 359              		.section	.text.HAL_PCD_SOFCallback,"ax",%progbits
 360              		.align	1
 361              		.global	HAL_PCD_SOFCallback
 362              		.syntax unified
 363              		.code	16
 364              		.thumb_func
 365              		.fpu softvfp
 367              	HAL_PCD_SOFCallback:
 368              	.LVL30:
 369              	.LFB48:
 158:USB_DEVICE/Target/usbd_conf.c ****   USBD_LL_SOF((USBD_HandleTypeDef*)hpcd->pData);
 370              		.loc 1 158 1 is_stmt 1 view -0
 371              		.cfi_startproc
 372              		@ args = 0, pretend = 0, frame = 0
 373              		@ frame_needed = 0, uses_anonymous_args = 0
 158:USB_DEVICE/Target/usbd_conf.c ****   USBD_LL_SOF((USBD_HandleTypeDef*)hpcd->pData);
 374              		.loc 1 158 1 is_stmt 0 view .LVU61
 375 0000 10B5     		push	{r4, lr}
 376              	.LCFI7:
 377              		.cfi_def_cfa_offset 8
 378              		.cfi_offset 4, -8
 379              		.cfi_offset 14, -4
 159:USB_DEVICE/Target/usbd_conf.c **** }
 380              		.loc 1 159 3 is_stmt 1 view .LVU62
 159:USB_DEVICE/Target/usbd_conf.c **** }
 381              		.loc 1 159 40 is_stmt 0 view .LVU63
 382 0002 BC23     		movs	r3, #188
 383 0004 9B00     		lsls	r3, r3, #2
 384 0006 C058     		ldr	r0, [r0, r3]
 385              	.LVL31:
 159:USB_DEVICE/Target/usbd_conf.c **** }
 386              		.loc 1 159 3 view .LVU64
 387 0008 FFF7FEFF 		bl	USBD_LL_SOF
 388              	.LVL32:
 160:USB_DEVICE/Target/usbd_conf.c **** 
 389              		.loc 1 160 1 view .LVU65
ARM GAS  /tmp/ccCXsivu.s 			page 20


 390              		@ sp needed
 391 000c 10BD     		pop	{r4, pc}
 392              		.cfi_endproc
 393              	.LFE48:
 395              		.section	.text.HAL_PCD_ResetCallback,"ax",%progbits
 396              		.align	1
 397              		.global	HAL_PCD_ResetCallback
 398              		.syntax unified
 399              		.code	16
 400              		.thumb_func
 401              		.fpu softvfp
 403              	HAL_PCD_ResetCallback:
 404              	.LVL33:
 405              	.LFB49:
 172:USB_DEVICE/Target/usbd_conf.c ****   USBD_SpeedTypeDef speed = USBD_SPEED_FULL;
 406              		.loc 1 172 1 is_stmt 1 view -0
 407              		.cfi_startproc
 408              		@ args = 0, pretend = 0, frame = 0
 409              		@ frame_needed = 0, uses_anonymous_args = 0
 172:USB_DEVICE/Target/usbd_conf.c ****   USBD_SpeedTypeDef speed = USBD_SPEED_FULL;
 410              		.loc 1 172 1 is_stmt 0 view .LVU67
 411 0000 70B5     		push	{r4, r5, r6, lr}
 412              	.LCFI8:
 413              		.cfi_def_cfa_offset 16
 414              		.cfi_offset 4, -16
 415              		.cfi_offset 5, -12
 416              		.cfi_offset 6, -8
 417              		.cfi_offset 14, -4
 418 0002 0400     		movs	r4, r0
 173:USB_DEVICE/Target/usbd_conf.c **** 
 419              		.loc 1 173 3 is_stmt 1 view .LVU68
 420              	.LVL34:
 175:USB_DEVICE/Target/usbd_conf.c ****   {
 421              		.loc 1 175 3 view .LVU69
 175:USB_DEVICE/Target/usbd_conf.c ****   {
 422              		.loc 1 175 6 is_stmt 0 view .LVU70
 423 0004 8368     		ldr	r3, [r0, #8]
 424 0006 022B     		cmp	r3, #2
 425 0008 09D1     		bne	.L23
 426              	.LVL35:
 427              	.L22:
 180:USB_DEVICE/Target/usbd_conf.c **** 
 428              		.loc 1 180 3 is_stmt 1 view .LVU71
 180:USB_DEVICE/Target/usbd_conf.c **** 
 429              		.loc 1 180 45 is_stmt 0 view .LVU72
 430 000a BC25     		movs	r5, #188
 431 000c AD00     		lsls	r5, r5, #2
 180:USB_DEVICE/Target/usbd_conf.c **** 
 432              		.loc 1 180 3 view .LVU73
 433 000e 0121     		movs	r1, #1
 434 0010 6059     		ldr	r0, [r4, r5]
 435 0012 FFF7FEFF 		bl	USBD_LL_SetSpeed
 436              	.LVL36:
 183:USB_DEVICE/Target/usbd_conf.c **** }
 437              		.loc 1 183 3 is_stmt 1 view .LVU74
 183:USB_DEVICE/Target/usbd_conf.c **** }
 438              		.loc 1 183 42 is_stmt 0 view .LVU75
ARM GAS  /tmp/ccCXsivu.s 			page 21


 439 0016 6059     		ldr	r0, [r4, r5]
 183:USB_DEVICE/Target/usbd_conf.c **** }
 440              		.loc 1 183 3 view .LVU76
 441 0018 FFF7FEFF 		bl	USBD_LL_Reset
 442              	.LVL37:
 184:USB_DEVICE/Target/usbd_conf.c **** 
 443              		.loc 1 184 1 view .LVU77
 444              		@ sp needed
 445              	.LVL38:
 184:USB_DEVICE/Target/usbd_conf.c **** 
 446              		.loc 1 184 1 view .LVU78
 447 001c 70BD     		pop	{r4, r5, r6, pc}
 448              	.LVL39:
 449              	.L23:
 177:USB_DEVICE/Target/usbd_conf.c ****   }
 450              		.loc 1 177 5 is_stmt 1 view .LVU79
 451 001e FFF7FEFF 		bl	Error_Handler
 452              	.LVL40:
 177:USB_DEVICE/Target/usbd_conf.c ****   }
 453              		.loc 1 177 5 is_stmt 0 view .LVU80
 454 0022 F2E7     		b	.L22
 455              		.cfi_endproc
 456              	.LFE49:
 458              		.section	.text.HAL_PCD_SuspendCallback,"ax",%progbits
 459              		.align	1
 460              		.global	HAL_PCD_SuspendCallback
 461              		.syntax unified
 462              		.code	16
 463              		.thumb_func
 464              		.fpu softvfp
 466              	HAL_PCD_SuspendCallback:
 467              	.LVL41:
 468              	.LFB50:
 197:USB_DEVICE/Target/usbd_conf.c ****   /* Inform USB library that core enters in suspend Mode. */
 469              		.loc 1 197 1 is_stmt 1 view -0
 470              		.cfi_startproc
 471              		@ args = 0, pretend = 0, frame = 0
 472              		@ frame_needed = 0, uses_anonymous_args = 0
 197:USB_DEVICE/Target/usbd_conf.c ****   /* Inform USB library that core enters in suspend Mode. */
 473              		.loc 1 197 1 is_stmt 0 view .LVU82
 474 0000 10B5     		push	{r4, lr}
 475              	.LCFI9:
 476              		.cfi_def_cfa_offset 8
 477              		.cfi_offset 4, -8
 478              		.cfi_offset 14, -4
 479 0002 0400     		movs	r4, r0
 199:USB_DEVICE/Target/usbd_conf.c ****   /* Enter in STOP mode. */
 480              		.loc 1 199 3 is_stmt 1 view .LVU83
 199:USB_DEVICE/Target/usbd_conf.c ****   /* Enter in STOP mode. */
 481              		.loc 1 199 44 is_stmt 0 view .LVU84
 482 0004 BC23     		movs	r3, #188
 483 0006 9B00     		lsls	r3, r3, #2
 484 0008 C058     		ldr	r0, [r0, r3]
 485              	.LVL42:
 199:USB_DEVICE/Target/usbd_conf.c ****   /* Enter in STOP mode. */
 486              		.loc 1 199 3 view .LVU85
 487 000a FFF7FEFF 		bl	USBD_LL_Suspend
ARM GAS  /tmp/ccCXsivu.s 			page 22


 488              	.LVL43:
 202:USB_DEVICE/Target/usbd_conf.c ****   {
 489              		.loc 1 202 3 is_stmt 1 view .LVU86
 202:USB_DEVICE/Target/usbd_conf.c ****   {
 490              		.loc 1 202 17 is_stmt 0 view .LVU87
 491 000e A369     		ldr	r3, [r4, #24]
 202:USB_DEVICE/Target/usbd_conf.c ****   {
 492              		.loc 1 202 6 view .LVU88
 493 0010 002B     		cmp	r3, #0
 494 0012 04D0     		beq	.L24
 205:USB_DEVICE/Target/usbd_conf.c ****   }
 495              		.loc 1 205 5 is_stmt 1 view .LVU89
 205:USB_DEVICE/Target/usbd_conf.c ****   }
 496              		.loc 1 205 14 is_stmt 0 view .LVU90
 497 0014 024A     		ldr	r2, .L26
 498 0016 1369     		ldr	r3, [r2, #16]
 499 0018 0621     		movs	r1, #6
 500 001a 0B43     		orrs	r3, r1
 501 001c 1361     		str	r3, [r2, #16]
 502              	.L24:
 208:USB_DEVICE/Target/usbd_conf.c **** 
 503              		.loc 1 208 1 view .LVU91
 504              		@ sp needed
 505              	.LVL44:
 208:USB_DEVICE/Target/usbd_conf.c **** 
 506              		.loc 1 208 1 view .LVU92
 507 001e 10BD     		pop	{r4, pc}
 508              	.L27:
 509              		.align	2
 510              	.L26:
 511 0020 00ED00E0 		.word	-536810240
 512              		.cfi_endproc
 513              	.LFE50:
 515              		.section	.text.HAL_PCD_ResumeCallback,"ax",%progbits
 516              		.align	1
 517              		.global	HAL_PCD_ResumeCallback
 518              		.syntax unified
 519              		.code	16
 520              		.thumb_func
 521              		.fpu softvfp
 523              	HAL_PCD_ResumeCallback:
 524              	.LVL45:
 525              	.LFB51:
 221:USB_DEVICE/Target/usbd_conf.c ****   /* USER CODE BEGIN 3 */
 526              		.loc 1 221 1 is_stmt 1 view -0
 527              		.cfi_startproc
 528              		@ args = 0, pretend = 0, frame = 0
 529              		@ frame_needed = 0, uses_anonymous_args = 0
 221:USB_DEVICE/Target/usbd_conf.c ****   /* USER CODE BEGIN 3 */
 530              		.loc 1 221 1 is_stmt 0 view .LVU94
 531 0000 10B5     		push	{r4, lr}
 532              	.LCFI10:
 533              		.cfi_def_cfa_offset 8
 534              		.cfi_offset 4, -8
 535              		.cfi_offset 14, -4
 536 0002 0400     		movs	r4, r0
 223:USB_DEVICE/Target/usbd_conf.c ****   {
ARM GAS  /tmp/ccCXsivu.s 			page 23


 537              		.loc 1 223 3 is_stmt 1 view .LVU95
 223:USB_DEVICE/Target/usbd_conf.c ****   {
 538              		.loc 1 223 6 is_stmt 0 view .LVU96
 539 0004 8369     		ldr	r3, [r0, #24]
 540 0006 002B     		cmp	r3, #0
 541 0008 05D1     		bne	.L30
 542              	.LVL46:
 543              	.L29:
 230:USB_DEVICE/Target/usbd_conf.c **** }
 544              		.loc 1 230 3 is_stmt 1 view .LVU97
 230:USB_DEVICE/Target/usbd_conf.c **** }
 545              		.loc 1 230 43 is_stmt 0 view .LVU98
 546 000a BC23     		movs	r3, #188
 547 000c 9B00     		lsls	r3, r3, #2
 548 000e E058     		ldr	r0, [r4, r3]
 230:USB_DEVICE/Target/usbd_conf.c **** }
 549              		.loc 1 230 3 view .LVU99
 550 0010 FFF7FEFF 		bl	USBD_LL_Resume
 551              	.LVL47:
 231:USB_DEVICE/Target/usbd_conf.c **** 
 552              		.loc 1 231 1 view .LVU100
 553              		@ sp needed
 554              	.LVL48:
 231:USB_DEVICE/Target/usbd_conf.c **** 
 555              		.loc 1 231 1 view .LVU101
 556 0014 10BD     		pop	{r4, pc}
 557              	.LVL49:
 558              	.L30:
 226:USB_DEVICE/Target/usbd_conf.c ****     SystemClockConfig_Resume();
 559              		.loc 1 226 5 is_stmt 1 view .LVU102
 226:USB_DEVICE/Target/usbd_conf.c ****     SystemClockConfig_Resume();
 560              		.loc 1 226 14 is_stmt 0 view .LVU103
 561 0016 044A     		ldr	r2, .L31
 562 0018 1369     		ldr	r3, [r2, #16]
 563 001a 0621     		movs	r1, #6
 564 001c 8B43     		bics	r3, r1
 565 001e 1361     		str	r3, [r2, #16]
 227:USB_DEVICE/Target/usbd_conf.c ****   }
 566              		.loc 1 227 5 is_stmt 1 view .LVU104
 567 0020 FFF7FEFF 		bl	SystemClockConfig_Resume
 568              	.LVL50:
 227:USB_DEVICE/Target/usbd_conf.c ****   }
 569              		.loc 1 227 5 is_stmt 0 view .LVU105
 570 0024 F1E7     		b	.L29
 571              	.L32:
 572 0026 C046     		.align	2
 573              	.L31:
 574 0028 00ED00E0 		.word	-536810240
 575              		.cfi_endproc
 576              	.LFE51:
 578              		.section	.text.HAL_PCD_ISOOUTIncompleteCallback,"ax",%progbits
 579              		.align	1
 580              		.global	HAL_PCD_ISOOUTIncompleteCallback
 581              		.syntax unified
 582              		.code	16
 583              		.thumb_func
 584              		.fpu softvfp
ARM GAS  /tmp/ccCXsivu.s 			page 24


 586              	HAL_PCD_ISOOUTIncompleteCallback:
 587              	.LVL51:
 588              	.LFB52:
 244:USB_DEVICE/Target/usbd_conf.c ****   USBD_LL_IsoOUTIncomplete((USBD_HandleTypeDef*)hpcd->pData, epnum);
 589              		.loc 1 244 1 is_stmt 1 view -0
 590              		.cfi_startproc
 591              		@ args = 0, pretend = 0, frame = 0
 592              		@ frame_needed = 0, uses_anonymous_args = 0
 244:USB_DEVICE/Target/usbd_conf.c ****   USBD_LL_IsoOUTIncomplete((USBD_HandleTypeDef*)hpcd->pData, epnum);
 593              		.loc 1 244 1 is_stmt 0 view .LVU107
 594 0000 10B5     		push	{r4, lr}
 595              	.LCFI11:
 596              		.cfi_def_cfa_offset 8
 597              		.cfi_offset 4, -8
 598              		.cfi_offset 14, -4
 245:USB_DEVICE/Target/usbd_conf.c **** }
 599              		.loc 1 245 3 is_stmt 1 view .LVU108
 245:USB_DEVICE/Target/usbd_conf.c **** }
 600              		.loc 1 245 53 is_stmt 0 view .LVU109
 601 0002 BC23     		movs	r3, #188
 602 0004 9B00     		lsls	r3, r3, #2
 603 0006 C058     		ldr	r0, [r0, r3]
 604              	.LVL52:
 245:USB_DEVICE/Target/usbd_conf.c **** }
 605              		.loc 1 245 3 view .LVU110
 606 0008 FFF7FEFF 		bl	USBD_LL_IsoOUTIncomplete
 607              	.LVL53:
 246:USB_DEVICE/Target/usbd_conf.c **** 
 608              		.loc 1 246 1 view .LVU111
 609              		@ sp needed
 610 000c 10BD     		pop	{r4, pc}
 611              		.cfi_endproc
 612              	.LFE52:
 614              		.section	.text.HAL_PCD_ISOINIncompleteCallback,"ax",%progbits
 615              		.align	1
 616              		.global	HAL_PCD_ISOINIncompleteCallback
 617              		.syntax unified
 618              		.code	16
 619              		.thumb_func
 620              		.fpu softvfp
 622              	HAL_PCD_ISOINIncompleteCallback:
 623              	.LVL54:
 624              	.LFB53:
 259:USB_DEVICE/Target/usbd_conf.c ****   USBD_LL_IsoINIncomplete((USBD_HandleTypeDef*)hpcd->pData, epnum);
 625              		.loc 1 259 1 is_stmt 1 view -0
 626              		.cfi_startproc
 627              		@ args = 0, pretend = 0, frame = 0
 628              		@ frame_needed = 0, uses_anonymous_args = 0
 259:USB_DEVICE/Target/usbd_conf.c ****   USBD_LL_IsoINIncomplete((USBD_HandleTypeDef*)hpcd->pData, epnum);
 629              		.loc 1 259 1 is_stmt 0 view .LVU113
 630 0000 10B5     		push	{r4, lr}
 631              	.LCFI12:
 632              		.cfi_def_cfa_offset 8
 633              		.cfi_offset 4, -8
 634              		.cfi_offset 14, -4
 260:USB_DEVICE/Target/usbd_conf.c **** }
 635              		.loc 1 260 3 is_stmt 1 view .LVU114
ARM GAS  /tmp/ccCXsivu.s 			page 25


 260:USB_DEVICE/Target/usbd_conf.c **** }
 636              		.loc 1 260 52 is_stmt 0 view .LVU115
 637 0002 BC23     		movs	r3, #188
 638 0004 9B00     		lsls	r3, r3, #2
 639 0006 C058     		ldr	r0, [r0, r3]
 640              	.LVL55:
 260:USB_DEVICE/Target/usbd_conf.c **** }
 641              		.loc 1 260 3 view .LVU116
 642 0008 FFF7FEFF 		bl	USBD_LL_IsoINIncomplete
 643              	.LVL56:
 261:USB_DEVICE/Target/usbd_conf.c **** 
 644              		.loc 1 261 1 view .LVU117
 645              		@ sp needed
 646 000c 10BD     		pop	{r4, pc}
 647              		.cfi_endproc
 648              	.LFE53:
 650              		.section	.text.HAL_PCD_ConnectCallback,"ax",%progbits
 651              		.align	1
 652              		.global	HAL_PCD_ConnectCallback
 653              		.syntax unified
 654              		.code	16
 655              		.thumb_func
 656              		.fpu softvfp
 658              	HAL_PCD_ConnectCallback:
 659              	.LVL57:
 660              	.LFB54:
 273:USB_DEVICE/Target/usbd_conf.c ****   USBD_LL_DevConnected((USBD_HandleTypeDef*)hpcd->pData);
 661              		.loc 1 273 1 is_stmt 1 view -0
 662              		.cfi_startproc
 663              		@ args = 0, pretend = 0, frame = 0
 664              		@ frame_needed = 0, uses_anonymous_args = 0
 273:USB_DEVICE/Target/usbd_conf.c ****   USBD_LL_DevConnected((USBD_HandleTypeDef*)hpcd->pData);
 665              		.loc 1 273 1 is_stmt 0 view .LVU119
 666 0000 10B5     		push	{r4, lr}
 667              	.LCFI13:
 668              		.cfi_def_cfa_offset 8
 669              		.cfi_offset 4, -8
 670              		.cfi_offset 14, -4
 274:USB_DEVICE/Target/usbd_conf.c **** }
 671              		.loc 1 274 3 is_stmt 1 view .LVU120
 274:USB_DEVICE/Target/usbd_conf.c **** }
 672              		.loc 1 274 49 is_stmt 0 view .LVU121
 673 0002 BC23     		movs	r3, #188
 674 0004 9B00     		lsls	r3, r3, #2
 675 0006 C058     		ldr	r0, [r0, r3]
 676              	.LVL58:
 274:USB_DEVICE/Target/usbd_conf.c **** }
 677              		.loc 1 274 3 view .LVU122
 678 0008 FFF7FEFF 		bl	USBD_LL_DevConnected
 679              	.LVL59:
 275:USB_DEVICE/Target/usbd_conf.c **** 
 680              		.loc 1 275 1 view .LVU123
 681              		@ sp needed
 682 000c 10BD     		pop	{r4, pc}
 683              		.cfi_endproc
 684              	.LFE54:
 686              		.section	.text.HAL_PCD_DisconnectCallback,"ax",%progbits
ARM GAS  /tmp/ccCXsivu.s 			page 26


 687              		.align	1
 688              		.global	HAL_PCD_DisconnectCallback
 689              		.syntax unified
 690              		.code	16
 691              		.thumb_func
 692              		.fpu softvfp
 694              	HAL_PCD_DisconnectCallback:
 695              	.LVL60:
 696              	.LFB55:
 287:USB_DEVICE/Target/usbd_conf.c ****   USBD_LL_DevDisconnected((USBD_HandleTypeDef*)hpcd->pData);
 697              		.loc 1 287 1 is_stmt 1 view -0
 698              		.cfi_startproc
 699              		@ args = 0, pretend = 0, frame = 0
 700              		@ frame_needed = 0, uses_anonymous_args = 0
 287:USB_DEVICE/Target/usbd_conf.c ****   USBD_LL_DevDisconnected((USBD_HandleTypeDef*)hpcd->pData);
 701              		.loc 1 287 1 is_stmt 0 view .LVU125
 702 0000 10B5     		push	{r4, lr}
 703              	.LCFI14:
 704              		.cfi_def_cfa_offset 8
 705              		.cfi_offset 4, -8
 706              		.cfi_offset 14, -4
 288:USB_DEVICE/Target/usbd_conf.c **** }
 707              		.loc 1 288 3 is_stmt 1 view .LVU126
 288:USB_DEVICE/Target/usbd_conf.c **** }
 708              		.loc 1 288 52 is_stmt 0 view .LVU127
 709 0002 BC23     		movs	r3, #188
 710 0004 9B00     		lsls	r3, r3, #2
 711 0006 C058     		ldr	r0, [r0, r3]
 712              	.LVL61:
 288:USB_DEVICE/Target/usbd_conf.c **** }
 713              		.loc 1 288 3 view .LVU128
 714 0008 FFF7FEFF 		bl	USBD_LL_DevDisconnected
 715              	.LVL62:
 289:USB_DEVICE/Target/usbd_conf.c **** 
 716              		.loc 1 289 1 view .LVU129
 717              		@ sp needed
 718 000c 10BD     		pop	{r4, pc}
 719              		.cfi_endproc
 720              	.LFE55:
 722              		.section	.text.USBD_LL_Init,"ax",%progbits
 723              		.align	1
 724              		.global	USBD_LL_Init
 725              		.syntax unified
 726              		.code	16
 727              		.thumb_func
 728              		.fpu softvfp
 730              	USBD_LL_Init:
 731              	.LVL63:
 732              	.LFB56:
 301:USB_DEVICE/Target/usbd_conf.c ****   /* Init USB Ip. */
 733              		.loc 1 301 1 is_stmt 1 view -0
 734              		.cfi_startproc
 735              		@ args = 0, pretend = 0, frame = 0
 736              		@ frame_needed = 0, uses_anonymous_args = 0
 301:USB_DEVICE/Target/usbd_conf.c ****   /* Init USB Ip. */
 737              		.loc 1 301 1 is_stmt 0 view .LVU131
 738 0000 70B5     		push	{r4, r5, r6, lr}
ARM GAS  /tmp/ccCXsivu.s 			page 27


 739              	.LCFI15:
 740              		.cfi_def_cfa_offset 16
 741              		.cfi_offset 4, -16
 742              		.cfi_offset 5, -12
 743              		.cfi_offset 6, -8
 744              		.cfi_offset 14, -4
 745 0002 0400     		movs	r4, r0
 304:USB_DEVICE/Target/usbd_conf.c ****   pdev->pData = &hpcd_USB_FS;
 746              		.loc 1 304 3 is_stmt 1 view .LVU132
 304:USB_DEVICE/Target/usbd_conf.c ****   pdev->pData = &hpcd_USB_FS;
 747              		.loc 1 304 21 is_stmt 0 view .LVU133
 748 0004 1D48     		ldr	r0, .L40
 749              	.LVL64:
 304:USB_DEVICE/Target/usbd_conf.c ****   pdev->pData = &hpcd_USB_FS;
 750              		.loc 1 304 21 view .LVU134
 751 0006 BC23     		movs	r3, #188
 752 0008 9B00     		lsls	r3, r3, #2
 753 000a C450     		str	r4, [r0, r3]
 305:USB_DEVICE/Target/usbd_conf.c **** 
 754              		.loc 1 305 3 is_stmt 1 view .LVU135
 305:USB_DEVICE/Target/usbd_conf.c **** 
 755              		.loc 1 305 15 is_stmt 0 view .LVU136
 756 000c 303B     		subs	r3, r3, #48
 757 000e E050     		str	r0, [r4, r3]
 307:USB_DEVICE/Target/usbd_conf.c ****   hpcd_USB_FS.Init.dev_endpoints = 8;
 758              		.loc 1 307 3 is_stmt 1 view .LVU137
 307:USB_DEVICE/Target/usbd_conf.c ****   hpcd_USB_FS.Init.dev_endpoints = 8;
 759              		.loc 1 307 24 is_stmt 0 view .LVU138
 760 0010 1B4B     		ldr	r3, .L40+4
 761 0012 0360     		str	r3, [r0]
 308:USB_DEVICE/Target/usbd_conf.c ****   hpcd_USB_FS.Init.speed = PCD_SPEED_FULL;
 762              		.loc 1 308 3 is_stmt 1 view .LVU139
 308:USB_DEVICE/Target/usbd_conf.c ****   hpcd_USB_FS.Init.speed = PCD_SPEED_FULL;
 763              		.loc 1 308 34 is_stmt 0 view .LVU140
 764 0014 0823     		movs	r3, #8
 765 0016 4360     		str	r3, [r0, #4]
 309:USB_DEVICE/Target/usbd_conf.c ****   hpcd_USB_FS.Init.phy_itface = PCD_PHY_EMBEDDED;
 766              		.loc 1 309 3 is_stmt 1 view .LVU141
 309:USB_DEVICE/Target/usbd_conf.c ****   hpcd_USB_FS.Init.phy_itface = PCD_PHY_EMBEDDED;
 767              		.loc 1 309 26 is_stmt 0 view .LVU142
 768 0018 063B     		subs	r3, r3, #6
 769 001a 8360     		str	r3, [r0, #8]
 310:USB_DEVICE/Target/usbd_conf.c ****   hpcd_USB_FS.Init.low_power_enable = DISABLE;
 770              		.loc 1 310 3 is_stmt 1 view .LVU143
 310:USB_DEVICE/Target/usbd_conf.c ****   hpcd_USB_FS.Init.low_power_enable = DISABLE;
 771              		.loc 1 310 31 is_stmt 0 view .LVU144
 772 001c 0361     		str	r3, [r0, #16]
 311:USB_DEVICE/Target/usbd_conf.c ****   hpcd_USB_FS.Init.lpm_enable = DISABLE;
 773              		.loc 1 311 3 is_stmt 1 view .LVU145
 311:USB_DEVICE/Target/usbd_conf.c ****   hpcd_USB_FS.Init.lpm_enable = DISABLE;
 774              		.loc 1 311 37 is_stmt 0 view .LVU146
 775 001e 0023     		movs	r3, #0
 776 0020 8361     		str	r3, [r0, #24]
 312:USB_DEVICE/Target/usbd_conf.c ****   hpcd_USB_FS.Init.battery_charging_enable = DISABLE;
 777              		.loc 1 312 3 is_stmt 1 view .LVU147
 312:USB_DEVICE/Target/usbd_conf.c ****   hpcd_USB_FS.Init.battery_charging_enable = DISABLE;
 778              		.loc 1 312 31 is_stmt 0 view .LVU148
ARM GAS  /tmp/ccCXsivu.s 			page 28


 779 0022 C361     		str	r3, [r0, #28]
 313:USB_DEVICE/Target/usbd_conf.c ****   if (HAL_PCD_Init(&hpcd_USB_FS) != HAL_OK)
 780              		.loc 1 313 3 is_stmt 1 view .LVU149
 313:USB_DEVICE/Target/usbd_conf.c ****   if (HAL_PCD_Init(&hpcd_USB_FS) != HAL_OK)
 781              		.loc 1 313 44 is_stmt 0 view .LVU150
 782 0024 0362     		str	r3, [r0, #32]
 314:USB_DEVICE/Target/usbd_conf.c ****   {
 783              		.loc 1 314 3 is_stmt 1 view .LVU151
 314:USB_DEVICE/Target/usbd_conf.c ****   {
 784              		.loc 1 314 7 is_stmt 0 view .LVU152
 785 0026 FFF7FEFF 		bl	HAL_PCD_Init
 786              	.LVL65:
 314:USB_DEVICE/Target/usbd_conf.c ****   {
 787              		.loc 1 314 6 view .LVU153
 788 002a 0028     		cmp	r0, #0
 789 002c 23D1     		bne	.L39
 790              	.L38:
 335:USB_DEVICE/Target/usbd_conf.c ****   HAL_PCDEx_PMAConfig((PCD_HandleTypeDef*)pdev->pData , 0x80 , PCD_SNG_BUF, 0x58);
 791              		.loc 1 335 3 is_stmt 1 view .LVU154
 335:USB_DEVICE/Target/usbd_conf.c ****   HAL_PCDEx_PMAConfig((PCD_HandleTypeDef*)pdev->pData , 0x80 , PCD_SNG_BUF, 0x58);
 792              		.loc 1 335 47 is_stmt 0 view .LVU155
 793 002e B025     		movs	r5, #176
 794 0030 AD00     		lsls	r5, r5, #2
 335:USB_DEVICE/Target/usbd_conf.c ****   HAL_PCDEx_PMAConfig((PCD_HandleTypeDef*)pdev->pData , 0x80 , PCD_SNG_BUF, 0x58);
 795              		.loc 1 335 3 view .LVU156
 796 0032 1823     		movs	r3, #24
 797 0034 0022     		movs	r2, #0
 798 0036 0021     		movs	r1, #0
 799 0038 6059     		ldr	r0, [r4, r5]
 800 003a FFF7FEFF 		bl	HAL_PCDEx_PMAConfig
 801              	.LVL66:
 336:USB_DEVICE/Target/usbd_conf.c ****   /* USER CODE END EndPoint_Configuration */
 802              		.loc 1 336 3 is_stmt 1 view .LVU157
 803 003e 5823     		movs	r3, #88
 804 0040 0022     		movs	r2, #0
 805 0042 8021     		movs	r1, #128
 806 0044 6059     		ldr	r0, [r4, r5]
 807 0046 FFF7FEFF 		bl	HAL_PCDEx_PMAConfig
 808              	.LVL67:
 339:USB_DEVICE/Target/usbd_conf.c ****   HAL_PCDEx_PMAConfig((PCD_HandleTypeDef*)pdev->pData , 0x01 , PCD_SNG_BUF, 0x110);
 809              		.loc 1 339 3 view .LVU158
 810 004a C023     		movs	r3, #192
 811 004c 0022     		movs	r2, #0
 812 004e 8121     		movs	r1, #129
 813 0050 6059     		ldr	r0, [r4, r5]
 814 0052 FFF7FEFF 		bl	HAL_PCDEx_PMAConfig
 815              	.LVL68:
 340:USB_DEVICE/Target/usbd_conf.c ****   HAL_PCDEx_PMAConfig((PCD_HandleTypeDef*)pdev->pData , 0x82 , PCD_SNG_BUF, 0x100);
 816              		.loc 1 340 3 view .LVU159
 817 0056 8823     		movs	r3, #136
 818 0058 5B00     		lsls	r3, r3, #1
 819 005a 0022     		movs	r2, #0
 820 005c 0121     		movs	r1, #1
 821 005e 6059     		ldr	r0, [r4, r5]
 822 0060 FFF7FEFF 		bl	HAL_PCDEx_PMAConfig
 823              	.LVL69:
 341:USB_DEVICE/Target/usbd_conf.c ****   /* USER CODE END EndPoint_Configuration_CDC */
ARM GAS  /tmp/ccCXsivu.s 			page 29


 824              		.loc 1 341 3 view .LVU160
 341:USB_DEVICE/Target/usbd_conf.c ****   /* USER CODE END EndPoint_Configuration_CDC */
 825              		.loc 1 341 47 is_stmt 0 view .LVU161
 826 0064 6059     		ldr	r0, [r4, r5]
 341:USB_DEVICE/Target/usbd_conf.c ****   /* USER CODE END EndPoint_Configuration_CDC */
 827              		.loc 1 341 3 view .LVU162
 828 0066 8023     		movs	r3, #128
 829 0068 5B00     		lsls	r3, r3, #1
 830 006a 0022     		movs	r2, #0
 831 006c 8221     		movs	r1, #130
 832 006e FFF7FEFF 		bl	HAL_PCDEx_PMAConfig
 833              	.LVL70:
 343:USB_DEVICE/Target/usbd_conf.c **** }
 834              		.loc 1 343 3 is_stmt 1 view .LVU163
 344:USB_DEVICE/Target/usbd_conf.c **** 
 835              		.loc 1 344 1 is_stmt 0 view .LVU164
 836 0072 0020     		movs	r0, #0
 837              		@ sp needed
 838              	.LVL71:
 344:USB_DEVICE/Target/usbd_conf.c **** 
 839              		.loc 1 344 1 view .LVU165
 840 0074 70BD     		pop	{r4, r5, r6, pc}
 841              	.LVL72:
 842              	.L39:
 316:USB_DEVICE/Target/usbd_conf.c ****   }
 843              		.loc 1 316 5 is_stmt 1 view .LVU166
 844 0076 FFF7FEFF 		bl	Error_Handler
 845              	.LVL73:
 846 007a D8E7     		b	.L38
 847              	.L41:
 848              		.align	2
 849              	.L40:
 850 007c 00000000 		.word	hpcd_USB_FS
 851 0080 005C0040 		.word	1073765376
 852              		.cfi_endproc
 853              	.LFE56:
 855              		.section	.text.USBD_LL_DeInit,"ax",%progbits
 856              		.align	1
 857              		.global	USBD_LL_DeInit
 858              		.syntax unified
 859              		.code	16
 860              		.thumb_func
 861              		.fpu softvfp
 863              	USBD_LL_DeInit:
 864              	.LVL74:
 865              	.LFB57:
 352:USB_DEVICE/Target/usbd_conf.c ****   HAL_StatusTypeDef hal_status = HAL_OK;
 866              		.loc 1 352 1 view -0
 867              		.cfi_startproc
 868              		@ args = 0, pretend = 0, frame = 0
 869              		@ frame_needed = 0, uses_anonymous_args = 0
 352:USB_DEVICE/Target/usbd_conf.c ****   HAL_StatusTypeDef hal_status = HAL_OK;
 870              		.loc 1 352 1 is_stmt 0 view .LVU168
 871 0000 10B5     		push	{r4, lr}
 872              	.LCFI16:
 873              		.cfi_def_cfa_offset 8
 874              		.cfi_offset 4, -8
ARM GAS  /tmp/ccCXsivu.s 			page 30


 875              		.cfi_offset 14, -4
 353:USB_DEVICE/Target/usbd_conf.c ****   USBD_StatusTypeDef usb_status = USBD_OK;
 876              		.loc 1 353 3 is_stmt 1 view .LVU169
 877              	.LVL75:
 354:USB_DEVICE/Target/usbd_conf.c **** 
 878              		.loc 1 354 3 view .LVU170
 356:USB_DEVICE/Target/usbd_conf.c **** 
 879              		.loc 1 356 3 view .LVU171
 356:USB_DEVICE/Target/usbd_conf.c **** 
 880              		.loc 1 356 35 is_stmt 0 view .LVU172
 881 0002 B023     		movs	r3, #176
 882 0004 9B00     		lsls	r3, r3, #2
 883 0006 C058     		ldr	r0, [r0, r3]
 884              	.LVL76:
 356:USB_DEVICE/Target/usbd_conf.c **** 
 885              		.loc 1 356 16 view .LVU173
 886 0008 FFF7FEFF 		bl	HAL_PCD_DeInit
 887              	.LVL77:
 358:USB_DEVICE/Target/usbd_conf.c **** 
 888              		.loc 1 358 3 is_stmt 1 view .LVU174
 358:USB_DEVICE/Target/usbd_conf.c **** 
 889              		.loc 1 358 17 is_stmt 0 view .LVU175
 890 000c FFF7FEFF 		bl	USBD_Get_USB_Status
 891              	.LVL78:
 360:USB_DEVICE/Target/usbd_conf.c **** }
 892              		.loc 1 360 3 is_stmt 1 view .LVU176
 361:USB_DEVICE/Target/usbd_conf.c **** 
 893              		.loc 1 361 1 is_stmt 0 view .LVU177
 894              		@ sp needed
 895 0010 10BD     		pop	{r4, pc}
 896              		.cfi_endproc
 897              	.LFE57:
 899              		.section	.text.USBD_LL_Start,"ax",%progbits
 900              		.align	1
 901              		.global	USBD_LL_Start
 902              		.syntax unified
 903              		.code	16
 904              		.thumb_func
 905              		.fpu softvfp
 907              	USBD_LL_Start:
 908              	.LVL79:
 909              	.LFB58:
 369:USB_DEVICE/Target/usbd_conf.c ****   HAL_StatusTypeDef hal_status = HAL_OK;
 910              		.loc 1 369 1 is_stmt 1 view -0
 911              		.cfi_startproc
 912              		@ args = 0, pretend = 0, frame = 0
 913              		@ frame_needed = 0, uses_anonymous_args = 0
 369:USB_DEVICE/Target/usbd_conf.c ****   HAL_StatusTypeDef hal_status = HAL_OK;
 914              		.loc 1 369 1 is_stmt 0 view .LVU179
 915 0000 10B5     		push	{r4, lr}
 916              	.LCFI17:
 917              		.cfi_def_cfa_offset 8
 918              		.cfi_offset 4, -8
 919              		.cfi_offset 14, -4
 370:USB_DEVICE/Target/usbd_conf.c ****   USBD_StatusTypeDef usb_status = USBD_OK;
 920              		.loc 1 370 3 is_stmt 1 view .LVU180
 921              	.LVL80:
ARM GAS  /tmp/ccCXsivu.s 			page 31


 371:USB_DEVICE/Target/usbd_conf.c **** 
 922              		.loc 1 371 3 view .LVU181
 373:USB_DEVICE/Target/usbd_conf.c **** 
 923              		.loc 1 373 3 view .LVU182
 373:USB_DEVICE/Target/usbd_conf.c **** 
 924              		.loc 1 373 34 is_stmt 0 view .LVU183
 925 0002 B023     		movs	r3, #176
 926 0004 9B00     		lsls	r3, r3, #2
 927 0006 C058     		ldr	r0, [r0, r3]
 928              	.LVL81:
 373:USB_DEVICE/Target/usbd_conf.c **** 
 929              		.loc 1 373 16 view .LVU184
 930 0008 FFF7FEFF 		bl	HAL_PCD_Start
 931              	.LVL82:
 375:USB_DEVICE/Target/usbd_conf.c **** 
 932              		.loc 1 375 3 is_stmt 1 view .LVU185
 375:USB_DEVICE/Target/usbd_conf.c **** 
 933              		.loc 1 375 17 is_stmt 0 view .LVU186
 934 000c FFF7FEFF 		bl	USBD_Get_USB_Status
 935              	.LVL83:
 377:USB_DEVICE/Target/usbd_conf.c **** }
 936              		.loc 1 377 3 is_stmt 1 view .LVU187
 378:USB_DEVICE/Target/usbd_conf.c **** 
 937              		.loc 1 378 1 is_stmt 0 view .LVU188
 938              		@ sp needed
 939 0010 10BD     		pop	{r4, pc}
 940              		.cfi_endproc
 941              	.LFE58:
 943              		.section	.text.USBD_LL_Stop,"ax",%progbits
 944              		.align	1
 945              		.global	USBD_LL_Stop
 946              		.syntax unified
 947              		.code	16
 948              		.thumb_func
 949              		.fpu softvfp
 951              	USBD_LL_Stop:
 952              	.LVL84:
 953              	.LFB59:
 386:USB_DEVICE/Target/usbd_conf.c ****   HAL_StatusTypeDef hal_status = HAL_OK;
 954              		.loc 1 386 1 is_stmt 1 view -0
 955              		.cfi_startproc
 956              		@ args = 0, pretend = 0, frame = 0
 957              		@ frame_needed = 0, uses_anonymous_args = 0
 386:USB_DEVICE/Target/usbd_conf.c ****   HAL_StatusTypeDef hal_status = HAL_OK;
 958              		.loc 1 386 1 is_stmt 0 view .LVU190
 959 0000 10B5     		push	{r4, lr}
 960              	.LCFI18:
 961              		.cfi_def_cfa_offset 8
 962              		.cfi_offset 4, -8
 963              		.cfi_offset 14, -4
 387:USB_DEVICE/Target/usbd_conf.c ****   USBD_StatusTypeDef usb_status = USBD_OK;
 964              		.loc 1 387 3 is_stmt 1 view .LVU191
 965              	.LVL85:
 388:USB_DEVICE/Target/usbd_conf.c **** 
 966              		.loc 1 388 3 view .LVU192
 390:USB_DEVICE/Target/usbd_conf.c **** 
 967              		.loc 1 390 3 view .LVU193
ARM GAS  /tmp/ccCXsivu.s 			page 32


 390:USB_DEVICE/Target/usbd_conf.c **** 
 968              		.loc 1 390 33 is_stmt 0 view .LVU194
 969 0002 B023     		movs	r3, #176
 970 0004 9B00     		lsls	r3, r3, #2
 971 0006 C058     		ldr	r0, [r0, r3]
 972              	.LVL86:
 390:USB_DEVICE/Target/usbd_conf.c **** 
 973              		.loc 1 390 16 view .LVU195
 974 0008 FFF7FEFF 		bl	HAL_PCD_Stop
 975              	.LVL87:
 392:USB_DEVICE/Target/usbd_conf.c **** 
 976              		.loc 1 392 3 is_stmt 1 view .LVU196
 392:USB_DEVICE/Target/usbd_conf.c **** 
 977              		.loc 1 392 17 is_stmt 0 view .LVU197
 978 000c FFF7FEFF 		bl	USBD_Get_USB_Status
 979              	.LVL88:
 394:USB_DEVICE/Target/usbd_conf.c **** }
 980              		.loc 1 394 3 is_stmt 1 view .LVU198
 395:USB_DEVICE/Target/usbd_conf.c **** 
 981              		.loc 1 395 1 is_stmt 0 view .LVU199
 982              		@ sp needed
 983 0010 10BD     		pop	{r4, pc}
 984              		.cfi_endproc
 985              	.LFE59:
 987              		.section	.text.USBD_LL_OpenEP,"ax",%progbits
 988              		.align	1
 989              		.global	USBD_LL_OpenEP
 990              		.syntax unified
 991              		.code	16
 992              		.thumb_func
 993              		.fpu softvfp
 995              	USBD_LL_OpenEP:
 996              	.LVL89:
 997              	.LFB60:
 406:USB_DEVICE/Target/usbd_conf.c ****   HAL_StatusTypeDef hal_status = HAL_OK;
 998              		.loc 1 406 1 is_stmt 1 view -0
 999              		.cfi_startproc
 1000              		@ args = 0, pretend = 0, frame = 0
 1001              		@ frame_needed = 0, uses_anonymous_args = 0
 406:USB_DEVICE/Target/usbd_conf.c ****   HAL_StatusTypeDef hal_status = HAL_OK;
 1002              		.loc 1 406 1 is_stmt 0 view .LVU201
 1003 0000 10B5     		push	{r4, lr}
 1004              	.LCFI19:
 1005              		.cfi_def_cfa_offset 8
 1006              		.cfi_offset 4, -8
 1007              		.cfi_offset 14, -4
 1008 0002 1400     		movs	r4, r2
 1009 0004 1A00     		movs	r2, r3
 1010              	.LVL90:
 407:USB_DEVICE/Target/usbd_conf.c ****   USBD_StatusTypeDef usb_status = USBD_OK;
 1011              		.loc 1 407 3 is_stmt 1 view .LVU202
 408:USB_DEVICE/Target/usbd_conf.c **** 
 1012              		.loc 1 408 3 view .LVU203
 410:USB_DEVICE/Target/usbd_conf.c **** 
 1013              		.loc 1 410 3 view .LVU204
 410:USB_DEVICE/Target/usbd_conf.c **** 
 1014              		.loc 1 410 36 is_stmt 0 view .LVU205
ARM GAS  /tmp/ccCXsivu.s 			page 33


 1015 0006 B023     		movs	r3, #176
 1016              	.LVL91:
 410:USB_DEVICE/Target/usbd_conf.c **** 
 1017              		.loc 1 410 36 view .LVU206
 1018 0008 9B00     		lsls	r3, r3, #2
 1019 000a C058     		ldr	r0, [r0, r3]
 1020              	.LVL92:
 410:USB_DEVICE/Target/usbd_conf.c **** 
 1021              		.loc 1 410 16 view .LVU207
 1022 000c 2300     		movs	r3, r4
 1023 000e FFF7FEFF 		bl	HAL_PCD_EP_Open
 1024              	.LVL93:
 412:USB_DEVICE/Target/usbd_conf.c **** 
 1025              		.loc 1 412 3 is_stmt 1 view .LVU208
 412:USB_DEVICE/Target/usbd_conf.c **** 
 1026              		.loc 1 412 17 is_stmt 0 view .LVU209
 1027 0012 FFF7FEFF 		bl	USBD_Get_USB_Status
 1028              	.LVL94:
 414:USB_DEVICE/Target/usbd_conf.c **** }
 1029              		.loc 1 414 3 is_stmt 1 view .LVU210
 415:USB_DEVICE/Target/usbd_conf.c **** 
 1030              		.loc 1 415 1 is_stmt 0 view .LVU211
 1031              		@ sp needed
 1032 0016 10BD     		pop	{r4, pc}
 1033              		.cfi_endproc
 1034              	.LFE60:
 1036              		.section	.text.USBD_LL_CloseEP,"ax",%progbits
 1037              		.align	1
 1038              		.global	USBD_LL_CloseEP
 1039              		.syntax unified
 1040              		.code	16
 1041              		.thumb_func
 1042              		.fpu softvfp
 1044              	USBD_LL_CloseEP:
 1045              	.LVL95:
 1046              	.LFB61:
 424:USB_DEVICE/Target/usbd_conf.c ****   HAL_StatusTypeDef hal_status = HAL_OK;
 1047              		.loc 1 424 1 is_stmt 1 view -0
 1048              		.cfi_startproc
 1049              		@ args = 0, pretend = 0, frame = 0
 1050              		@ frame_needed = 0, uses_anonymous_args = 0
 424:USB_DEVICE/Target/usbd_conf.c ****   HAL_StatusTypeDef hal_status = HAL_OK;
 1051              		.loc 1 424 1 is_stmt 0 view .LVU213
 1052 0000 10B5     		push	{r4, lr}
 1053              	.LCFI20:
 1054              		.cfi_def_cfa_offset 8
 1055              		.cfi_offset 4, -8
 1056              		.cfi_offset 14, -4
 425:USB_DEVICE/Target/usbd_conf.c ****   USBD_StatusTypeDef usb_status = USBD_OK;
 1057              		.loc 1 425 3 is_stmt 1 view .LVU214
 1058              	.LVL96:
 426:USB_DEVICE/Target/usbd_conf.c **** 
 1059              		.loc 1 426 3 view .LVU215
 428:USB_DEVICE/Target/usbd_conf.c **** 
 1060              		.loc 1 428 3 view .LVU216
 428:USB_DEVICE/Target/usbd_conf.c **** 
 1061              		.loc 1 428 37 is_stmt 0 view .LVU217
ARM GAS  /tmp/ccCXsivu.s 			page 34


 1062 0002 B023     		movs	r3, #176
 1063 0004 9B00     		lsls	r3, r3, #2
 1064 0006 C058     		ldr	r0, [r0, r3]
 1065              	.LVL97:
 428:USB_DEVICE/Target/usbd_conf.c **** 
 1066              		.loc 1 428 16 view .LVU218
 1067 0008 FFF7FEFF 		bl	HAL_PCD_EP_Close
 1068              	.LVL98:
 430:USB_DEVICE/Target/usbd_conf.c **** 
 1069              		.loc 1 430 3 is_stmt 1 view .LVU219
 430:USB_DEVICE/Target/usbd_conf.c **** 
 1070              		.loc 1 430 17 is_stmt 0 view .LVU220
 1071 000c FFF7FEFF 		bl	USBD_Get_USB_Status
 1072              	.LVL99:
 432:USB_DEVICE/Target/usbd_conf.c **** }
 1073              		.loc 1 432 3 is_stmt 1 view .LVU221
 433:USB_DEVICE/Target/usbd_conf.c **** 
 1074              		.loc 1 433 1 is_stmt 0 view .LVU222
 1075              		@ sp needed
 1076 0010 10BD     		pop	{r4, pc}
 1077              		.cfi_endproc
 1078              	.LFE61:
 1080              		.section	.text.USBD_LL_FlushEP,"ax",%progbits
 1081              		.align	1
 1082              		.global	USBD_LL_FlushEP
 1083              		.syntax unified
 1084              		.code	16
 1085              		.thumb_func
 1086              		.fpu softvfp
 1088              	USBD_LL_FlushEP:
 1089              	.LVL100:
 1090              	.LFB62:
 442:USB_DEVICE/Target/usbd_conf.c ****   HAL_StatusTypeDef hal_status = HAL_OK;
 1091              		.loc 1 442 1 is_stmt 1 view -0
 1092              		.cfi_startproc
 1093              		@ args = 0, pretend = 0, frame = 0
 1094              		@ frame_needed = 0, uses_anonymous_args = 0
 442:USB_DEVICE/Target/usbd_conf.c ****   HAL_StatusTypeDef hal_status = HAL_OK;
 1095              		.loc 1 442 1 is_stmt 0 view .LVU224
 1096 0000 10B5     		push	{r4, lr}
 1097              	.LCFI21:
 1098              		.cfi_def_cfa_offset 8
 1099              		.cfi_offset 4, -8
 1100              		.cfi_offset 14, -4
 443:USB_DEVICE/Target/usbd_conf.c ****   USBD_StatusTypeDef usb_status = USBD_OK;
 1101              		.loc 1 443 3 is_stmt 1 view .LVU225
 1102              	.LVL101:
 444:USB_DEVICE/Target/usbd_conf.c **** 
 1103              		.loc 1 444 3 view .LVU226
 446:USB_DEVICE/Target/usbd_conf.c **** 
 1104              		.loc 1 446 3 view .LVU227
 446:USB_DEVICE/Target/usbd_conf.c **** 
 1105              		.loc 1 446 37 is_stmt 0 view .LVU228
 1106 0002 B023     		movs	r3, #176
 1107 0004 9B00     		lsls	r3, r3, #2
 1108 0006 C058     		ldr	r0, [r0, r3]
 1109              	.LVL102:
ARM GAS  /tmp/ccCXsivu.s 			page 35


 446:USB_DEVICE/Target/usbd_conf.c **** 
 1110              		.loc 1 446 16 view .LVU229
 1111 0008 FFF7FEFF 		bl	HAL_PCD_EP_Flush
 1112              	.LVL103:
 448:USB_DEVICE/Target/usbd_conf.c **** 
 1113              		.loc 1 448 3 is_stmt 1 view .LVU230
 448:USB_DEVICE/Target/usbd_conf.c **** 
 1114              		.loc 1 448 17 is_stmt 0 view .LVU231
 1115 000c FFF7FEFF 		bl	USBD_Get_USB_Status
 1116              	.LVL104:
 450:USB_DEVICE/Target/usbd_conf.c **** }
 1117              		.loc 1 450 3 is_stmt 1 view .LVU232
 451:USB_DEVICE/Target/usbd_conf.c **** 
 1118              		.loc 1 451 1 is_stmt 0 view .LVU233
 1119              		@ sp needed
 1120 0010 10BD     		pop	{r4, pc}
 1121              		.cfi_endproc
 1122              	.LFE62:
 1124              		.section	.text.USBD_LL_StallEP,"ax",%progbits
 1125              		.align	1
 1126              		.global	USBD_LL_StallEP
 1127              		.syntax unified
 1128              		.code	16
 1129              		.thumb_func
 1130              		.fpu softvfp
 1132              	USBD_LL_StallEP:
 1133              	.LVL105:
 1134              	.LFB63:
 460:USB_DEVICE/Target/usbd_conf.c ****   HAL_StatusTypeDef hal_status = HAL_OK;
 1135              		.loc 1 460 1 is_stmt 1 view -0
 1136              		.cfi_startproc
 1137              		@ args = 0, pretend = 0, frame = 0
 1138              		@ frame_needed = 0, uses_anonymous_args = 0
 460:USB_DEVICE/Target/usbd_conf.c ****   HAL_StatusTypeDef hal_status = HAL_OK;
 1139              		.loc 1 460 1 is_stmt 0 view .LVU235
 1140 0000 10B5     		push	{r4, lr}
 1141              	.LCFI22:
 1142              		.cfi_def_cfa_offset 8
 1143              		.cfi_offset 4, -8
 1144              		.cfi_offset 14, -4
 461:USB_DEVICE/Target/usbd_conf.c ****   USBD_StatusTypeDef usb_status = USBD_OK;
 1145              		.loc 1 461 3 is_stmt 1 view .LVU236
 1146              	.LVL106:
 462:USB_DEVICE/Target/usbd_conf.c **** 
 1147              		.loc 1 462 3 view .LVU237
 464:USB_DEVICE/Target/usbd_conf.c **** 
 1148              		.loc 1 464 3 view .LVU238
 464:USB_DEVICE/Target/usbd_conf.c **** 
 1149              		.loc 1 464 40 is_stmt 0 view .LVU239
 1150 0002 B023     		movs	r3, #176
 1151 0004 9B00     		lsls	r3, r3, #2
 1152 0006 C058     		ldr	r0, [r0, r3]
 1153              	.LVL107:
 464:USB_DEVICE/Target/usbd_conf.c **** 
 1154              		.loc 1 464 16 view .LVU240
 1155 0008 FFF7FEFF 		bl	HAL_PCD_EP_SetStall
 1156              	.LVL108:
ARM GAS  /tmp/ccCXsivu.s 			page 36


 466:USB_DEVICE/Target/usbd_conf.c **** 
 1157              		.loc 1 466 3 is_stmt 1 view .LVU241
 466:USB_DEVICE/Target/usbd_conf.c **** 
 1158              		.loc 1 466 17 is_stmt 0 view .LVU242
 1159 000c FFF7FEFF 		bl	USBD_Get_USB_Status
 1160              	.LVL109:
 468:USB_DEVICE/Target/usbd_conf.c **** }
 1161              		.loc 1 468 3 is_stmt 1 view .LVU243
 469:USB_DEVICE/Target/usbd_conf.c **** 
 1162              		.loc 1 469 1 is_stmt 0 view .LVU244
 1163              		@ sp needed
 1164 0010 10BD     		pop	{r4, pc}
 1165              		.cfi_endproc
 1166              	.LFE63:
 1168              		.section	.text.USBD_LL_ClearStallEP,"ax",%progbits
 1169              		.align	1
 1170              		.global	USBD_LL_ClearStallEP
 1171              		.syntax unified
 1172              		.code	16
 1173              		.thumb_func
 1174              		.fpu softvfp
 1176              	USBD_LL_ClearStallEP:
 1177              	.LVL110:
 1178              	.LFB64:
 478:USB_DEVICE/Target/usbd_conf.c ****   HAL_StatusTypeDef hal_status = HAL_OK;
 1179              		.loc 1 478 1 is_stmt 1 view -0
 1180              		.cfi_startproc
 1181              		@ args = 0, pretend = 0, frame = 0
 1182              		@ frame_needed = 0, uses_anonymous_args = 0
 478:USB_DEVICE/Target/usbd_conf.c ****   HAL_StatusTypeDef hal_status = HAL_OK;
 1183              		.loc 1 478 1 is_stmt 0 view .LVU246
 1184 0000 10B5     		push	{r4, lr}
 1185              	.LCFI23:
 1186              		.cfi_def_cfa_offset 8
 1187              		.cfi_offset 4, -8
 1188              		.cfi_offset 14, -4
 479:USB_DEVICE/Target/usbd_conf.c ****   USBD_StatusTypeDef usb_status = USBD_OK;
 1189              		.loc 1 479 3 is_stmt 1 view .LVU247
 1190              	.LVL111:
 480:USB_DEVICE/Target/usbd_conf.c **** 
 1191              		.loc 1 480 3 view .LVU248
 482:USB_DEVICE/Target/usbd_conf.c **** 
 1192              		.loc 1 482 3 view .LVU249
 482:USB_DEVICE/Target/usbd_conf.c **** 
 1193              		.loc 1 482 40 is_stmt 0 view .LVU250
 1194 0002 B023     		movs	r3, #176
 1195 0004 9B00     		lsls	r3, r3, #2
 1196 0006 C058     		ldr	r0, [r0, r3]
 1197              	.LVL112:
 482:USB_DEVICE/Target/usbd_conf.c **** 
 1198              		.loc 1 482 16 view .LVU251
 1199 0008 FFF7FEFF 		bl	HAL_PCD_EP_ClrStall
 1200              	.LVL113:
 484:USB_DEVICE/Target/usbd_conf.c **** 
 1201              		.loc 1 484 3 is_stmt 1 view .LVU252
 484:USB_DEVICE/Target/usbd_conf.c **** 
 1202              		.loc 1 484 17 is_stmt 0 view .LVU253
ARM GAS  /tmp/ccCXsivu.s 			page 37


 1203 000c FFF7FEFF 		bl	USBD_Get_USB_Status
 1204              	.LVL114:
 486:USB_DEVICE/Target/usbd_conf.c **** }
 1205              		.loc 1 486 3 is_stmt 1 view .LVU254
 487:USB_DEVICE/Target/usbd_conf.c **** 
 1206              		.loc 1 487 1 is_stmt 0 view .LVU255
 1207              		@ sp needed
 1208 0010 10BD     		pop	{r4, pc}
 1209              		.cfi_endproc
 1210              	.LFE64:
 1212              		.section	.text.USBD_LL_IsStallEP,"ax",%progbits
 1213              		.align	1
 1214              		.global	USBD_LL_IsStallEP
 1215              		.syntax unified
 1216              		.code	16
 1217              		.thumb_func
 1218              		.fpu softvfp
 1220              	USBD_LL_IsStallEP:
 1221              	.LVL115:
 1222              	.LFB65:
 496:USB_DEVICE/Target/usbd_conf.c ****   PCD_HandleTypeDef *hpcd = (PCD_HandleTypeDef*) pdev->pData;
 1223              		.loc 1 496 1 is_stmt 1 view -0
 1224              		.cfi_startproc
 1225              		@ args = 0, pretend = 0, frame = 0
 1226              		@ frame_needed = 0, uses_anonymous_args = 0
 1227              		@ link register save eliminated.
 497:USB_DEVICE/Target/usbd_conf.c **** 
 1228              		.loc 1 497 3 view .LVU257
 497:USB_DEVICE/Target/usbd_conf.c **** 
 1229              		.loc 1 497 22 is_stmt 0 view .LVU258
 1230 0000 B023     		movs	r3, #176
 1231 0002 9B00     		lsls	r3, r3, #2
 1232 0004 C358     		ldr	r3, [r0, r3]
 1233              	.LVL116:
 499:USB_DEVICE/Target/usbd_conf.c ****   {
 1234              		.loc 1 499 3 is_stmt 1 view .LVU259
 499:USB_DEVICE/Target/usbd_conf.c ****   {
 1235              		.loc 1 499 23 is_stmt 0 view .LVU260
 1236 0006 4AB2     		sxtb	r2, r1
 499:USB_DEVICE/Target/usbd_conf.c ****   {
 1237              		.loc 1 499 5 view .LVU261
 1238 0008 002A     		cmp	r2, #0
 1239 000a 09DB     		blt	.L53
 505:USB_DEVICE/Target/usbd_conf.c ****   }
 1240              		.loc 1 505 5 is_stmt 1 view .LVU262
 505:USB_DEVICE/Target/usbd_conf.c ****   }
 1241              		.loc 1 505 33 is_stmt 0 view .LVU263
 1242 000c 7F22     		movs	r2, #127
 1243 000e 0A40     		ands	r2, r1
 505:USB_DEVICE/Target/usbd_conf.c ****   }
 1244              		.loc 1 505 40 view .LVU264
 1245 0010 9100     		lsls	r1, r2, #2
 1246              	.LVL117:
 505:USB_DEVICE/Target/usbd_conf.c ****   }
 1247              		.loc 1 505 40 view .LVU265
 1248 0012 8918     		adds	r1, r1, r2
 1249 0014 C900     		lsls	r1, r1, #3
ARM GAS  /tmp/ccCXsivu.s 			page 38


 1250 0016 5B18     		adds	r3, r3, r1
 1251              	.LVL118:
 505:USB_DEVICE/Target/usbd_conf.c ****   }
 1252              		.loc 1 505 40 view .LVU266
 1253 0018 6B33     		adds	r3, r3, #107
 1254 001a FF33     		adds	r3, r3, #255
 1255 001c 1878     		ldrb	r0, [r3]
 1256              	.LVL119:
 1257              	.L52:
 507:USB_DEVICE/Target/usbd_conf.c **** 
 1258              		.loc 1 507 1 view .LVU267
 1259              		@ sp needed
 1260 001e 7047     		bx	lr
 1261              	.LVL120:
 1262              	.L53:
 501:USB_DEVICE/Target/usbd_conf.c ****   }
 1263              		.loc 1 501 5 is_stmt 1 view .LVU268
 501:USB_DEVICE/Target/usbd_conf.c ****   }
 1264              		.loc 1 501 32 is_stmt 0 view .LVU269
 1265 0020 7F22     		movs	r2, #127
 1266 0022 0A40     		ands	r2, r1
 501:USB_DEVICE/Target/usbd_conf.c ****   }
 1267              		.loc 1 501 39 view .LVU270
 1268 0024 0132     		adds	r2, r2, #1
 1269 0026 9100     		lsls	r1, r2, #2
 1270              	.LVL121:
 501:USB_DEVICE/Target/usbd_conf.c ****   }
 1271              		.loc 1 501 39 view .LVU271
 1272 0028 8918     		adds	r1, r1, r2
 1273 002a C900     		lsls	r1, r1, #3
 1274 002c 5B18     		adds	r3, r3, r1
 1275              	.LVL122:
 501:USB_DEVICE/Target/usbd_conf.c ****   }
 1276              		.loc 1 501 39 view .LVU272
 1277 002e 9878     		ldrb	r0, [r3, #2]
 1278              	.LVL123:
 501:USB_DEVICE/Target/usbd_conf.c ****   }
 1279              		.loc 1 501 39 view .LVU273
 1280 0030 F5E7     		b	.L52
 1281              		.cfi_endproc
 1282              	.LFE65:
 1284              		.section	.text.USBD_LL_SetUSBAddress,"ax",%progbits
 1285              		.align	1
 1286              		.global	USBD_LL_SetUSBAddress
 1287              		.syntax unified
 1288              		.code	16
 1289              		.thumb_func
 1290              		.fpu softvfp
 1292              	USBD_LL_SetUSBAddress:
 1293              	.LVL124:
 1294              	.LFB66:
 516:USB_DEVICE/Target/usbd_conf.c ****   HAL_StatusTypeDef hal_status = HAL_OK;
 1295              		.loc 1 516 1 is_stmt 1 view -0
 1296              		.cfi_startproc
 1297              		@ args = 0, pretend = 0, frame = 0
 1298              		@ frame_needed = 0, uses_anonymous_args = 0
 516:USB_DEVICE/Target/usbd_conf.c ****   HAL_StatusTypeDef hal_status = HAL_OK;
ARM GAS  /tmp/ccCXsivu.s 			page 39


 1299              		.loc 1 516 1 is_stmt 0 view .LVU275
 1300 0000 10B5     		push	{r4, lr}
 1301              	.LCFI24:
 1302              		.cfi_def_cfa_offset 8
 1303              		.cfi_offset 4, -8
 1304              		.cfi_offset 14, -4
 517:USB_DEVICE/Target/usbd_conf.c ****   USBD_StatusTypeDef usb_status = USBD_OK;
 1305              		.loc 1 517 3 is_stmt 1 view .LVU276
 1306              	.LVL125:
 518:USB_DEVICE/Target/usbd_conf.c **** 
 1307              		.loc 1 518 3 view .LVU277
 520:USB_DEVICE/Target/usbd_conf.c **** 
 1308              		.loc 1 520 3 view .LVU278
 520:USB_DEVICE/Target/usbd_conf.c **** 
 1309              		.loc 1 520 39 is_stmt 0 view .LVU279
 1310 0002 B023     		movs	r3, #176
 1311 0004 9B00     		lsls	r3, r3, #2
 1312 0006 C058     		ldr	r0, [r0, r3]
 1313              	.LVL126:
 520:USB_DEVICE/Target/usbd_conf.c **** 
 1314              		.loc 1 520 16 view .LVU280
 1315 0008 FFF7FEFF 		bl	HAL_PCD_SetAddress
 1316              	.LVL127:
 522:USB_DEVICE/Target/usbd_conf.c **** 
 1317              		.loc 1 522 3 is_stmt 1 view .LVU281
 522:USB_DEVICE/Target/usbd_conf.c **** 
 1318              		.loc 1 522 17 is_stmt 0 view .LVU282
 1319 000c FFF7FEFF 		bl	USBD_Get_USB_Status
 1320              	.LVL128:
 524:USB_DEVICE/Target/usbd_conf.c **** }
 1321              		.loc 1 524 3 is_stmt 1 view .LVU283
 525:USB_DEVICE/Target/usbd_conf.c **** 
 1322              		.loc 1 525 1 is_stmt 0 view .LVU284
 1323              		@ sp needed
 1324 0010 10BD     		pop	{r4, pc}
 1325              		.cfi_endproc
 1326              	.LFE66:
 1328              		.section	.text.USBD_LL_Transmit,"ax",%progbits
 1329              		.align	1
 1330              		.global	USBD_LL_Transmit
 1331              		.syntax unified
 1332              		.code	16
 1333              		.thumb_func
 1334              		.fpu softvfp
 1336              	USBD_LL_Transmit:
 1337              	.LVL129:
 1338              	.LFB67:
 536:USB_DEVICE/Target/usbd_conf.c ****   HAL_StatusTypeDef hal_status = HAL_OK;
 1339              		.loc 1 536 1 is_stmt 1 view -0
 1340              		.cfi_startproc
 1341              		@ args = 0, pretend = 0, frame = 0
 1342              		@ frame_needed = 0, uses_anonymous_args = 0
 536:USB_DEVICE/Target/usbd_conf.c ****   HAL_StatusTypeDef hal_status = HAL_OK;
 1343              		.loc 1 536 1 is_stmt 0 view .LVU286
 1344 0000 10B5     		push	{r4, lr}
 1345              	.LCFI25:
 1346              		.cfi_def_cfa_offset 8
ARM GAS  /tmp/ccCXsivu.s 			page 40


 1347              		.cfi_offset 4, -8
 1348              		.cfi_offset 14, -4
 537:USB_DEVICE/Target/usbd_conf.c ****   USBD_StatusTypeDef usb_status = USBD_OK;
 1349              		.loc 1 537 3 is_stmt 1 view .LVU287
 1350              	.LVL130:
 538:USB_DEVICE/Target/usbd_conf.c **** 
 1351              		.loc 1 538 3 view .LVU288
 540:USB_DEVICE/Target/usbd_conf.c **** 
 1352              		.loc 1 540 3 view .LVU289
 540:USB_DEVICE/Target/usbd_conf.c **** 
 1353              		.loc 1 540 40 is_stmt 0 view .LVU290
 1354 0002 B024     		movs	r4, #176
 1355 0004 A400     		lsls	r4, r4, #2
 1356 0006 0059     		ldr	r0, [r0, r4]
 1357              	.LVL131:
 540:USB_DEVICE/Target/usbd_conf.c **** 
 1358              		.loc 1 540 16 view .LVU291
 1359 0008 FFF7FEFF 		bl	HAL_PCD_EP_Transmit
 1360              	.LVL132:
 542:USB_DEVICE/Target/usbd_conf.c **** 
 1361              		.loc 1 542 3 is_stmt 1 view .LVU292
 542:USB_DEVICE/Target/usbd_conf.c **** 
 1362              		.loc 1 542 17 is_stmt 0 view .LVU293
 1363 000c FFF7FEFF 		bl	USBD_Get_USB_Status
 1364              	.LVL133:
 544:USB_DEVICE/Target/usbd_conf.c **** }
 1365              		.loc 1 544 3 is_stmt 1 view .LVU294
 545:USB_DEVICE/Target/usbd_conf.c **** 
 1366              		.loc 1 545 1 is_stmt 0 view .LVU295
 1367              		@ sp needed
 1368 0010 10BD     		pop	{r4, pc}
 1369              		.cfi_endproc
 1370              	.LFE67:
 1372              		.section	.text.USBD_LL_PrepareReceive,"ax",%progbits
 1373              		.align	1
 1374              		.global	USBD_LL_PrepareReceive
 1375              		.syntax unified
 1376              		.code	16
 1377              		.thumb_func
 1378              		.fpu softvfp
 1380              	USBD_LL_PrepareReceive:
 1381              	.LVL134:
 1382              	.LFB68:
 556:USB_DEVICE/Target/usbd_conf.c ****   HAL_StatusTypeDef hal_status = HAL_OK;
 1383              		.loc 1 556 1 is_stmt 1 view -0
 1384              		.cfi_startproc
 1385              		@ args = 0, pretend = 0, frame = 0
 1386              		@ frame_needed = 0, uses_anonymous_args = 0
 556:USB_DEVICE/Target/usbd_conf.c ****   HAL_StatusTypeDef hal_status = HAL_OK;
 1387              		.loc 1 556 1 is_stmt 0 view .LVU297
 1388 0000 10B5     		push	{r4, lr}
 1389              	.LCFI26:
 1390              		.cfi_def_cfa_offset 8
 1391              		.cfi_offset 4, -8
 1392              		.cfi_offset 14, -4
 557:USB_DEVICE/Target/usbd_conf.c ****   USBD_StatusTypeDef usb_status = USBD_OK;
 1393              		.loc 1 557 3 is_stmt 1 view .LVU298
ARM GAS  /tmp/ccCXsivu.s 			page 41


 1394              	.LVL135:
 558:USB_DEVICE/Target/usbd_conf.c **** 
 1395              		.loc 1 558 3 view .LVU299
 560:USB_DEVICE/Target/usbd_conf.c **** 
 1396              		.loc 1 560 3 view .LVU300
 560:USB_DEVICE/Target/usbd_conf.c **** 
 1397              		.loc 1 560 39 is_stmt 0 view .LVU301
 1398 0002 B024     		movs	r4, #176
 1399 0004 A400     		lsls	r4, r4, #2
 1400 0006 0059     		ldr	r0, [r0, r4]
 1401              	.LVL136:
 560:USB_DEVICE/Target/usbd_conf.c **** 
 1402              		.loc 1 560 16 view .LVU302
 1403 0008 FFF7FEFF 		bl	HAL_PCD_EP_Receive
 1404              	.LVL137:
 562:USB_DEVICE/Target/usbd_conf.c **** 
 1405              		.loc 1 562 3 is_stmt 1 view .LVU303
 562:USB_DEVICE/Target/usbd_conf.c **** 
 1406              		.loc 1 562 17 is_stmt 0 view .LVU304
 1407 000c FFF7FEFF 		bl	USBD_Get_USB_Status
 1408              	.LVL138:
 564:USB_DEVICE/Target/usbd_conf.c **** }
 1409              		.loc 1 564 3 is_stmt 1 view .LVU305
 565:USB_DEVICE/Target/usbd_conf.c **** 
 1410              		.loc 1 565 1 is_stmt 0 view .LVU306
 1411              		@ sp needed
 1412 0010 10BD     		pop	{r4, pc}
 1413              		.cfi_endproc
 1414              	.LFE68:
 1416              		.section	.text.USBD_LL_GetRxDataSize,"ax",%progbits
 1417              		.align	1
 1418              		.global	USBD_LL_GetRxDataSize
 1419              		.syntax unified
 1420              		.code	16
 1421              		.thumb_func
 1422              		.fpu softvfp
 1424              	USBD_LL_GetRxDataSize:
 1425              	.LVL139:
 1426              	.LFB69:
 574:USB_DEVICE/Target/usbd_conf.c ****   return HAL_PCD_EP_GetRxCount((PCD_HandleTypeDef*) pdev->pData, ep_addr);
 1427              		.loc 1 574 1 is_stmt 1 view -0
 1428              		.cfi_startproc
 1429              		@ args = 0, pretend = 0, frame = 0
 1430              		@ frame_needed = 0, uses_anonymous_args = 0
 574:USB_DEVICE/Target/usbd_conf.c ****   return HAL_PCD_EP_GetRxCount((PCD_HandleTypeDef*) pdev->pData, ep_addr);
 1431              		.loc 1 574 1 is_stmt 0 view .LVU308
 1432 0000 10B5     		push	{r4, lr}
 1433              	.LCFI27:
 1434              		.cfi_def_cfa_offset 8
 1435              		.cfi_offset 4, -8
 1436              		.cfi_offset 14, -4
 575:USB_DEVICE/Target/usbd_conf.c **** }
 1437              		.loc 1 575 3 is_stmt 1 view .LVU309
 575:USB_DEVICE/Target/usbd_conf.c **** }
 1438              		.loc 1 575 57 is_stmt 0 view .LVU310
 1439 0002 B023     		movs	r3, #176
 1440 0004 9B00     		lsls	r3, r3, #2
ARM GAS  /tmp/ccCXsivu.s 			page 42


 1441 0006 C058     		ldr	r0, [r0, r3]
 1442              	.LVL140:
 575:USB_DEVICE/Target/usbd_conf.c **** }
 1443              		.loc 1 575 10 view .LVU311
 1444 0008 FFF7FEFF 		bl	HAL_PCD_EP_GetRxCount
 1445              	.LVL141:
 576:USB_DEVICE/Target/usbd_conf.c **** 
 1446              		.loc 1 576 1 view .LVU312
 1447              		@ sp needed
 1448 000c 10BD     		pop	{r4, pc}
 1449              		.cfi_endproc
 1450              	.LFE69:
 1452              		.section	.text.USBD_LL_Delay,"ax",%progbits
 1453              		.align	1
 1454              		.global	USBD_LL_Delay
 1455              		.syntax unified
 1456              		.code	16
 1457              		.thumb_func
 1458              		.fpu softvfp
 1460              	USBD_LL_Delay:
 1461              	.LVL142:
 1462              	.LFB70:
 584:USB_DEVICE/Target/usbd_conf.c ****   HAL_Delay(Delay);
 1463              		.loc 1 584 1 is_stmt 1 view -0
 1464              		.cfi_startproc
 1465              		@ args = 0, pretend = 0, frame = 0
 1466              		@ frame_needed = 0, uses_anonymous_args = 0
 584:USB_DEVICE/Target/usbd_conf.c ****   HAL_Delay(Delay);
 1467              		.loc 1 584 1 is_stmt 0 view .LVU314
 1468 0000 10B5     		push	{r4, lr}
 1469              	.LCFI28:
 1470              		.cfi_def_cfa_offset 8
 1471              		.cfi_offset 4, -8
 1472              		.cfi_offset 14, -4
 585:USB_DEVICE/Target/usbd_conf.c **** }
 1473              		.loc 1 585 3 is_stmt 1 view .LVU315
 1474 0002 FFF7FEFF 		bl	HAL_Delay
 1475              	.LVL143:
 586:USB_DEVICE/Target/usbd_conf.c **** 
 1476              		.loc 1 586 1 is_stmt 0 view .LVU316
 1477              		@ sp needed
 1478 0006 10BD     		pop	{r4, pc}
 1479              		.cfi_endproc
 1480              	.LFE70:
 1482              		.section	.text.USBD_static_malloc,"ax",%progbits
 1483              		.align	1
 1484              		.global	USBD_static_malloc
 1485              		.syntax unified
 1486              		.code	16
 1487              		.thumb_func
 1488              		.fpu softvfp
 1490              	USBD_static_malloc:
 1491              	.LVL144:
 1492              	.LFB71:
 594:USB_DEVICE/Target/usbd_conf.c ****   static uint32_t mem[(sizeof(USBD_CDC_HandleTypeDef)/4)+1];/* On 32-bit boundary */
 1493              		.loc 1 594 1 is_stmt 1 view -0
 1494              		.cfi_startproc
ARM GAS  /tmp/ccCXsivu.s 			page 43


 1495              		@ args = 0, pretend = 0, frame = 0
 1496              		@ frame_needed = 0, uses_anonymous_args = 0
 1497              		@ link register save eliminated.
 595:USB_DEVICE/Target/usbd_conf.c ****   return mem;
 1498              		.loc 1 595 3 view .LVU318
 596:USB_DEVICE/Target/usbd_conf.c **** }
 1499              		.loc 1 596 3 view .LVU319
 597:USB_DEVICE/Target/usbd_conf.c **** 
 1500              		.loc 1 597 1 is_stmt 0 view .LVU320
 1501 0000 0048     		ldr	r0, .L60
 1502              	.LVL145:
 597:USB_DEVICE/Target/usbd_conf.c **** 
 1503              		.loc 1 597 1 view .LVU321
 1504              		@ sp needed
 1505 0002 7047     		bx	lr
 1506              	.L61:
 1507              		.align	2
 1508              	.L60:
 1509 0004 00000000 		.word	mem.8596
 1510              		.cfi_endproc
 1511              	.LFE71:
 1513              		.section	.text.USBD_static_free,"ax",%progbits
 1514              		.align	1
 1515              		.global	USBD_static_free
 1516              		.syntax unified
 1517              		.code	16
 1518              		.thumb_func
 1519              		.fpu softvfp
 1521              	USBD_static_free:
 1522              	.LVL146:
 1523              	.LFB72:
 605:USB_DEVICE/Target/usbd_conf.c **** 
 1524              		.loc 1 605 1 is_stmt 1 view -0
 1525              		.cfi_startproc
 1526              		@ args = 0, pretend = 0, frame = 0
 1527              		@ frame_needed = 0, uses_anonymous_args = 0
 1528              		@ link register save eliminated.
 607:USB_DEVICE/Target/usbd_conf.c **** 
 1529              		.loc 1 607 1 view .LVU323
 1530              		@ sp needed
 1531 0000 7047     		bx	lr
 1532              		.cfi_endproc
 1533              	.LFE72:
 1535              		.comm	hpcd_USB_FS,756,4
 1536              		.section	.bss.mem.8596,"aw",%nobits
 1537              		.align	2
 1540              	mem.8596:
 1541 0000 00000000 		.space	544
 1541      00000000 
 1541      00000000 
 1541      00000000 
 1541      00000000 
 1542              		.text
 1543              	.Letext0:
 1544              		.file 2 "/usr/lib/gcc/arm-none-eabi/9.2.1/include/stdint.h"
 1545              		.file 3 "Drivers/CMSIS/Include/core_cm0.h"
 1546              		.file 4 "Drivers/CMSIS/Device/ST/STM32F0xx/Include/system_stm32f0xx.h"
ARM GAS  /tmp/ccCXsivu.s 			page 44


 1547              		.file 5 "Drivers/CMSIS/Device/ST/STM32F0xx/Include/stm32f072xb.h"
 1548              		.file 6 "Drivers/CMSIS/Device/ST/STM32F0xx/Include/stm32f0xx.h"
 1549              		.file 7 "Drivers/STM32F0xx_HAL_Driver/Inc/stm32f0xx_hal_def.h"
 1550              		.file 8 "Drivers/STM32F0xx_HAL_Driver/Inc/stm32f0xx_ll_usb.h"
 1551              		.file 9 "Drivers/STM32F0xx_HAL_Driver/Inc/stm32f0xx_hal_pcd.h"
 1552              		.file 10 "Drivers/STM32F0xx_HAL_Driver/Inc/stm32f0xx_hal.h"
 1553              		.file 11 "/usr/lib/gcc/arm-none-eabi/9.2.1/include/stddef.h"
 1554              		.file 12 "/usr/include/newlib/sys/_types.h"
 1555              		.file 13 "/usr/include/newlib/sys/reent.h"
 1556              		.file 14 "/usr/include/newlib/sys/lock.h"
 1557              		.file 15 "/usr/include/newlib/stdlib.h"
 1558              		.file 16 "Middlewares/ST/STM32_USB_Device_Library/Core/Inc/usbd_def.h"
 1559              		.file 17 "Middlewares/ST/STM32_USB_Device_Library/Class/CDC/Inc/usbd_cdc.h"
 1560              		.file 18 "Drivers/STM32F0xx_HAL_Driver/Inc/stm32f0xx_hal_pcd_ex.h"
 1561              		.file 19 "Middlewares/ST/STM32_USB_Device_Library/Core/Inc/usbd_core.h"
 1562              		.file 20 "Drivers/STM32F0xx_HAL_Driver/Inc/stm32f0xx_hal_cortex.h"
ARM GAS  /tmp/ccCXsivu.s 			page 45

