ARM GAS  /tmp/ccOpGw6B.s 			page 1


   1              		.cpu cortex-m0
   2              		.eabi_attribute 20, 1
   3              		.eabi_attribute 21, 1
   4              		.eabi_attribute 23, 3
   5              		.eabi_attribute 24, 1
   6              		.eabi_attribute 25, 1
   7              		.eabi_attribute 26, 1
   8              		.eabi_attribute 30, 1
   9              		.eabi_attribute 34, 0
  10              		.eabi_attribute 18, 4
  11              		.file	"usbd_ctlreq.c"
  12              		.text
  13              	.Ltext0:
  14              		.cfi_sections	.debug_frame
  15              		.section	.text.USBD_GetLen,"ax",%progbits
  16              		.align	1
  17              		.arch armv6s-m
  18              		.syntax unified
  19              		.code	16
  20              		.thumb_func
  21              		.fpu softvfp
  23              	USBD_GetLen:
  24              	.LVL0:
  25              	.LFB56:
  26              		.file 1 "Middlewares/ST/STM32_USB_Device_Library/Core/Src/usbd_ctlreq.c"
   1:Middlewares/ST/STM32_USB_Device_Library/Core/Src/usbd_ctlreq.c **** /**
   2:Middlewares/ST/STM32_USB_Device_Library/Core/Src/usbd_ctlreq.c ****   ******************************************************************************
   3:Middlewares/ST/STM32_USB_Device_Library/Core/Src/usbd_ctlreq.c ****   * @file    usbd_req.c
   4:Middlewares/ST/STM32_USB_Device_Library/Core/Src/usbd_ctlreq.c ****   * @author  MCD Application Team
   5:Middlewares/ST/STM32_USB_Device_Library/Core/Src/usbd_ctlreq.c ****   * @brief   This file provides the standard USB requests following chapter 9.
   6:Middlewares/ST/STM32_USB_Device_Library/Core/Src/usbd_ctlreq.c ****   ******************************************************************************
   7:Middlewares/ST/STM32_USB_Device_Library/Core/Src/usbd_ctlreq.c ****   * @attention
   8:Middlewares/ST/STM32_USB_Device_Library/Core/Src/usbd_ctlreq.c ****   *
   9:Middlewares/ST/STM32_USB_Device_Library/Core/Src/usbd_ctlreq.c ****   * <h2><center>&copy; Copyright (c) 2015 STMicroelectronics.
  10:Middlewares/ST/STM32_USB_Device_Library/Core/Src/usbd_ctlreq.c ****   * All rights reserved.</center></h2>
  11:Middlewares/ST/STM32_USB_Device_Library/Core/Src/usbd_ctlreq.c ****   *
  12:Middlewares/ST/STM32_USB_Device_Library/Core/Src/usbd_ctlreq.c ****   * This software component is licensed by ST under Ultimate Liberty license
  13:Middlewares/ST/STM32_USB_Device_Library/Core/Src/usbd_ctlreq.c ****   * SLA0044, the "License"; You may not use this file except in compliance with
  14:Middlewares/ST/STM32_USB_Device_Library/Core/Src/usbd_ctlreq.c ****   * the License. You may obtain a copy of the License at:
  15:Middlewares/ST/STM32_USB_Device_Library/Core/Src/usbd_ctlreq.c ****   *                      www.st.com/SLA0044
  16:Middlewares/ST/STM32_USB_Device_Library/Core/Src/usbd_ctlreq.c ****   *
  17:Middlewares/ST/STM32_USB_Device_Library/Core/Src/usbd_ctlreq.c ****   ******************************************************************************
  18:Middlewares/ST/STM32_USB_Device_Library/Core/Src/usbd_ctlreq.c ****   */
  19:Middlewares/ST/STM32_USB_Device_Library/Core/Src/usbd_ctlreq.c **** 
  20:Middlewares/ST/STM32_USB_Device_Library/Core/Src/usbd_ctlreq.c **** /* Includes ------------------------------------------------------------------*/
  21:Middlewares/ST/STM32_USB_Device_Library/Core/Src/usbd_ctlreq.c **** #include "usbd_ctlreq.h"
  22:Middlewares/ST/STM32_USB_Device_Library/Core/Src/usbd_ctlreq.c **** #include "usbd_ioreq.h"
  23:Middlewares/ST/STM32_USB_Device_Library/Core/Src/usbd_ctlreq.c **** 
  24:Middlewares/ST/STM32_USB_Device_Library/Core/Src/usbd_ctlreq.c **** 
  25:Middlewares/ST/STM32_USB_Device_Library/Core/Src/usbd_ctlreq.c **** /** @addtogroup STM32_USBD_STATE_DEVICE_LIBRARY
  26:Middlewares/ST/STM32_USB_Device_Library/Core/Src/usbd_ctlreq.c ****   * @{
  27:Middlewares/ST/STM32_USB_Device_Library/Core/Src/usbd_ctlreq.c ****   */
  28:Middlewares/ST/STM32_USB_Device_Library/Core/Src/usbd_ctlreq.c **** 
  29:Middlewares/ST/STM32_USB_Device_Library/Core/Src/usbd_ctlreq.c **** 
  30:Middlewares/ST/STM32_USB_Device_Library/Core/Src/usbd_ctlreq.c **** /** @defgroup USBD_REQ
  31:Middlewares/ST/STM32_USB_Device_Library/Core/Src/usbd_ctlreq.c ****   * @brief USB standard requests module
  32:Middlewares/ST/STM32_USB_Device_Library/Core/Src/usbd_ctlreq.c ****   * @{
ARM GAS  /tmp/ccOpGw6B.s 			page 2


  33:Middlewares/ST/STM32_USB_Device_Library/Core/Src/usbd_ctlreq.c ****   */
  34:Middlewares/ST/STM32_USB_Device_Library/Core/Src/usbd_ctlreq.c **** 
  35:Middlewares/ST/STM32_USB_Device_Library/Core/Src/usbd_ctlreq.c **** /** @defgroup USBD_REQ_Private_TypesDefinitions
  36:Middlewares/ST/STM32_USB_Device_Library/Core/Src/usbd_ctlreq.c ****   * @{
  37:Middlewares/ST/STM32_USB_Device_Library/Core/Src/usbd_ctlreq.c ****   */
  38:Middlewares/ST/STM32_USB_Device_Library/Core/Src/usbd_ctlreq.c **** 
  39:Middlewares/ST/STM32_USB_Device_Library/Core/Src/usbd_ctlreq.c **** /**
  40:Middlewares/ST/STM32_USB_Device_Library/Core/Src/usbd_ctlreq.c ****   * @}
  41:Middlewares/ST/STM32_USB_Device_Library/Core/Src/usbd_ctlreq.c ****   */
  42:Middlewares/ST/STM32_USB_Device_Library/Core/Src/usbd_ctlreq.c **** 
  43:Middlewares/ST/STM32_USB_Device_Library/Core/Src/usbd_ctlreq.c **** 
  44:Middlewares/ST/STM32_USB_Device_Library/Core/Src/usbd_ctlreq.c **** /** @defgroup USBD_REQ_Private_Defines
  45:Middlewares/ST/STM32_USB_Device_Library/Core/Src/usbd_ctlreq.c ****   * @{
  46:Middlewares/ST/STM32_USB_Device_Library/Core/Src/usbd_ctlreq.c ****   */
  47:Middlewares/ST/STM32_USB_Device_Library/Core/Src/usbd_ctlreq.c **** 
  48:Middlewares/ST/STM32_USB_Device_Library/Core/Src/usbd_ctlreq.c **** /**
  49:Middlewares/ST/STM32_USB_Device_Library/Core/Src/usbd_ctlreq.c ****   * @}
  50:Middlewares/ST/STM32_USB_Device_Library/Core/Src/usbd_ctlreq.c ****   */
  51:Middlewares/ST/STM32_USB_Device_Library/Core/Src/usbd_ctlreq.c **** 
  52:Middlewares/ST/STM32_USB_Device_Library/Core/Src/usbd_ctlreq.c **** 
  53:Middlewares/ST/STM32_USB_Device_Library/Core/Src/usbd_ctlreq.c **** /** @defgroup USBD_REQ_Private_Macros
  54:Middlewares/ST/STM32_USB_Device_Library/Core/Src/usbd_ctlreq.c ****   * @{
  55:Middlewares/ST/STM32_USB_Device_Library/Core/Src/usbd_ctlreq.c ****   */
  56:Middlewares/ST/STM32_USB_Device_Library/Core/Src/usbd_ctlreq.c **** 
  57:Middlewares/ST/STM32_USB_Device_Library/Core/Src/usbd_ctlreq.c **** /**
  58:Middlewares/ST/STM32_USB_Device_Library/Core/Src/usbd_ctlreq.c ****   * @}
  59:Middlewares/ST/STM32_USB_Device_Library/Core/Src/usbd_ctlreq.c ****   */
  60:Middlewares/ST/STM32_USB_Device_Library/Core/Src/usbd_ctlreq.c **** 
  61:Middlewares/ST/STM32_USB_Device_Library/Core/Src/usbd_ctlreq.c **** 
  62:Middlewares/ST/STM32_USB_Device_Library/Core/Src/usbd_ctlreq.c **** /** @defgroup USBD_REQ_Private_Variables
  63:Middlewares/ST/STM32_USB_Device_Library/Core/Src/usbd_ctlreq.c ****   * @{
  64:Middlewares/ST/STM32_USB_Device_Library/Core/Src/usbd_ctlreq.c ****   */
  65:Middlewares/ST/STM32_USB_Device_Library/Core/Src/usbd_ctlreq.c **** 
  66:Middlewares/ST/STM32_USB_Device_Library/Core/Src/usbd_ctlreq.c **** /**
  67:Middlewares/ST/STM32_USB_Device_Library/Core/Src/usbd_ctlreq.c ****   * @}
  68:Middlewares/ST/STM32_USB_Device_Library/Core/Src/usbd_ctlreq.c ****   */
  69:Middlewares/ST/STM32_USB_Device_Library/Core/Src/usbd_ctlreq.c **** 
  70:Middlewares/ST/STM32_USB_Device_Library/Core/Src/usbd_ctlreq.c **** 
  71:Middlewares/ST/STM32_USB_Device_Library/Core/Src/usbd_ctlreq.c **** /** @defgroup USBD_REQ_Private_FunctionPrototypes
  72:Middlewares/ST/STM32_USB_Device_Library/Core/Src/usbd_ctlreq.c ****   * @{
  73:Middlewares/ST/STM32_USB_Device_Library/Core/Src/usbd_ctlreq.c ****   */
  74:Middlewares/ST/STM32_USB_Device_Library/Core/Src/usbd_ctlreq.c **** static void USBD_GetDescriptor(USBD_HandleTypeDef *pdev,
  75:Middlewares/ST/STM32_USB_Device_Library/Core/Src/usbd_ctlreq.c ****                                USBD_SetupReqTypedef *req);
  76:Middlewares/ST/STM32_USB_Device_Library/Core/Src/usbd_ctlreq.c **** 
  77:Middlewares/ST/STM32_USB_Device_Library/Core/Src/usbd_ctlreq.c **** static void USBD_SetAddress(USBD_HandleTypeDef *pdev,
  78:Middlewares/ST/STM32_USB_Device_Library/Core/Src/usbd_ctlreq.c ****                             USBD_SetupReqTypedef *req);
  79:Middlewares/ST/STM32_USB_Device_Library/Core/Src/usbd_ctlreq.c **** 
  80:Middlewares/ST/STM32_USB_Device_Library/Core/Src/usbd_ctlreq.c **** static void USBD_SetConfig(USBD_HandleTypeDef *pdev,
  81:Middlewares/ST/STM32_USB_Device_Library/Core/Src/usbd_ctlreq.c ****                            USBD_SetupReqTypedef *req);
  82:Middlewares/ST/STM32_USB_Device_Library/Core/Src/usbd_ctlreq.c **** 
  83:Middlewares/ST/STM32_USB_Device_Library/Core/Src/usbd_ctlreq.c **** static void USBD_GetConfig(USBD_HandleTypeDef *pdev,
  84:Middlewares/ST/STM32_USB_Device_Library/Core/Src/usbd_ctlreq.c ****                            USBD_SetupReqTypedef *req);
  85:Middlewares/ST/STM32_USB_Device_Library/Core/Src/usbd_ctlreq.c **** 
  86:Middlewares/ST/STM32_USB_Device_Library/Core/Src/usbd_ctlreq.c **** static void USBD_GetStatus(USBD_HandleTypeDef *pdev,
  87:Middlewares/ST/STM32_USB_Device_Library/Core/Src/usbd_ctlreq.c ****                            USBD_SetupReqTypedef *req);
  88:Middlewares/ST/STM32_USB_Device_Library/Core/Src/usbd_ctlreq.c **** 
  89:Middlewares/ST/STM32_USB_Device_Library/Core/Src/usbd_ctlreq.c **** static void USBD_SetFeature(USBD_HandleTypeDef *pdev,
ARM GAS  /tmp/ccOpGw6B.s 			page 3


  90:Middlewares/ST/STM32_USB_Device_Library/Core/Src/usbd_ctlreq.c ****                             USBD_SetupReqTypedef *req);
  91:Middlewares/ST/STM32_USB_Device_Library/Core/Src/usbd_ctlreq.c **** 
  92:Middlewares/ST/STM32_USB_Device_Library/Core/Src/usbd_ctlreq.c **** static void USBD_ClrFeature(USBD_HandleTypeDef *pdev,
  93:Middlewares/ST/STM32_USB_Device_Library/Core/Src/usbd_ctlreq.c ****                             USBD_SetupReqTypedef *req);
  94:Middlewares/ST/STM32_USB_Device_Library/Core/Src/usbd_ctlreq.c **** 
  95:Middlewares/ST/STM32_USB_Device_Library/Core/Src/usbd_ctlreq.c **** static uint8_t USBD_GetLen(uint8_t *buf);
  96:Middlewares/ST/STM32_USB_Device_Library/Core/Src/usbd_ctlreq.c **** 
  97:Middlewares/ST/STM32_USB_Device_Library/Core/Src/usbd_ctlreq.c **** /**
  98:Middlewares/ST/STM32_USB_Device_Library/Core/Src/usbd_ctlreq.c ****   * @}
  99:Middlewares/ST/STM32_USB_Device_Library/Core/Src/usbd_ctlreq.c ****   */
 100:Middlewares/ST/STM32_USB_Device_Library/Core/Src/usbd_ctlreq.c **** 
 101:Middlewares/ST/STM32_USB_Device_Library/Core/Src/usbd_ctlreq.c **** 
 102:Middlewares/ST/STM32_USB_Device_Library/Core/Src/usbd_ctlreq.c **** /** @defgroup USBD_REQ_Private_Functions
 103:Middlewares/ST/STM32_USB_Device_Library/Core/Src/usbd_ctlreq.c ****   * @{
 104:Middlewares/ST/STM32_USB_Device_Library/Core/Src/usbd_ctlreq.c ****   */
 105:Middlewares/ST/STM32_USB_Device_Library/Core/Src/usbd_ctlreq.c **** 
 106:Middlewares/ST/STM32_USB_Device_Library/Core/Src/usbd_ctlreq.c **** 
 107:Middlewares/ST/STM32_USB_Device_Library/Core/Src/usbd_ctlreq.c **** /**
 108:Middlewares/ST/STM32_USB_Device_Library/Core/Src/usbd_ctlreq.c **** * @brief  USBD_StdDevReq
 109:Middlewares/ST/STM32_USB_Device_Library/Core/Src/usbd_ctlreq.c **** *         Handle standard usb device requests
 110:Middlewares/ST/STM32_USB_Device_Library/Core/Src/usbd_ctlreq.c **** * @param  pdev: device instance
 111:Middlewares/ST/STM32_USB_Device_Library/Core/Src/usbd_ctlreq.c **** * @param  req: usb request
 112:Middlewares/ST/STM32_USB_Device_Library/Core/Src/usbd_ctlreq.c **** * @retval status
 113:Middlewares/ST/STM32_USB_Device_Library/Core/Src/usbd_ctlreq.c **** */
 114:Middlewares/ST/STM32_USB_Device_Library/Core/Src/usbd_ctlreq.c **** USBD_StatusTypeDef  USBD_StdDevReq(USBD_HandleTypeDef *pdev,
 115:Middlewares/ST/STM32_USB_Device_Library/Core/Src/usbd_ctlreq.c ****                                    USBD_SetupReqTypedef *req)
 116:Middlewares/ST/STM32_USB_Device_Library/Core/Src/usbd_ctlreq.c **** {
 117:Middlewares/ST/STM32_USB_Device_Library/Core/Src/usbd_ctlreq.c ****   USBD_StatusTypeDef ret = USBD_OK;
 118:Middlewares/ST/STM32_USB_Device_Library/Core/Src/usbd_ctlreq.c **** 
 119:Middlewares/ST/STM32_USB_Device_Library/Core/Src/usbd_ctlreq.c ****   switch (req->bmRequest & USB_REQ_TYPE_MASK)
 120:Middlewares/ST/STM32_USB_Device_Library/Core/Src/usbd_ctlreq.c ****   {
 121:Middlewares/ST/STM32_USB_Device_Library/Core/Src/usbd_ctlreq.c ****     case USB_REQ_TYPE_CLASS:
 122:Middlewares/ST/STM32_USB_Device_Library/Core/Src/usbd_ctlreq.c ****     case USB_REQ_TYPE_VENDOR:
 123:Middlewares/ST/STM32_USB_Device_Library/Core/Src/usbd_ctlreq.c ****       pdev->pClass->Setup(pdev, req);
 124:Middlewares/ST/STM32_USB_Device_Library/Core/Src/usbd_ctlreq.c ****       break;
 125:Middlewares/ST/STM32_USB_Device_Library/Core/Src/usbd_ctlreq.c **** 
 126:Middlewares/ST/STM32_USB_Device_Library/Core/Src/usbd_ctlreq.c ****     case USB_REQ_TYPE_STANDARD:
 127:Middlewares/ST/STM32_USB_Device_Library/Core/Src/usbd_ctlreq.c ****       switch (req->bRequest)
 128:Middlewares/ST/STM32_USB_Device_Library/Core/Src/usbd_ctlreq.c ****       {
 129:Middlewares/ST/STM32_USB_Device_Library/Core/Src/usbd_ctlreq.c ****         case USB_REQ_GET_DESCRIPTOR:
 130:Middlewares/ST/STM32_USB_Device_Library/Core/Src/usbd_ctlreq.c ****           USBD_GetDescriptor(pdev, req);
 131:Middlewares/ST/STM32_USB_Device_Library/Core/Src/usbd_ctlreq.c ****           break;
 132:Middlewares/ST/STM32_USB_Device_Library/Core/Src/usbd_ctlreq.c **** 
 133:Middlewares/ST/STM32_USB_Device_Library/Core/Src/usbd_ctlreq.c ****         case USB_REQ_SET_ADDRESS:
 134:Middlewares/ST/STM32_USB_Device_Library/Core/Src/usbd_ctlreq.c ****           USBD_SetAddress(pdev, req);
 135:Middlewares/ST/STM32_USB_Device_Library/Core/Src/usbd_ctlreq.c ****           break;
 136:Middlewares/ST/STM32_USB_Device_Library/Core/Src/usbd_ctlreq.c **** 
 137:Middlewares/ST/STM32_USB_Device_Library/Core/Src/usbd_ctlreq.c ****         case USB_REQ_SET_CONFIGURATION:
 138:Middlewares/ST/STM32_USB_Device_Library/Core/Src/usbd_ctlreq.c ****           USBD_SetConfig(pdev, req);
 139:Middlewares/ST/STM32_USB_Device_Library/Core/Src/usbd_ctlreq.c ****           break;
 140:Middlewares/ST/STM32_USB_Device_Library/Core/Src/usbd_ctlreq.c **** 
 141:Middlewares/ST/STM32_USB_Device_Library/Core/Src/usbd_ctlreq.c ****         case USB_REQ_GET_CONFIGURATION:
 142:Middlewares/ST/STM32_USB_Device_Library/Core/Src/usbd_ctlreq.c ****           USBD_GetConfig(pdev, req);
 143:Middlewares/ST/STM32_USB_Device_Library/Core/Src/usbd_ctlreq.c ****           break;
 144:Middlewares/ST/STM32_USB_Device_Library/Core/Src/usbd_ctlreq.c **** 
 145:Middlewares/ST/STM32_USB_Device_Library/Core/Src/usbd_ctlreq.c ****         case USB_REQ_GET_STATUS:
 146:Middlewares/ST/STM32_USB_Device_Library/Core/Src/usbd_ctlreq.c ****           USBD_GetStatus(pdev, req);
ARM GAS  /tmp/ccOpGw6B.s 			page 4


 147:Middlewares/ST/STM32_USB_Device_Library/Core/Src/usbd_ctlreq.c ****           break;
 148:Middlewares/ST/STM32_USB_Device_Library/Core/Src/usbd_ctlreq.c **** 
 149:Middlewares/ST/STM32_USB_Device_Library/Core/Src/usbd_ctlreq.c ****         case USB_REQ_SET_FEATURE:
 150:Middlewares/ST/STM32_USB_Device_Library/Core/Src/usbd_ctlreq.c ****           USBD_SetFeature(pdev, req);
 151:Middlewares/ST/STM32_USB_Device_Library/Core/Src/usbd_ctlreq.c ****           break;
 152:Middlewares/ST/STM32_USB_Device_Library/Core/Src/usbd_ctlreq.c **** 
 153:Middlewares/ST/STM32_USB_Device_Library/Core/Src/usbd_ctlreq.c ****         case USB_REQ_CLEAR_FEATURE:
 154:Middlewares/ST/STM32_USB_Device_Library/Core/Src/usbd_ctlreq.c ****           USBD_ClrFeature(pdev, req);
 155:Middlewares/ST/STM32_USB_Device_Library/Core/Src/usbd_ctlreq.c ****           break;
 156:Middlewares/ST/STM32_USB_Device_Library/Core/Src/usbd_ctlreq.c **** 
 157:Middlewares/ST/STM32_USB_Device_Library/Core/Src/usbd_ctlreq.c ****         default:
 158:Middlewares/ST/STM32_USB_Device_Library/Core/Src/usbd_ctlreq.c ****           USBD_CtlError(pdev, req);
 159:Middlewares/ST/STM32_USB_Device_Library/Core/Src/usbd_ctlreq.c ****           break;
 160:Middlewares/ST/STM32_USB_Device_Library/Core/Src/usbd_ctlreq.c ****       }
 161:Middlewares/ST/STM32_USB_Device_Library/Core/Src/usbd_ctlreq.c ****       break;
 162:Middlewares/ST/STM32_USB_Device_Library/Core/Src/usbd_ctlreq.c **** 
 163:Middlewares/ST/STM32_USB_Device_Library/Core/Src/usbd_ctlreq.c ****     default:
 164:Middlewares/ST/STM32_USB_Device_Library/Core/Src/usbd_ctlreq.c ****       USBD_CtlError(pdev, req);
 165:Middlewares/ST/STM32_USB_Device_Library/Core/Src/usbd_ctlreq.c ****       break;
 166:Middlewares/ST/STM32_USB_Device_Library/Core/Src/usbd_ctlreq.c ****   }
 167:Middlewares/ST/STM32_USB_Device_Library/Core/Src/usbd_ctlreq.c **** 
 168:Middlewares/ST/STM32_USB_Device_Library/Core/Src/usbd_ctlreq.c ****   return ret;
 169:Middlewares/ST/STM32_USB_Device_Library/Core/Src/usbd_ctlreq.c **** }
 170:Middlewares/ST/STM32_USB_Device_Library/Core/Src/usbd_ctlreq.c **** 
 171:Middlewares/ST/STM32_USB_Device_Library/Core/Src/usbd_ctlreq.c **** /**
 172:Middlewares/ST/STM32_USB_Device_Library/Core/Src/usbd_ctlreq.c **** * @brief  USBD_StdItfReq
 173:Middlewares/ST/STM32_USB_Device_Library/Core/Src/usbd_ctlreq.c **** *         Handle standard usb interface requests
 174:Middlewares/ST/STM32_USB_Device_Library/Core/Src/usbd_ctlreq.c **** * @param  pdev: device instance
 175:Middlewares/ST/STM32_USB_Device_Library/Core/Src/usbd_ctlreq.c **** * @param  req: usb request
 176:Middlewares/ST/STM32_USB_Device_Library/Core/Src/usbd_ctlreq.c **** * @retval status
 177:Middlewares/ST/STM32_USB_Device_Library/Core/Src/usbd_ctlreq.c **** */
 178:Middlewares/ST/STM32_USB_Device_Library/Core/Src/usbd_ctlreq.c **** USBD_StatusTypeDef  USBD_StdItfReq(USBD_HandleTypeDef *pdev,
 179:Middlewares/ST/STM32_USB_Device_Library/Core/Src/usbd_ctlreq.c ****                                    USBD_SetupReqTypedef  *req)
 180:Middlewares/ST/STM32_USB_Device_Library/Core/Src/usbd_ctlreq.c **** {
 181:Middlewares/ST/STM32_USB_Device_Library/Core/Src/usbd_ctlreq.c ****   USBD_StatusTypeDef ret = USBD_OK;
 182:Middlewares/ST/STM32_USB_Device_Library/Core/Src/usbd_ctlreq.c **** 
 183:Middlewares/ST/STM32_USB_Device_Library/Core/Src/usbd_ctlreq.c ****   switch (req->bmRequest & USB_REQ_TYPE_MASK)
 184:Middlewares/ST/STM32_USB_Device_Library/Core/Src/usbd_ctlreq.c ****   {
 185:Middlewares/ST/STM32_USB_Device_Library/Core/Src/usbd_ctlreq.c ****     case USB_REQ_TYPE_CLASS:
 186:Middlewares/ST/STM32_USB_Device_Library/Core/Src/usbd_ctlreq.c ****     case USB_REQ_TYPE_VENDOR:
 187:Middlewares/ST/STM32_USB_Device_Library/Core/Src/usbd_ctlreq.c ****     case USB_REQ_TYPE_STANDARD:
 188:Middlewares/ST/STM32_USB_Device_Library/Core/Src/usbd_ctlreq.c ****       switch (pdev->dev_state)
 189:Middlewares/ST/STM32_USB_Device_Library/Core/Src/usbd_ctlreq.c ****       {
 190:Middlewares/ST/STM32_USB_Device_Library/Core/Src/usbd_ctlreq.c ****         case USBD_STATE_DEFAULT:
 191:Middlewares/ST/STM32_USB_Device_Library/Core/Src/usbd_ctlreq.c ****         case USBD_STATE_ADDRESSED:
 192:Middlewares/ST/STM32_USB_Device_Library/Core/Src/usbd_ctlreq.c ****         case USBD_STATE_CONFIGURED:
 193:Middlewares/ST/STM32_USB_Device_Library/Core/Src/usbd_ctlreq.c **** 
 194:Middlewares/ST/STM32_USB_Device_Library/Core/Src/usbd_ctlreq.c ****           if (LOBYTE(req->wIndex) <= USBD_MAX_NUM_INTERFACES)
 195:Middlewares/ST/STM32_USB_Device_Library/Core/Src/usbd_ctlreq.c ****           {
 196:Middlewares/ST/STM32_USB_Device_Library/Core/Src/usbd_ctlreq.c ****             ret = (USBD_StatusTypeDef)pdev->pClass->Setup(pdev, req);
 197:Middlewares/ST/STM32_USB_Device_Library/Core/Src/usbd_ctlreq.c **** 
 198:Middlewares/ST/STM32_USB_Device_Library/Core/Src/usbd_ctlreq.c ****             if ((req->wLength == 0U) && (ret == USBD_OK))
 199:Middlewares/ST/STM32_USB_Device_Library/Core/Src/usbd_ctlreq.c ****             {
 200:Middlewares/ST/STM32_USB_Device_Library/Core/Src/usbd_ctlreq.c ****               USBD_CtlSendStatus(pdev);
 201:Middlewares/ST/STM32_USB_Device_Library/Core/Src/usbd_ctlreq.c ****             }
 202:Middlewares/ST/STM32_USB_Device_Library/Core/Src/usbd_ctlreq.c ****           }
 203:Middlewares/ST/STM32_USB_Device_Library/Core/Src/usbd_ctlreq.c ****           else
ARM GAS  /tmp/ccOpGw6B.s 			page 5


 204:Middlewares/ST/STM32_USB_Device_Library/Core/Src/usbd_ctlreq.c ****           {
 205:Middlewares/ST/STM32_USB_Device_Library/Core/Src/usbd_ctlreq.c ****             USBD_CtlError(pdev, req);
 206:Middlewares/ST/STM32_USB_Device_Library/Core/Src/usbd_ctlreq.c ****           }
 207:Middlewares/ST/STM32_USB_Device_Library/Core/Src/usbd_ctlreq.c ****           break;
 208:Middlewares/ST/STM32_USB_Device_Library/Core/Src/usbd_ctlreq.c **** 
 209:Middlewares/ST/STM32_USB_Device_Library/Core/Src/usbd_ctlreq.c ****         default:
 210:Middlewares/ST/STM32_USB_Device_Library/Core/Src/usbd_ctlreq.c ****           USBD_CtlError(pdev, req);
 211:Middlewares/ST/STM32_USB_Device_Library/Core/Src/usbd_ctlreq.c ****           break;
 212:Middlewares/ST/STM32_USB_Device_Library/Core/Src/usbd_ctlreq.c ****       }
 213:Middlewares/ST/STM32_USB_Device_Library/Core/Src/usbd_ctlreq.c ****       break;
 214:Middlewares/ST/STM32_USB_Device_Library/Core/Src/usbd_ctlreq.c **** 
 215:Middlewares/ST/STM32_USB_Device_Library/Core/Src/usbd_ctlreq.c ****     default:
 216:Middlewares/ST/STM32_USB_Device_Library/Core/Src/usbd_ctlreq.c ****       USBD_CtlError(pdev, req);
 217:Middlewares/ST/STM32_USB_Device_Library/Core/Src/usbd_ctlreq.c ****       break;
 218:Middlewares/ST/STM32_USB_Device_Library/Core/Src/usbd_ctlreq.c ****   }
 219:Middlewares/ST/STM32_USB_Device_Library/Core/Src/usbd_ctlreq.c **** 
 220:Middlewares/ST/STM32_USB_Device_Library/Core/Src/usbd_ctlreq.c ****   return USBD_OK;
 221:Middlewares/ST/STM32_USB_Device_Library/Core/Src/usbd_ctlreq.c **** }
 222:Middlewares/ST/STM32_USB_Device_Library/Core/Src/usbd_ctlreq.c **** 
 223:Middlewares/ST/STM32_USB_Device_Library/Core/Src/usbd_ctlreq.c **** /**
 224:Middlewares/ST/STM32_USB_Device_Library/Core/Src/usbd_ctlreq.c **** * @brief  USBD_StdEPReq
 225:Middlewares/ST/STM32_USB_Device_Library/Core/Src/usbd_ctlreq.c **** *         Handle standard usb endpoint requests
 226:Middlewares/ST/STM32_USB_Device_Library/Core/Src/usbd_ctlreq.c **** * @param  pdev: device instance
 227:Middlewares/ST/STM32_USB_Device_Library/Core/Src/usbd_ctlreq.c **** * @param  req: usb request
 228:Middlewares/ST/STM32_USB_Device_Library/Core/Src/usbd_ctlreq.c **** * @retval status
 229:Middlewares/ST/STM32_USB_Device_Library/Core/Src/usbd_ctlreq.c **** */
 230:Middlewares/ST/STM32_USB_Device_Library/Core/Src/usbd_ctlreq.c **** USBD_StatusTypeDef  USBD_StdEPReq(USBD_HandleTypeDef *pdev,
 231:Middlewares/ST/STM32_USB_Device_Library/Core/Src/usbd_ctlreq.c ****                                   USBD_SetupReqTypedef  *req)
 232:Middlewares/ST/STM32_USB_Device_Library/Core/Src/usbd_ctlreq.c **** {
 233:Middlewares/ST/STM32_USB_Device_Library/Core/Src/usbd_ctlreq.c ****   USBD_EndpointTypeDef *pep;
 234:Middlewares/ST/STM32_USB_Device_Library/Core/Src/usbd_ctlreq.c ****   uint8_t   ep_addr;
 235:Middlewares/ST/STM32_USB_Device_Library/Core/Src/usbd_ctlreq.c ****   USBD_StatusTypeDef ret = USBD_OK;
 236:Middlewares/ST/STM32_USB_Device_Library/Core/Src/usbd_ctlreq.c ****   ep_addr  = LOBYTE(req->wIndex);
 237:Middlewares/ST/STM32_USB_Device_Library/Core/Src/usbd_ctlreq.c **** 
 238:Middlewares/ST/STM32_USB_Device_Library/Core/Src/usbd_ctlreq.c ****   switch (req->bmRequest & USB_REQ_TYPE_MASK)
 239:Middlewares/ST/STM32_USB_Device_Library/Core/Src/usbd_ctlreq.c ****   {
 240:Middlewares/ST/STM32_USB_Device_Library/Core/Src/usbd_ctlreq.c ****     case USB_REQ_TYPE_CLASS:
 241:Middlewares/ST/STM32_USB_Device_Library/Core/Src/usbd_ctlreq.c ****     case USB_REQ_TYPE_VENDOR:
 242:Middlewares/ST/STM32_USB_Device_Library/Core/Src/usbd_ctlreq.c ****       pdev->pClass->Setup(pdev, req);
 243:Middlewares/ST/STM32_USB_Device_Library/Core/Src/usbd_ctlreq.c ****       break;
 244:Middlewares/ST/STM32_USB_Device_Library/Core/Src/usbd_ctlreq.c **** 
 245:Middlewares/ST/STM32_USB_Device_Library/Core/Src/usbd_ctlreq.c ****     case USB_REQ_TYPE_STANDARD:
 246:Middlewares/ST/STM32_USB_Device_Library/Core/Src/usbd_ctlreq.c ****       /* Check if it is a class request */
 247:Middlewares/ST/STM32_USB_Device_Library/Core/Src/usbd_ctlreq.c ****       if ((req->bmRequest & 0x60U) == 0x20U)
 248:Middlewares/ST/STM32_USB_Device_Library/Core/Src/usbd_ctlreq.c ****       {
 249:Middlewares/ST/STM32_USB_Device_Library/Core/Src/usbd_ctlreq.c ****         ret = (USBD_StatusTypeDef)pdev->pClass->Setup(pdev, req);
 250:Middlewares/ST/STM32_USB_Device_Library/Core/Src/usbd_ctlreq.c **** 
 251:Middlewares/ST/STM32_USB_Device_Library/Core/Src/usbd_ctlreq.c ****         return ret;
 252:Middlewares/ST/STM32_USB_Device_Library/Core/Src/usbd_ctlreq.c ****       }
 253:Middlewares/ST/STM32_USB_Device_Library/Core/Src/usbd_ctlreq.c **** 
 254:Middlewares/ST/STM32_USB_Device_Library/Core/Src/usbd_ctlreq.c ****       switch (req->bRequest)
 255:Middlewares/ST/STM32_USB_Device_Library/Core/Src/usbd_ctlreq.c ****       {
 256:Middlewares/ST/STM32_USB_Device_Library/Core/Src/usbd_ctlreq.c ****         case USB_REQ_SET_FEATURE:
 257:Middlewares/ST/STM32_USB_Device_Library/Core/Src/usbd_ctlreq.c ****           switch (pdev->dev_state)
 258:Middlewares/ST/STM32_USB_Device_Library/Core/Src/usbd_ctlreq.c ****           {
 259:Middlewares/ST/STM32_USB_Device_Library/Core/Src/usbd_ctlreq.c ****             case USBD_STATE_ADDRESSED:
 260:Middlewares/ST/STM32_USB_Device_Library/Core/Src/usbd_ctlreq.c ****               if ((ep_addr != 0x00U) && (ep_addr != 0x80U))
ARM GAS  /tmp/ccOpGw6B.s 			page 6


 261:Middlewares/ST/STM32_USB_Device_Library/Core/Src/usbd_ctlreq.c ****               {
 262:Middlewares/ST/STM32_USB_Device_Library/Core/Src/usbd_ctlreq.c ****                 USBD_LL_StallEP(pdev, ep_addr);
 263:Middlewares/ST/STM32_USB_Device_Library/Core/Src/usbd_ctlreq.c ****                 USBD_LL_StallEP(pdev, 0x80U);
 264:Middlewares/ST/STM32_USB_Device_Library/Core/Src/usbd_ctlreq.c ****               }
 265:Middlewares/ST/STM32_USB_Device_Library/Core/Src/usbd_ctlreq.c ****               else
 266:Middlewares/ST/STM32_USB_Device_Library/Core/Src/usbd_ctlreq.c ****               {
 267:Middlewares/ST/STM32_USB_Device_Library/Core/Src/usbd_ctlreq.c ****                 USBD_CtlError(pdev, req);
 268:Middlewares/ST/STM32_USB_Device_Library/Core/Src/usbd_ctlreq.c ****               }
 269:Middlewares/ST/STM32_USB_Device_Library/Core/Src/usbd_ctlreq.c ****               break;
 270:Middlewares/ST/STM32_USB_Device_Library/Core/Src/usbd_ctlreq.c **** 
 271:Middlewares/ST/STM32_USB_Device_Library/Core/Src/usbd_ctlreq.c ****             case USBD_STATE_CONFIGURED:
 272:Middlewares/ST/STM32_USB_Device_Library/Core/Src/usbd_ctlreq.c ****               if (req->wValue == USB_FEATURE_EP_HALT)
 273:Middlewares/ST/STM32_USB_Device_Library/Core/Src/usbd_ctlreq.c ****               {
 274:Middlewares/ST/STM32_USB_Device_Library/Core/Src/usbd_ctlreq.c ****                 if ((ep_addr != 0x00U) &&
 275:Middlewares/ST/STM32_USB_Device_Library/Core/Src/usbd_ctlreq.c ****                     (ep_addr != 0x80U) && (req->wLength == 0x00U))
 276:Middlewares/ST/STM32_USB_Device_Library/Core/Src/usbd_ctlreq.c ****                 {
 277:Middlewares/ST/STM32_USB_Device_Library/Core/Src/usbd_ctlreq.c ****                   USBD_LL_StallEP(pdev, ep_addr);
 278:Middlewares/ST/STM32_USB_Device_Library/Core/Src/usbd_ctlreq.c ****                 }
 279:Middlewares/ST/STM32_USB_Device_Library/Core/Src/usbd_ctlreq.c ****               }
 280:Middlewares/ST/STM32_USB_Device_Library/Core/Src/usbd_ctlreq.c ****               USBD_CtlSendStatus(pdev);
 281:Middlewares/ST/STM32_USB_Device_Library/Core/Src/usbd_ctlreq.c **** 
 282:Middlewares/ST/STM32_USB_Device_Library/Core/Src/usbd_ctlreq.c ****               break;
 283:Middlewares/ST/STM32_USB_Device_Library/Core/Src/usbd_ctlreq.c **** 
 284:Middlewares/ST/STM32_USB_Device_Library/Core/Src/usbd_ctlreq.c ****             default:
 285:Middlewares/ST/STM32_USB_Device_Library/Core/Src/usbd_ctlreq.c ****               USBD_CtlError(pdev, req);
 286:Middlewares/ST/STM32_USB_Device_Library/Core/Src/usbd_ctlreq.c ****               break;
 287:Middlewares/ST/STM32_USB_Device_Library/Core/Src/usbd_ctlreq.c ****           }
 288:Middlewares/ST/STM32_USB_Device_Library/Core/Src/usbd_ctlreq.c ****           break;
 289:Middlewares/ST/STM32_USB_Device_Library/Core/Src/usbd_ctlreq.c **** 
 290:Middlewares/ST/STM32_USB_Device_Library/Core/Src/usbd_ctlreq.c ****         case USB_REQ_CLEAR_FEATURE:
 291:Middlewares/ST/STM32_USB_Device_Library/Core/Src/usbd_ctlreq.c **** 
 292:Middlewares/ST/STM32_USB_Device_Library/Core/Src/usbd_ctlreq.c ****           switch (pdev->dev_state)
 293:Middlewares/ST/STM32_USB_Device_Library/Core/Src/usbd_ctlreq.c ****           {
 294:Middlewares/ST/STM32_USB_Device_Library/Core/Src/usbd_ctlreq.c ****             case USBD_STATE_ADDRESSED:
 295:Middlewares/ST/STM32_USB_Device_Library/Core/Src/usbd_ctlreq.c ****               if ((ep_addr != 0x00U) && (ep_addr != 0x80U))
 296:Middlewares/ST/STM32_USB_Device_Library/Core/Src/usbd_ctlreq.c ****               {
 297:Middlewares/ST/STM32_USB_Device_Library/Core/Src/usbd_ctlreq.c ****                 USBD_LL_StallEP(pdev, ep_addr);
 298:Middlewares/ST/STM32_USB_Device_Library/Core/Src/usbd_ctlreq.c ****                 USBD_LL_StallEP(pdev, 0x80U);
 299:Middlewares/ST/STM32_USB_Device_Library/Core/Src/usbd_ctlreq.c ****               }
 300:Middlewares/ST/STM32_USB_Device_Library/Core/Src/usbd_ctlreq.c ****               else
 301:Middlewares/ST/STM32_USB_Device_Library/Core/Src/usbd_ctlreq.c ****               {
 302:Middlewares/ST/STM32_USB_Device_Library/Core/Src/usbd_ctlreq.c ****                 USBD_CtlError(pdev, req);
 303:Middlewares/ST/STM32_USB_Device_Library/Core/Src/usbd_ctlreq.c ****               }
 304:Middlewares/ST/STM32_USB_Device_Library/Core/Src/usbd_ctlreq.c ****               break;
 305:Middlewares/ST/STM32_USB_Device_Library/Core/Src/usbd_ctlreq.c **** 
 306:Middlewares/ST/STM32_USB_Device_Library/Core/Src/usbd_ctlreq.c ****             case USBD_STATE_CONFIGURED:
 307:Middlewares/ST/STM32_USB_Device_Library/Core/Src/usbd_ctlreq.c ****               if (req->wValue == USB_FEATURE_EP_HALT)
 308:Middlewares/ST/STM32_USB_Device_Library/Core/Src/usbd_ctlreq.c ****               {
 309:Middlewares/ST/STM32_USB_Device_Library/Core/Src/usbd_ctlreq.c ****                 if ((ep_addr & 0x7FU) != 0x00U)
 310:Middlewares/ST/STM32_USB_Device_Library/Core/Src/usbd_ctlreq.c ****                 {
 311:Middlewares/ST/STM32_USB_Device_Library/Core/Src/usbd_ctlreq.c ****                   USBD_LL_ClearStallEP(pdev, ep_addr);
 312:Middlewares/ST/STM32_USB_Device_Library/Core/Src/usbd_ctlreq.c ****                 }
 313:Middlewares/ST/STM32_USB_Device_Library/Core/Src/usbd_ctlreq.c ****                 USBD_CtlSendStatus(pdev);
 314:Middlewares/ST/STM32_USB_Device_Library/Core/Src/usbd_ctlreq.c ****               }
 315:Middlewares/ST/STM32_USB_Device_Library/Core/Src/usbd_ctlreq.c ****               break;
 316:Middlewares/ST/STM32_USB_Device_Library/Core/Src/usbd_ctlreq.c **** 
 317:Middlewares/ST/STM32_USB_Device_Library/Core/Src/usbd_ctlreq.c ****             default:
ARM GAS  /tmp/ccOpGw6B.s 			page 7


 318:Middlewares/ST/STM32_USB_Device_Library/Core/Src/usbd_ctlreq.c ****               USBD_CtlError(pdev, req);
 319:Middlewares/ST/STM32_USB_Device_Library/Core/Src/usbd_ctlreq.c ****               break;
 320:Middlewares/ST/STM32_USB_Device_Library/Core/Src/usbd_ctlreq.c ****           }
 321:Middlewares/ST/STM32_USB_Device_Library/Core/Src/usbd_ctlreq.c ****           break;
 322:Middlewares/ST/STM32_USB_Device_Library/Core/Src/usbd_ctlreq.c **** 
 323:Middlewares/ST/STM32_USB_Device_Library/Core/Src/usbd_ctlreq.c ****         case USB_REQ_GET_STATUS:
 324:Middlewares/ST/STM32_USB_Device_Library/Core/Src/usbd_ctlreq.c ****           switch (pdev->dev_state)
 325:Middlewares/ST/STM32_USB_Device_Library/Core/Src/usbd_ctlreq.c ****           {
 326:Middlewares/ST/STM32_USB_Device_Library/Core/Src/usbd_ctlreq.c ****             case USBD_STATE_ADDRESSED:
 327:Middlewares/ST/STM32_USB_Device_Library/Core/Src/usbd_ctlreq.c ****               if ((ep_addr != 0x00U) && (ep_addr != 0x80U))
 328:Middlewares/ST/STM32_USB_Device_Library/Core/Src/usbd_ctlreq.c ****               {
 329:Middlewares/ST/STM32_USB_Device_Library/Core/Src/usbd_ctlreq.c ****                 USBD_CtlError(pdev, req);
 330:Middlewares/ST/STM32_USB_Device_Library/Core/Src/usbd_ctlreq.c ****                 break;
 331:Middlewares/ST/STM32_USB_Device_Library/Core/Src/usbd_ctlreq.c ****               }
 332:Middlewares/ST/STM32_USB_Device_Library/Core/Src/usbd_ctlreq.c ****               pep = ((ep_addr & 0x80U) == 0x80U) ? &pdev->ep_in[ep_addr & 0x7FU] : \
 333:Middlewares/ST/STM32_USB_Device_Library/Core/Src/usbd_ctlreq.c ****                     &pdev->ep_out[ep_addr & 0x7FU];
 334:Middlewares/ST/STM32_USB_Device_Library/Core/Src/usbd_ctlreq.c **** 
 335:Middlewares/ST/STM32_USB_Device_Library/Core/Src/usbd_ctlreq.c ****               pep->status = 0x0000U;
 336:Middlewares/ST/STM32_USB_Device_Library/Core/Src/usbd_ctlreq.c **** 
 337:Middlewares/ST/STM32_USB_Device_Library/Core/Src/usbd_ctlreq.c ****               USBD_CtlSendData(pdev, (uint8_t *)(void *)&pep->status, 2U);
 338:Middlewares/ST/STM32_USB_Device_Library/Core/Src/usbd_ctlreq.c ****               break;
 339:Middlewares/ST/STM32_USB_Device_Library/Core/Src/usbd_ctlreq.c **** 
 340:Middlewares/ST/STM32_USB_Device_Library/Core/Src/usbd_ctlreq.c ****             case USBD_STATE_CONFIGURED:
 341:Middlewares/ST/STM32_USB_Device_Library/Core/Src/usbd_ctlreq.c ****               if ((ep_addr & 0x80U) == 0x80U)
 342:Middlewares/ST/STM32_USB_Device_Library/Core/Src/usbd_ctlreq.c ****               {
 343:Middlewares/ST/STM32_USB_Device_Library/Core/Src/usbd_ctlreq.c ****                 if (pdev->ep_in[ep_addr & 0xFU].is_used == 0U)
 344:Middlewares/ST/STM32_USB_Device_Library/Core/Src/usbd_ctlreq.c ****                 {
 345:Middlewares/ST/STM32_USB_Device_Library/Core/Src/usbd_ctlreq.c ****                   USBD_CtlError(pdev, req);
 346:Middlewares/ST/STM32_USB_Device_Library/Core/Src/usbd_ctlreq.c ****                   break;
 347:Middlewares/ST/STM32_USB_Device_Library/Core/Src/usbd_ctlreq.c ****                 }
 348:Middlewares/ST/STM32_USB_Device_Library/Core/Src/usbd_ctlreq.c ****               }
 349:Middlewares/ST/STM32_USB_Device_Library/Core/Src/usbd_ctlreq.c ****               else
 350:Middlewares/ST/STM32_USB_Device_Library/Core/Src/usbd_ctlreq.c ****               {
 351:Middlewares/ST/STM32_USB_Device_Library/Core/Src/usbd_ctlreq.c ****                 if (pdev->ep_out[ep_addr & 0xFU].is_used == 0U)
 352:Middlewares/ST/STM32_USB_Device_Library/Core/Src/usbd_ctlreq.c ****                 {
 353:Middlewares/ST/STM32_USB_Device_Library/Core/Src/usbd_ctlreq.c ****                   USBD_CtlError(pdev, req);
 354:Middlewares/ST/STM32_USB_Device_Library/Core/Src/usbd_ctlreq.c ****                   break;
 355:Middlewares/ST/STM32_USB_Device_Library/Core/Src/usbd_ctlreq.c ****                 }
 356:Middlewares/ST/STM32_USB_Device_Library/Core/Src/usbd_ctlreq.c ****               }
 357:Middlewares/ST/STM32_USB_Device_Library/Core/Src/usbd_ctlreq.c **** 
 358:Middlewares/ST/STM32_USB_Device_Library/Core/Src/usbd_ctlreq.c ****               pep = ((ep_addr & 0x80U) == 0x80U) ? &pdev->ep_in[ep_addr & 0x7FU] : \
 359:Middlewares/ST/STM32_USB_Device_Library/Core/Src/usbd_ctlreq.c ****                     &pdev->ep_out[ep_addr & 0x7FU];
 360:Middlewares/ST/STM32_USB_Device_Library/Core/Src/usbd_ctlreq.c **** 
 361:Middlewares/ST/STM32_USB_Device_Library/Core/Src/usbd_ctlreq.c ****               if ((ep_addr == 0x00U) || (ep_addr == 0x80U))
 362:Middlewares/ST/STM32_USB_Device_Library/Core/Src/usbd_ctlreq.c ****               {
 363:Middlewares/ST/STM32_USB_Device_Library/Core/Src/usbd_ctlreq.c ****                 pep->status = 0x0000U;
 364:Middlewares/ST/STM32_USB_Device_Library/Core/Src/usbd_ctlreq.c ****               }
 365:Middlewares/ST/STM32_USB_Device_Library/Core/Src/usbd_ctlreq.c ****               else if (USBD_LL_IsStallEP(pdev, ep_addr))
 366:Middlewares/ST/STM32_USB_Device_Library/Core/Src/usbd_ctlreq.c ****               {
 367:Middlewares/ST/STM32_USB_Device_Library/Core/Src/usbd_ctlreq.c ****                 pep->status = 0x0001U;
 368:Middlewares/ST/STM32_USB_Device_Library/Core/Src/usbd_ctlreq.c ****               }
 369:Middlewares/ST/STM32_USB_Device_Library/Core/Src/usbd_ctlreq.c ****               else
 370:Middlewares/ST/STM32_USB_Device_Library/Core/Src/usbd_ctlreq.c ****               {
 371:Middlewares/ST/STM32_USB_Device_Library/Core/Src/usbd_ctlreq.c ****                 pep->status = 0x0000U;
 372:Middlewares/ST/STM32_USB_Device_Library/Core/Src/usbd_ctlreq.c ****               }
 373:Middlewares/ST/STM32_USB_Device_Library/Core/Src/usbd_ctlreq.c **** 
 374:Middlewares/ST/STM32_USB_Device_Library/Core/Src/usbd_ctlreq.c ****               USBD_CtlSendData(pdev, (uint8_t *)(void *)&pep->status, 2U);
ARM GAS  /tmp/ccOpGw6B.s 			page 8


 375:Middlewares/ST/STM32_USB_Device_Library/Core/Src/usbd_ctlreq.c ****               break;
 376:Middlewares/ST/STM32_USB_Device_Library/Core/Src/usbd_ctlreq.c **** 
 377:Middlewares/ST/STM32_USB_Device_Library/Core/Src/usbd_ctlreq.c ****             default:
 378:Middlewares/ST/STM32_USB_Device_Library/Core/Src/usbd_ctlreq.c ****               USBD_CtlError(pdev, req);
 379:Middlewares/ST/STM32_USB_Device_Library/Core/Src/usbd_ctlreq.c ****               break;
 380:Middlewares/ST/STM32_USB_Device_Library/Core/Src/usbd_ctlreq.c ****           }
 381:Middlewares/ST/STM32_USB_Device_Library/Core/Src/usbd_ctlreq.c ****           break;
 382:Middlewares/ST/STM32_USB_Device_Library/Core/Src/usbd_ctlreq.c **** 
 383:Middlewares/ST/STM32_USB_Device_Library/Core/Src/usbd_ctlreq.c ****         default:
 384:Middlewares/ST/STM32_USB_Device_Library/Core/Src/usbd_ctlreq.c ****           USBD_CtlError(pdev, req);
 385:Middlewares/ST/STM32_USB_Device_Library/Core/Src/usbd_ctlreq.c ****           break;
 386:Middlewares/ST/STM32_USB_Device_Library/Core/Src/usbd_ctlreq.c ****       }
 387:Middlewares/ST/STM32_USB_Device_Library/Core/Src/usbd_ctlreq.c ****       break;
 388:Middlewares/ST/STM32_USB_Device_Library/Core/Src/usbd_ctlreq.c **** 
 389:Middlewares/ST/STM32_USB_Device_Library/Core/Src/usbd_ctlreq.c ****     default:
 390:Middlewares/ST/STM32_USB_Device_Library/Core/Src/usbd_ctlreq.c ****       USBD_CtlError(pdev, req);
 391:Middlewares/ST/STM32_USB_Device_Library/Core/Src/usbd_ctlreq.c ****       break;
 392:Middlewares/ST/STM32_USB_Device_Library/Core/Src/usbd_ctlreq.c ****   }
 393:Middlewares/ST/STM32_USB_Device_Library/Core/Src/usbd_ctlreq.c **** 
 394:Middlewares/ST/STM32_USB_Device_Library/Core/Src/usbd_ctlreq.c ****   return ret;
 395:Middlewares/ST/STM32_USB_Device_Library/Core/Src/usbd_ctlreq.c **** }
 396:Middlewares/ST/STM32_USB_Device_Library/Core/Src/usbd_ctlreq.c **** 
 397:Middlewares/ST/STM32_USB_Device_Library/Core/Src/usbd_ctlreq.c **** 
 398:Middlewares/ST/STM32_USB_Device_Library/Core/Src/usbd_ctlreq.c **** /**
 399:Middlewares/ST/STM32_USB_Device_Library/Core/Src/usbd_ctlreq.c **** * @brief  USBD_GetDescriptor
 400:Middlewares/ST/STM32_USB_Device_Library/Core/Src/usbd_ctlreq.c **** *         Handle Get Descriptor requests
 401:Middlewares/ST/STM32_USB_Device_Library/Core/Src/usbd_ctlreq.c **** * @param  pdev: device instance
 402:Middlewares/ST/STM32_USB_Device_Library/Core/Src/usbd_ctlreq.c **** * @param  req: usb request
 403:Middlewares/ST/STM32_USB_Device_Library/Core/Src/usbd_ctlreq.c **** * @retval status
 404:Middlewares/ST/STM32_USB_Device_Library/Core/Src/usbd_ctlreq.c **** */
 405:Middlewares/ST/STM32_USB_Device_Library/Core/Src/usbd_ctlreq.c **** static void USBD_GetDescriptor(USBD_HandleTypeDef *pdev,
 406:Middlewares/ST/STM32_USB_Device_Library/Core/Src/usbd_ctlreq.c ****                                USBD_SetupReqTypedef *req)
 407:Middlewares/ST/STM32_USB_Device_Library/Core/Src/usbd_ctlreq.c **** {
 408:Middlewares/ST/STM32_USB_Device_Library/Core/Src/usbd_ctlreq.c ****   uint16_t len = 0U;
 409:Middlewares/ST/STM32_USB_Device_Library/Core/Src/usbd_ctlreq.c ****   uint8_t *pbuf = NULL;
 410:Middlewares/ST/STM32_USB_Device_Library/Core/Src/usbd_ctlreq.c ****   uint8_t err = 0U;
 411:Middlewares/ST/STM32_USB_Device_Library/Core/Src/usbd_ctlreq.c **** 
 412:Middlewares/ST/STM32_USB_Device_Library/Core/Src/usbd_ctlreq.c ****   switch (req->wValue >> 8)
 413:Middlewares/ST/STM32_USB_Device_Library/Core/Src/usbd_ctlreq.c ****   {
 414:Middlewares/ST/STM32_USB_Device_Library/Core/Src/usbd_ctlreq.c **** #if (USBD_LPM_ENABLED == 1U)
 415:Middlewares/ST/STM32_USB_Device_Library/Core/Src/usbd_ctlreq.c ****     case USB_DESC_TYPE_BOS:
 416:Middlewares/ST/STM32_USB_Device_Library/Core/Src/usbd_ctlreq.c ****       if (pdev->pDesc->GetBOSDescriptor != NULL)
 417:Middlewares/ST/STM32_USB_Device_Library/Core/Src/usbd_ctlreq.c ****       {
 418:Middlewares/ST/STM32_USB_Device_Library/Core/Src/usbd_ctlreq.c ****         pbuf = pdev->pDesc->GetBOSDescriptor(pdev->dev_speed, &len);
 419:Middlewares/ST/STM32_USB_Device_Library/Core/Src/usbd_ctlreq.c ****       }
 420:Middlewares/ST/STM32_USB_Device_Library/Core/Src/usbd_ctlreq.c ****       else
 421:Middlewares/ST/STM32_USB_Device_Library/Core/Src/usbd_ctlreq.c ****       {
 422:Middlewares/ST/STM32_USB_Device_Library/Core/Src/usbd_ctlreq.c ****         USBD_CtlError(pdev, req);
 423:Middlewares/ST/STM32_USB_Device_Library/Core/Src/usbd_ctlreq.c ****         err++;
 424:Middlewares/ST/STM32_USB_Device_Library/Core/Src/usbd_ctlreq.c ****       }
 425:Middlewares/ST/STM32_USB_Device_Library/Core/Src/usbd_ctlreq.c ****       break;
 426:Middlewares/ST/STM32_USB_Device_Library/Core/Src/usbd_ctlreq.c **** #endif
 427:Middlewares/ST/STM32_USB_Device_Library/Core/Src/usbd_ctlreq.c ****     case USB_DESC_TYPE_DEVICE:
 428:Middlewares/ST/STM32_USB_Device_Library/Core/Src/usbd_ctlreq.c ****       pbuf = pdev->pDesc->GetDeviceDescriptor(pdev->dev_speed, &len);
 429:Middlewares/ST/STM32_USB_Device_Library/Core/Src/usbd_ctlreq.c ****       break;
 430:Middlewares/ST/STM32_USB_Device_Library/Core/Src/usbd_ctlreq.c **** 
 431:Middlewares/ST/STM32_USB_Device_Library/Core/Src/usbd_ctlreq.c ****     case USB_DESC_TYPE_CONFIGURATION:
ARM GAS  /tmp/ccOpGw6B.s 			page 9


 432:Middlewares/ST/STM32_USB_Device_Library/Core/Src/usbd_ctlreq.c ****       if (pdev->dev_speed == USBD_SPEED_HIGH)
 433:Middlewares/ST/STM32_USB_Device_Library/Core/Src/usbd_ctlreq.c ****       {
 434:Middlewares/ST/STM32_USB_Device_Library/Core/Src/usbd_ctlreq.c ****         pbuf = pdev->pClass->GetHSConfigDescriptor(&len);
 435:Middlewares/ST/STM32_USB_Device_Library/Core/Src/usbd_ctlreq.c ****         pbuf[1] = USB_DESC_TYPE_CONFIGURATION;
 436:Middlewares/ST/STM32_USB_Device_Library/Core/Src/usbd_ctlreq.c ****       }
 437:Middlewares/ST/STM32_USB_Device_Library/Core/Src/usbd_ctlreq.c ****       else
 438:Middlewares/ST/STM32_USB_Device_Library/Core/Src/usbd_ctlreq.c ****       {
 439:Middlewares/ST/STM32_USB_Device_Library/Core/Src/usbd_ctlreq.c ****         pbuf = pdev->pClass->GetFSConfigDescriptor(&len);
 440:Middlewares/ST/STM32_USB_Device_Library/Core/Src/usbd_ctlreq.c ****         pbuf[1] = USB_DESC_TYPE_CONFIGURATION;
 441:Middlewares/ST/STM32_USB_Device_Library/Core/Src/usbd_ctlreq.c ****       }
 442:Middlewares/ST/STM32_USB_Device_Library/Core/Src/usbd_ctlreq.c ****       break;
 443:Middlewares/ST/STM32_USB_Device_Library/Core/Src/usbd_ctlreq.c **** 
 444:Middlewares/ST/STM32_USB_Device_Library/Core/Src/usbd_ctlreq.c ****     case USB_DESC_TYPE_STRING:
 445:Middlewares/ST/STM32_USB_Device_Library/Core/Src/usbd_ctlreq.c ****       switch ((uint8_t)(req->wValue))
 446:Middlewares/ST/STM32_USB_Device_Library/Core/Src/usbd_ctlreq.c ****       {
 447:Middlewares/ST/STM32_USB_Device_Library/Core/Src/usbd_ctlreq.c ****         case USBD_IDX_LANGID_STR:
 448:Middlewares/ST/STM32_USB_Device_Library/Core/Src/usbd_ctlreq.c ****           if (pdev->pDesc->GetLangIDStrDescriptor != NULL)
 449:Middlewares/ST/STM32_USB_Device_Library/Core/Src/usbd_ctlreq.c ****           {
 450:Middlewares/ST/STM32_USB_Device_Library/Core/Src/usbd_ctlreq.c ****             pbuf = pdev->pDesc->GetLangIDStrDescriptor(pdev->dev_speed, &len);
 451:Middlewares/ST/STM32_USB_Device_Library/Core/Src/usbd_ctlreq.c ****           }
 452:Middlewares/ST/STM32_USB_Device_Library/Core/Src/usbd_ctlreq.c ****           else
 453:Middlewares/ST/STM32_USB_Device_Library/Core/Src/usbd_ctlreq.c ****           {
 454:Middlewares/ST/STM32_USB_Device_Library/Core/Src/usbd_ctlreq.c ****             USBD_CtlError(pdev, req);
 455:Middlewares/ST/STM32_USB_Device_Library/Core/Src/usbd_ctlreq.c ****             err++;
 456:Middlewares/ST/STM32_USB_Device_Library/Core/Src/usbd_ctlreq.c ****           }
 457:Middlewares/ST/STM32_USB_Device_Library/Core/Src/usbd_ctlreq.c ****           break;
 458:Middlewares/ST/STM32_USB_Device_Library/Core/Src/usbd_ctlreq.c **** 
 459:Middlewares/ST/STM32_USB_Device_Library/Core/Src/usbd_ctlreq.c ****         case USBD_IDX_MFC_STR:
 460:Middlewares/ST/STM32_USB_Device_Library/Core/Src/usbd_ctlreq.c ****           if (pdev->pDesc->GetManufacturerStrDescriptor != NULL)
 461:Middlewares/ST/STM32_USB_Device_Library/Core/Src/usbd_ctlreq.c ****           {
 462:Middlewares/ST/STM32_USB_Device_Library/Core/Src/usbd_ctlreq.c ****             pbuf = pdev->pDesc->GetManufacturerStrDescriptor(pdev->dev_speed, &len);
 463:Middlewares/ST/STM32_USB_Device_Library/Core/Src/usbd_ctlreq.c ****           }
 464:Middlewares/ST/STM32_USB_Device_Library/Core/Src/usbd_ctlreq.c ****           else
 465:Middlewares/ST/STM32_USB_Device_Library/Core/Src/usbd_ctlreq.c ****           {
 466:Middlewares/ST/STM32_USB_Device_Library/Core/Src/usbd_ctlreq.c ****             USBD_CtlError(pdev, req);
 467:Middlewares/ST/STM32_USB_Device_Library/Core/Src/usbd_ctlreq.c ****             err++;
 468:Middlewares/ST/STM32_USB_Device_Library/Core/Src/usbd_ctlreq.c ****           }
 469:Middlewares/ST/STM32_USB_Device_Library/Core/Src/usbd_ctlreq.c ****           break;
 470:Middlewares/ST/STM32_USB_Device_Library/Core/Src/usbd_ctlreq.c **** 
 471:Middlewares/ST/STM32_USB_Device_Library/Core/Src/usbd_ctlreq.c ****         case USBD_IDX_PRODUCT_STR:
 472:Middlewares/ST/STM32_USB_Device_Library/Core/Src/usbd_ctlreq.c ****           if (pdev->pDesc->GetProductStrDescriptor != NULL)
 473:Middlewares/ST/STM32_USB_Device_Library/Core/Src/usbd_ctlreq.c ****           {
 474:Middlewares/ST/STM32_USB_Device_Library/Core/Src/usbd_ctlreq.c ****             pbuf = pdev->pDesc->GetProductStrDescriptor(pdev->dev_speed, &len);
 475:Middlewares/ST/STM32_USB_Device_Library/Core/Src/usbd_ctlreq.c ****           }
 476:Middlewares/ST/STM32_USB_Device_Library/Core/Src/usbd_ctlreq.c ****           else
 477:Middlewares/ST/STM32_USB_Device_Library/Core/Src/usbd_ctlreq.c ****           {
 478:Middlewares/ST/STM32_USB_Device_Library/Core/Src/usbd_ctlreq.c ****             USBD_CtlError(pdev, req);
 479:Middlewares/ST/STM32_USB_Device_Library/Core/Src/usbd_ctlreq.c ****             err++;
 480:Middlewares/ST/STM32_USB_Device_Library/Core/Src/usbd_ctlreq.c ****           }
 481:Middlewares/ST/STM32_USB_Device_Library/Core/Src/usbd_ctlreq.c ****           break;
 482:Middlewares/ST/STM32_USB_Device_Library/Core/Src/usbd_ctlreq.c **** 
 483:Middlewares/ST/STM32_USB_Device_Library/Core/Src/usbd_ctlreq.c ****         case USBD_IDX_SERIAL_STR:
 484:Middlewares/ST/STM32_USB_Device_Library/Core/Src/usbd_ctlreq.c ****           if (pdev->pDesc->GetSerialStrDescriptor != NULL)
 485:Middlewares/ST/STM32_USB_Device_Library/Core/Src/usbd_ctlreq.c ****           {
 486:Middlewares/ST/STM32_USB_Device_Library/Core/Src/usbd_ctlreq.c ****             pbuf = pdev->pDesc->GetSerialStrDescriptor(pdev->dev_speed, &len);
 487:Middlewares/ST/STM32_USB_Device_Library/Core/Src/usbd_ctlreq.c ****           }
 488:Middlewares/ST/STM32_USB_Device_Library/Core/Src/usbd_ctlreq.c ****           else
ARM GAS  /tmp/ccOpGw6B.s 			page 10


 489:Middlewares/ST/STM32_USB_Device_Library/Core/Src/usbd_ctlreq.c ****           {
 490:Middlewares/ST/STM32_USB_Device_Library/Core/Src/usbd_ctlreq.c ****             USBD_CtlError(pdev, req);
 491:Middlewares/ST/STM32_USB_Device_Library/Core/Src/usbd_ctlreq.c ****             err++;
 492:Middlewares/ST/STM32_USB_Device_Library/Core/Src/usbd_ctlreq.c ****           }
 493:Middlewares/ST/STM32_USB_Device_Library/Core/Src/usbd_ctlreq.c ****           break;
 494:Middlewares/ST/STM32_USB_Device_Library/Core/Src/usbd_ctlreq.c **** 
 495:Middlewares/ST/STM32_USB_Device_Library/Core/Src/usbd_ctlreq.c ****         case USBD_IDX_CONFIG_STR:
 496:Middlewares/ST/STM32_USB_Device_Library/Core/Src/usbd_ctlreq.c ****           if (pdev->pDesc->GetConfigurationStrDescriptor != NULL)
 497:Middlewares/ST/STM32_USB_Device_Library/Core/Src/usbd_ctlreq.c ****           {
 498:Middlewares/ST/STM32_USB_Device_Library/Core/Src/usbd_ctlreq.c ****             pbuf = pdev->pDesc->GetConfigurationStrDescriptor(pdev->dev_speed, &len);
 499:Middlewares/ST/STM32_USB_Device_Library/Core/Src/usbd_ctlreq.c ****           }
 500:Middlewares/ST/STM32_USB_Device_Library/Core/Src/usbd_ctlreq.c ****           else
 501:Middlewares/ST/STM32_USB_Device_Library/Core/Src/usbd_ctlreq.c ****           {
 502:Middlewares/ST/STM32_USB_Device_Library/Core/Src/usbd_ctlreq.c ****             USBD_CtlError(pdev, req);
 503:Middlewares/ST/STM32_USB_Device_Library/Core/Src/usbd_ctlreq.c ****             err++;
 504:Middlewares/ST/STM32_USB_Device_Library/Core/Src/usbd_ctlreq.c ****           }
 505:Middlewares/ST/STM32_USB_Device_Library/Core/Src/usbd_ctlreq.c ****           break;
 506:Middlewares/ST/STM32_USB_Device_Library/Core/Src/usbd_ctlreq.c **** 
 507:Middlewares/ST/STM32_USB_Device_Library/Core/Src/usbd_ctlreq.c ****         case USBD_IDX_INTERFACE_STR:
 508:Middlewares/ST/STM32_USB_Device_Library/Core/Src/usbd_ctlreq.c ****           if (pdev->pDesc->GetInterfaceStrDescriptor != NULL)
 509:Middlewares/ST/STM32_USB_Device_Library/Core/Src/usbd_ctlreq.c ****           {
 510:Middlewares/ST/STM32_USB_Device_Library/Core/Src/usbd_ctlreq.c ****             pbuf = pdev->pDesc->GetInterfaceStrDescriptor(pdev->dev_speed, &len);
 511:Middlewares/ST/STM32_USB_Device_Library/Core/Src/usbd_ctlreq.c ****           }
 512:Middlewares/ST/STM32_USB_Device_Library/Core/Src/usbd_ctlreq.c ****           else
 513:Middlewares/ST/STM32_USB_Device_Library/Core/Src/usbd_ctlreq.c ****           {
 514:Middlewares/ST/STM32_USB_Device_Library/Core/Src/usbd_ctlreq.c ****             USBD_CtlError(pdev, req);
 515:Middlewares/ST/STM32_USB_Device_Library/Core/Src/usbd_ctlreq.c ****             err++;
 516:Middlewares/ST/STM32_USB_Device_Library/Core/Src/usbd_ctlreq.c ****           }
 517:Middlewares/ST/STM32_USB_Device_Library/Core/Src/usbd_ctlreq.c ****           break;
 518:Middlewares/ST/STM32_USB_Device_Library/Core/Src/usbd_ctlreq.c **** 
 519:Middlewares/ST/STM32_USB_Device_Library/Core/Src/usbd_ctlreq.c ****         default:
 520:Middlewares/ST/STM32_USB_Device_Library/Core/Src/usbd_ctlreq.c **** #if (USBD_SUPPORT_USER_STRING_DESC == 1U)
 521:Middlewares/ST/STM32_USB_Device_Library/Core/Src/usbd_ctlreq.c ****           if (pdev->pClass->GetUsrStrDescriptor != NULL)
 522:Middlewares/ST/STM32_USB_Device_Library/Core/Src/usbd_ctlreq.c ****           {
 523:Middlewares/ST/STM32_USB_Device_Library/Core/Src/usbd_ctlreq.c ****             pbuf = pdev->pClass->GetUsrStrDescriptor(pdev, (req->wValue), &len);
 524:Middlewares/ST/STM32_USB_Device_Library/Core/Src/usbd_ctlreq.c ****           }
 525:Middlewares/ST/STM32_USB_Device_Library/Core/Src/usbd_ctlreq.c ****           else
 526:Middlewares/ST/STM32_USB_Device_Library/Core/Src/usbd_ctlreq.c ****           {
 527:Middlewares/ST/STM32_USB_Device_Library/Core/Src/usbd_ctlreq.c ****             USBD_CtlError(pdev, req);
 528:Middlewares/ST/STM32_USB_Device_Library/Core/Src/usbd_ctlreq.c ****             err++;
 529:Middlewares/ST/STM32_USB_Device_Library/Core/Src/usbd_ctlreq.c ****           }
 530:Middlewares/ST/STM32_USB_Device_Library/Core/Src/usbd_ctlreq.c ****           break;
 531:Middlewares/ST/STM32_USB_Device_Library/Core/Src/usbd_ctlreq.c **** #else
 532:Middlewares/ST/STM32_USB_Device_Library/Core/Src/usbd_ctlreq.c ****           USBD_CtlError(pdev, req);
 533:Middlewares/ST/STM32_USB_Device_Library/Core/Src/usbd_ctlreq.c ****           err++;
 534:Middlewares/ST/STM32_USB_Device_Library/Core/Src/usbd_ctlreq.c **** #endif
 535:Middlewares/ST/STM32_USB_Device_Library/Core/Src/usbd_ctlreq.c ****       }
 536:Middlewares/ST/STM32_USB_Device_Library/Core/Src/usbd_ctlreq.c ****       break;
 537:Middlewares/ST/STM32_USB_Device_Library/Core/Src/usbd_ctlreq.c **** 
 538:Middlewares/ST/STM32_USB_Device_Library/Core/Src/usbd_ctlreq.c ****     case USB_DESC_TYPE_DEVICE_QUALIFIER:
 539:Middlewares/ST/STM32_USB_Device_Library/Core/Src/usbd_ctlreq.c ****       if (pdev->dev_speed == USBD_SPEED_HIGH)
 540:Middlewares/ST/STM32_USB_Device_Library/Core/Src/usbd_ctlreq.c ****       {
 541:Middlewares/ST/STM32_USB_Device_Library/Core/Src/usbd_ctlreq.c ****         pbuf = pdev->pClass->GetDeviceQualifierDescriptor(&len);
 542:Middlewares/ST/STM32_USB_Device_Library/Core/Src/usbd_ctlreq.c ****       }
 543:Middlewares/ST/STM32_USB_Device_Library/Core/Src/usbd_ctlreq.c ****       else
 544:Middlewares/ST/STM32_USB_Device_Library/Core/Src/usbd_ctlreq.c ****       {
 545:Middlewares/ST/STM32_USB_Device_Library/Core/Src/usbd_ctlreq.c ****         USBD_CtlError(pdev, req);
ARM GAS  /tmp/ccOpGw6B.s 			page 11


 546:Middlewares/ST/STM32_USB_Device_Library/Core/Src/usbd_ctlreq.c ****         err++;
 547:Middlewares/ST/STM32_USB_Device_Library/Core/Src/usbd_ctlreq.c ****       }
 548:Middlewares/ST/STM32_USB_Device_Library/Core/Src/usbd_ctlreq.c ****       break;
 549:Middlewares/ST/STM32_USB_Device_Library/Core/Src/usbd_ctlreq.c **** 
 550:Middlewares/ST/STM32_USB_Device_Library/Core/Src/usbd_ctlreq.c ****     case USB_DESC_TYPE_OTHER_SPEED_CONFIGURATION:
 551:Middlewares/ST/STM32_USB_Device_Library/Core/Src/usbd_ctlreq.c ****       if (pdev->dev_speed == USBD_SPEED_HIGH)
 552:Middlewares/ST/STM32_USB_Device_Library/Core/Src/usbd_ctlreq.c ****       {
 553:Middlewares/ST/STM32_USB_Device_Library/Core/Src/usbd_ctlreq.c ****         pbuf = pdev->pClass->GetOtherSpeedConfigDescriptor(&len);
 554:Middlewares/ST/STM32_USB_Device_Library/Core/Src/usbd_ctlreq.c ****         pbuf[1] = USB_DESC_TYPE_OTHER_SPEED_CONFIGURATION;
 555:Middlewares/ST/STM32_USB_Device_Library/Core/Src/usbd_ctlreq.c ****       }
 556:Middlewares/ST/STM32_USB_Device_Library/Core/Src/usbd_ctlreq.c ****       else
 557:Middlewares/ST/STM32_USB_Device_Library/Core/Src/usbd_ctlreq.c ****       {
 558:Middlewares/ST/STM32_USB_Device_Library/Core/Src/usbd_ctlreq.c ****         USBD_CtlError(pdev, req);
 559:Middlewares/ST/STM32_USB_Device_Library/Core/Src/usbd_ctlreq.c ****         err++;
 560:Middlewares/ST/STM32_USB_Device_Library/Core/Src/usbd_ctlreq.c ****       }
 561:Middlewares/ST/STM32_USB_Device_Library/Core/Src/usbd_ctlreq.c ****       break;
 562:Middlewares/ST/STM32_USB_Device_Library/Core/Src/usbd_ctlreq.c **** 
 563:Middlewares/ST/STM32_USB_Device_Library/Core/Src/usbd_ctlreq.c ****     default:
 564:Middlewares/ST/STM32_USB_Device_Library/Core/Src/usbd_ctlreq.c ****       USBD_CtlError(pdev, req);
 565:Middlewares/ST/STM32_USB_Device_Library/Core/Src/usbd_ctlreq.c ****       err++;
 566:Middlewares/ST/STM32_USB_Device_Library/Core/Src/usbd_ctlreq.c ****       break;
 567:Middlewares/ST/STM32_USB_Device_Library/Core/Src/usbd_ctlreq.c ****   }
 568:Middlewares/ST/STM32_USB_Device_Library/Core/Src/usbd_ctlreq.c **** 
 569:Middlewares/ST/STM32_USB_Device_Library/Core/Src/usbd_ctlreq.c ****   if (err != 0U)
 570:Middlewares/ST/STM32_USB_Device_Library/Core/Src/usbd_ctlreq.c ****   {
 571:Middlewares/ST/STM32_USB_Device_Library/Core/Src/usbd_ctlreq.c ****     return;
 572:Middlewares/ST/STM32_USB_Device_Library/Core/Src/usbd_ctlreq.c ****   }
 573:Middlewares/ST/STM32_USB_Device_Library/Core/Src/usbd_ctlreq.c ****   else
 574:Middlewares/ST/STM32_USB_Device_Library/Core/Src/usbd_ctlreq.c ****   {
 575:Middlewares/ST/STM32_USB_Device_Library/Core/Src/usbd_ctlreq.c ****     if ((len != 0U) && (req->wLength != 0U))
 576:Middlewares/ST/STM32_USB_Device_Library/Core/Src/usbd_ctlreq.c ****     {
 577:Middlewares/ST/STM32_USB_Device_Library/Core/Src/usbd_ctlreq.c ****       len = MIN(len, req->wLength);
 578:Middlewares/ST/STM32_USB_Device_Library/Core/Src/usbd_ctlreq.c ****       (void)USBD_CtlSendData(pdev, pbuf, len);
 579:Middlewares/ST/STM32_USB_Device_Library/Core/Src/usbd_ctlreq.c ****     }
 580:Middlewares/ST/STM32_USB_Device_Library/Core/Src/usbd_ctlreq.c **** 
 581:Middlewares/ST/STM32_USB_Device_Library/Core/Src/usbd_ctlreq.c ****     if (req->wLength == 0U)
 582:Middlewares/ST/STM32_USB_Device_Library/Core/Src/usbd_ctlreq.c ****     {
 583:Middlewares/ST/STM32_USB_Device_Library/Core/Src/usbd_ctlreq.c ****       (void)USBD_CtlSendStatus(pdev);
 584:Middlewares/ST/STM32_USB_Device_Library/Core/Src/usbd_ctlreq.c ****     }
 585:Middlewares/ST/STM32_USB_Device_Library/Core/Src/usbd_ctlreq.c ****   }
 586:Middlewares/ST/STM32_USB_Device_Library/Core/Src/usbd_ctlreq.c **** }
 587:Middlewares/ST/STM32_USB_Device_Library/Core/Src/usbd_ctlreq.c **** 
 588:Middlewares/ST/STM32_USB_Device_Library/Core/Src/usbd_ctlreq.c **** /**
 589:Middlewares/ST/STM32_USB_Device_Library/Core/Src/usbd_ctlreq.c **** * @brief  USBD_SetAddress
 590:Middlewares/ST/STM32_USB_Device_Library/Core/Src/usbd_ctlreq.c **** *         Set device address
 591:Middlewares/ST/STM32_USB_Device_Library/Core/Src/usbd_ctlreq.c **** * @param  pdev: device instance
 592:Middlewares/ST/STM32_USB_Device_Library/Core/Src/usbd_ctlreq.c **** * @param  req: usb request
 593:Middlewares/ST/STM32_USB_Device_Library/Core/Src/usbd_ctlreq.c **** * @retval status
 594:Middlewares/ST/STM32_USB_Device_Library/Core/Src/usbd_ctlreq.c **** */
 595:Middlewares/ST/STM32_USB_Device_Library/Core/Src/usbd_ctlreq.c **** static void USBD_SetAddress(USBD_HandleTypeDef *pdev,
 596:Middlewares/ST/STM32_USB_Device_Library/Core/Src/usbd_ctlreq.c ****                             USBD_SetupReqTypedef *req)
 597:Middlewares/ST/STM32_USB_Device_Library/Core/Src/usbd_ctlreq.c **** {
 598:Middlewares/ST/STM32_USB_Device_Library/Core/Src/usbd_ctlreq.c ****   uint8_t  dev_addr;
 599:Middlewares/ST/STM32_USB_Device_Library/Core/Src/usbd_ctlreq.c **** 
 600:Middlewares/ST/STM32_USB_Device_Library/Core/Src/usbd_ctlreq.c ****   if ((req->wIndex == 0U) && (req->wLength == 0U) && (req->wValue < 128U))
 601:Middlewares/ST/STM32_USB_Device_Library/Core/Src/usbd_ctlreq.c ****   {
 602:Middlewares/ST/STM32_USB_Device_Library/Core/Src/usbd_ctlreq.c ****     dev_addr = (uint8_t)(req->wValue) & 0x7FU;
ARM GAS  /tmp/ccOpGw6B.s 			page 12


 603:Middlewares/ST/STM32_USB_Device_Library/Core/Src/usbd_ctlreq.c **** 
 604:Middlewares/ST/STM32_USB_Device_Library/Core/Src/usbd_ctlreq.c ****     if (pdev->dev_state == USBD_STATE_CONFIGURED)
 605:Middlewares/ST/STM32_USB_Device_Library/Core/Src/usbd_ctlreq.c ****     {
 606:Middlewares/ST/STM32_USB_Device_Library/Core/Src/usbd_ctlreq.c ****       USBD_CtlError(pdev, req);
 607:Middlewares/ST/STM32_USB_Device_Library/Core/Src/usbd_ctlreq.c ****     }
 608:Middlewares/ST/STM32_USB_Device_Library/Core/Src/usbd_ctlreq.c ****     else
 609:Middlewares/ST/STM32_USB_Device_Library/Core/Src/usbd_ctlreq.c ****     {
 610:Middlewares/ST/STM32_USB_Device_Library/Core/Src/usbd_ctlreq.c ****       pdev->dev_address = dev_addr;
 611:Middlewares/ST/STM32_USB_Device_Library/Core/Src/usbd_ctlreq.c ****       USBD_LL_SetUSBAddress(pdev, dev_addr);
 612:Middlewares/ST/STM32_USB_Device_Library/Core/Src/usbd_ctlreq.c ****       USBD_CtlSendStatus(pdev);
 613:Middlewares/ST/STM32_USB_Device_Library/Core/Src/usbd_ctlreq.c **** 
 614:Middlewares/ST/STM32_USB_Device_Library/Core/Src/usbd_ctlreq.c ****       if (dev_addr != 0U)
 615:Middlewares/ST/STM32_USB_Device_Library/Core/Src/usbd_ctlreq.c ****       {
 616:Middlewares/ST/STM32_USB_Device_Library/Core/Src/usbd_ctlreq.c ****         pdev->dev_state = USBD_STATE_ADDRESSED;
 617:Middlewares/ST/STM32_USB_Device_Library/Core/Src/usbd_ctlreq.c ****       }
 618:Middlewares/ST/STM32_USB_Device_Library/Core/Src/usbd_ctlreq.c ****       else
 619:Middlewares/ST/STM32_USB_Device_Library/Core/Src/usbd_ctlreq.c ****       {
 620:Middlewares/ST/STM32_USB_Device_Library/Core/Src/usbd_ctlreq.c ****         pdev->dev_state = USBD_STATE_DEFAULT;
 621:Middlewares/ST/STM32_USB_Device_Library/Core/Src/usbd_ctlreq.c ****       }
 622:Middlewares/ST/STM32_USB_Device_Library/Core/Src/usbd_ctlreq.c ****     }
 623:Middlewares/ST/STM32_USB_Device_Library/Core/Src/usbd_ctlreq.c ****   }
 624:Middlewares/ST/STM32_USB_Device_Library/Core/Src/usbd_ctlreq.c ****   else
 625:Middlewares/ST/STM32_USB_Device_Library/Core/Src/usbd_ctlreq.c ****   {
 626:Middlewares/ST/STM32_USB_Device_Library/Core/Src/usbd_ctlreq.c ****     USBD_CtlError(pdev, req);
 627:Middlewares/ST/STM32_USB_Device_Library/Core/Src/usbd_ctlreq.c ****   }
 628:Middlewares/ST/STM32_USB_Device_Library/Core/Src/usbd_ctlreq.c **** }
 629:Middlewares/ST/STM32_USB_Device_Library/Core/Src/usbd_ctlreq.c **** 
 630:Middlewares/ST/STM32_USB_Device_Library/Core/Src/usbd_ctlreq.c **** /**
 631:Middlewares/ST/STM32_USB_Device_Library/Core/Src/usbd_ctlreq.c **** * @brief  USBD_SetConfig
 632:Middlewares/ST/STM32_USB_Device_Library/Core/Src/usbd_ctlreq.c **** *         Handle Set device configuration request
 633:Middlewares/ST/STM32_USB_Device_Library/Core/Src/usbd_ctlreq.c **** * @param  pdev: device instance
 634:Middlewares/ST/STM32_USB_Device_Library/Core/Src/usbd_ctlreq.c **** * @param  req: usb request
 635:Middlewares/ST/STM32_USB_Device_Library/Core/Src/usbd_ctlreq.c **** * @retval status
 636:Middlewares/ST/STM32_USB_Device_Library/Core/Src/usbd_ctlreq.c **** */
 637:Middlewares/ST/STM32_USB_Device_Library/Core/Src/usbd_ctlreq.c **** static void USBD_SetConfig(USBD_HandleTypeDef *pdev, USBD_SetupReqTypedef *req)
 638:Middlewares/ST/STM32_USB_Device_Library/Core/Src/usbd_ctlreq.c **** {
 639:Middlewares/ST/STM32_USB_Device_Library/Core/Src/usbd_ctlreq.c ****   static uint8_t cfgidx;
 640:Middlewares/ST/STM32_USB_Device_Library/Core/Src/usbd_ctlreq.c **** 
 641:Middlewares/ST/STM32_USB_Device_Library/Core/Src/usbd_ctlreq.c ****   cfgidx = (uint8_t)(req->wValue);
 642:Middlewares/ST/STM32_USB_Device_Library/Core/Src/usbd_ctlreq.c **** 
 643:Middlewares/ST/STM32_USB_Device_Library/Core/Src/usbd_ctlreq.c ****   if (cfgidx > USBD_MAX_NUM_CONFIGURATION)
 644:Middlewares/ST/STM32_USB_Device_Library/Core/Src/usbd_ctlreq.c ****   {
 645:Middlewares/ST/STM32_USB_Device_Library/Core/Src/usbd_ctlreq.c ****     USBD_CtlError(pdev, req);
 646:Middlewares/ST/STM32_USB_Device_Library/Core/Src/usbd_ctlreq.c ****   }
 647:Middlewares/ST/STM32_USB_Device_Library/Core/Src/usbd_ctlreq.c ****   else
 648:Middlewares/ST/STM32_USB_Device_Library/Core/Src/usbd_ctlreq.c ****   {
 649:Middlewares/ST/STM32_USB_Device_Library/Core/Src/usbd_ctlreq.c ****     switch (pdev->dev_state)
 650:Middlewares/ST/STM32_USB_Device_Library/Core/Src/usbd_ctlreq.c ****     {
 651:Middlewares/ST/STM32_USB_Device_Library/Core/Src/usbd_ctlreq.c ****       case USBD_STATE_ADDRESSED:
 652:Middlewares/ST/STM32_USB_Device_Library/Core/Src/usbd_ctlreq.c ****         if (cfgidx)
 653:Middlewares/ST/STM32_USB_Device_Library/Core/Src/usbd_ctlreq.c ****         {
 654:Middlewares/ST/STM32_USB_Device_Library/Core/Src/usbd_ctlreq.c ****           pdev->dev_config = cfgidx;
 655:Middlewares/ST/STM32_USB_Device_Library/Core/Src/usbd_ctlreq.c ****           pdev->dev_state = USBD_STATE_CONFIGURED;
 656:Middlewares/ST/STM32_USB_Device_Library/Core/Src/usbd_ctlreq.c ****           if (USBD_SetClassConfig(pdev, cfgidx) == USBD_FAIL)
 657:Middlewares/ST/STM32_USB_Device_Library/Core/Src/usbd_ctlreq.c ****           {
 658:Middlewares/ST/STM32_USB_Device_Library/Core/Src/usbd_ctlreq.c ****             USBD_CtlError(pdev, req);
 659:Middlewares/ST/STM32_USB_Device_Library/Core/Src/usbd_ctlreq.c ****             return;
ARM GAS  /tmp/ccOpGw6B.s 			page 13


 660:Middlewares/ST/STM32_USB_Device_Library/Core/Src/usbd_ctlreq.c ****           }
 661:Middlewares/ST/STM32_USB_Device_Library/Core/Src/usbd_ctlreq.c ****           USBD_CtlSendStatus(pdev);
 662:Middlewares/ST/STM32_USB_Device_Library/Core/Src/usbd_ctlreq.c ****         }
 663:Middlewares/ST/STM32_USB_Device_Library/Core/Src/usbd_ctlreq.c ****         else
 664:Middlewares/ST/STM32_USB_Device_Library/Core/Src/usbd_ctlreq.c ****         {
 665:Middlewares/ST/STM32_USB_Device_Library/Core/Src/usbd_ctlreq.c ****           USBD_CtlSendStatus(pdev);
 666:Middlewares/ST/STM32_USB_Device_Library/Core/Src/usbd_ctlreq.c ****         }
 667:Middlewares/ST/STM32_USB_Device_Library/Core/Src/usbd_ctlreq.c ****         break;
 668:Middlewares/ST/STM32_USB_Device_Library/Core/Src/usbd_ctlreq.c **** 
 669:Middlewares/ST/STM32_USB_Device_Library/Core/Src/usbd_ctlreq.c ****       case USBD_STATE_CONFIGURED:
 670:Middlewares/ST/STM32_USB_Device_Library/Core/Src/usbd_ctlreq.c ****         if (cfgidx == 0U)
 671:Middlewares/ST/STM32_USB_Device_Library/Core/Src/usbd_ctlreq.c ****         {
 672:Middlewares/ST/STM32_USB_Device_Library/Core/Src/usbd_ctlreq.c ****           pdev->dev_state = USBD_STATE_ADDRESSED;
 673:Middlewares/ST/STM32_USB_Device_Library/Core/Src/usbd_ctlreq.c ****           pdev->dev_config = cfgidx;
 674:Middlewares/ST/STM32_USB_Device_Library/Core/Src/usbd_ctlreq.c ****           USBD_ClrClassConfig(pdev, cfgidx);
 675:Middlewares/ST/STM32_USB_Device_Library/Core/Src/usbd_ctlreq.c ****           USBD_CtlSendStatus(pdev);
 676:Middlewares/ST/STM32_USB_Device_Library/Core/Src/usbd_ctlreq.c ****         }
 677:Middlewares/ST/STM32_USB_Device_Library/Core/Src/usbd_ctlreq.c ****         else if (cfgidx != pdev->dev_config)
 678:Middlewares/ST/STM32_USB_Device_Library/Core/Src/usbd_ctlreq.c ****         {
 679:Middlewares/ST/STM32_USB_Device_Library/Core/Src/usbd_ctlreq.c ****           /* Clear old configuration */
 680:Middlewares/ST/STM32_USB_Device_Library/Core/Src/usbd_ctlreq.c ****           USBD_ClrClassConfig(pdev, (uint8_t)pdev->dev_config);
 681:Middlewares/ST/STM32_USB_Device_Library/Core/Src/usbd_ctlreq.c **** 
 682:Middlewares/ST/STM32_USB_Device_Library/Core/Src/usbd_ctlreq.c ****           /* set new configuration */
 683:Middlewares/ST/STM32_USB_Device_Library/Core/Src/usbd_ctlreq.c ****           pdev->dev_config = cfgidx;
 684:Middlewares/ST/STM32_USB_Device_Library/Core/Src/usbd_ctlreq.c ****           if (USBD_SetClassConfig(pdev, cfgidx) == USBD_FAIL)
 685:Middlewares/ST/STM32_USB_Device_Library/Core/Src/usbd_ctlreq.c ****           {
 686:Middlewares/ST/STM32_USB_Device_Library/Core/Src/usbd_ctlreq.c ****             USBD_CtlError(pdev, req);
 687:Middlewares/ST/STM32_USB_Device_Library/Core/Src/usbd_ctlreq.c ****             return;
 688:Middlewares/ST/STM32_USB_Device_Library/Core/Src/usbd_ctlreq.c ****           }
 689:Middlewares/ST/STM32_USB_Device_Library/Core/Src/usbd_ctlreq.c ****           USBD_CtlSendStatus(pdev);
 690:Middlewares/ST/STM32_USB_Device_Library/Core/Src/usbd_ctlreq.c ****         }
 691:Middlewares/ST/STM32_USB_Device_Library/Core/Src/usbd_ctlreq.c ****         else
 692:Middlewares/ST/STM32_USB_Device_Library/Core/Src/usbd_ctlreq.c ****         {
 693:Middlewares/ST/STM32_USB_Device_Library/Core/Src/usbd_ctlreq.c ****           USBD_CtlSendStatus(pdev);
 694:Middlewares/ST/STM32_USB_Device_Library/Core/Src/usbd_ctlreq.c ****         }
 695:Middlewares/ST/STM32_USB_Device_Library/Core/Src/usbd_ctlreq.c ****         break;
 696:Middlewares/ST/STM32_USB_Device_Library/Core/Src/usbd_ctlreq.c **** 
 697:Middlewares/ST/STM32_USB_Device_Library/Core/Src/usbd_ctlreq.c ****       default:
 698:Middlewares/ST/STM32_USB_Device_Library/Core/Src/usbd_ctlreq.c ****         USBD_CtlError(pdev, req);
 699:Middlewares/ST/STM32_USB_Device_Library/Core/Src/usbd_ctlreq.c ****         USBD_ClrClassConfig(pdev, cfgidx);
 700:Middlewares/ST/STM32_USB_Device_Library/Core/Src/usbd_ctlreq.c ****         break;
 701:Middlewares/ST/STM32_USB_Device_Library/Core/Src/usbd_ctlreq.c ****     }
 702:Middlewares/ST/STM32_USB_Device_Library/Core/Src/usbd_ctlreq.c ****   }
 703:Middlewares/ST/STM32_USB_Device_Library/Core/Src/usbd_ctlreq.c **** }
 704:Middlewares/ST/STM32_USB_Device_Library/Core/Src/usbd_ctlreq.c **** 
 705:Middlewares/ST/STM32_USB_Device_Library/Core/Src/usbd_ctlreq.c **** /**
 706:Middlewares/ST/STM32_USB_Device_Library/Core/Src/usbd_ctlreq.c **** * @brief  USBD_GetConfig
 707:Middlewares/ST/STM32_USB_Device_Library/Core/Src/usbd_ctlreq.c **** *         Handle Get device configuration request
 708:Middlewares/ST/STM32_USB_Device_Library/Core/Src/usbd_ctlreq.c **** * @param  pdev: device instance
 709:Middlewares/ST/STM32_USB_Device_Library/Core/Src/usbd_ctlreq.c **** * @param  req: usb request
 710:Middlewares/ST/STM32_USB_Device_Library/Core/Src/usbd_ctlreq.c **** * @retval status
 711:Middlewares/ST/STM32_USB_Device_Library/Core/Src/usbd_ctlreq.c **** */
 712:Middlewares/ST/STM32_USB_Device_Library/Core/Src/usbd_ctlreq.c **** static void USBD_GetConfig(USBD_HandleTypeDef *pdev, USBD_SetupReqTypedef *req)
 713:Middlewares/ST/STM32_USB_Device_Library/Core/Src/usbd_ctlreq.c **** {
 714:Middlewares/ST/STM32_USB_Device_Library/Core/Src/usbd_ctlreq.c ****   if (req->wLength != 1U)
 715:Middlewares/ST/STM32_USB_Device_Library/Core/Src/usbd_ctlreq.c ****   {
 716:Middlewares/ST/STM32_USB_Device_Library/Core/Src/usbd_ctlreq.c ****     USBD_CtlError(pdev, req);
ARM GAS  /tmp/ccOpGw6B.s 			page 14


 717:Middlewares/ST/STM32_USB_Device_Library/Core/Src/usbd_ctlreq.c ****   }
 718:Middlewares/ST/STM32_USB_Device_Library/Core/Src/usbd_ctlreq.c ****   else
 719:Middlewares/ST/STM32_USB_Device_Library/Core/Src/usbd_ctlreq.c ****   {
 720:Middlewares/ST/STM32_USB_Device_Library/Core/Src/usbd_ctlreq.c ****     switch (pdev->dev_state)
 721:Middlewares/ST/STM32_USB_Device_Library/Core/Src/usbd_ctlreq.c ****     {
 722:Middlewares/ST/STM32_USB_Device_Library/Core/Src/usbd_ctlreq.c ****       case USBD_STATE_DEFAULT:
 723:Middlewares/ST/STM32_USB_Device_Library/Core/Src/usbd_ctlreq.c ****       case USBD_STATE_ADDRESSED:
 724:Middlewares/ST/STM32_USB_Device_Library/Core/Src/usbd_ctlreq.c ****         pdev->dev_default_config = 0U;
 725:Middlewares/ST/STM32_USB_Device_Library/Core/Src/usbd_ctlreq.c ****         USBD_CtlSendData(pdev, (uint8_t *)(void *)&pdev->dev_default_config, 1U);
 726:Middlewares/ST/STM32_USB_Device_Library/Core/Src/usbd_ctlreq.c ****         break;
 727:Middlewares/ST/STM32_USB_Device_Library/Core/Src/usbd_ctlreq.c **** 
 728:Middlewares/ST/STM32_USB_Device_Library/Core/Src/usbd_ctlreq.c ****       case USBD_STATE_CONFIGURED:
 729:Middlewares/ST/STM32_USB_Device_Library/Core/Src/usbd_ctlreq.c ****         USBD_CtlSendData(pdev, (uint8_t *)(void *)&pdev->dev_config, 1U);
 730:Middlewares/ST/STM32_USB_Device_Library/Core/Src/usbd_ctlreq.c ****         break;
 731:Middlewares/ST/STM32_USB_Device_Library/Core/Src/usbd_ctlreq.c **** 
 732:Middlewares/ST/STM32_USB_Device_Library/Core/Src/usbd_ctlreq.c ****       default:
 733:Middlewares/ST/STM32_USB_Device_Library/Core/Src/usbd_ctlreq.c ****         USBD_CtlError(pdev, req);
 734:Middlewares/ST/STM32_USB_Device_Library/Core/Src/usbd_ctlreq.c ****         break;
 735:Middlewares/ST/STM32_USB_Device_Library/Core/Src/usbd_ctlreq.c ****     }
 736:Middlewares/ST/STM32_USB_Device_Library/Core/Src/usbd_ctlreq.c ****   }
 737:Middlewares/ST/STM32_USB_Device_Library/Core/Src/usbd_ctlreq.c **** }
 738:Middlewares/ST/STM32_USB_Device_Library/Core/Src/usbd_ctlreq.c **** 
 739:Middlewares/ST/STM32_USB_Device_Library/Core/Src/usbd_ctlreq.c **** /**
 740:Middlewares/ST/STM32_USB_Device_Library/Core/Src/usbd_ctlreq.c **** * @brief  USBD_GetStatus
 741:Middlewares/ST/STM32_USB_Device_Library/Core/Src/usbd_ctlreq.c **** *         Handle Get Status request
 742:Middlewares/ST/STM32_USB_Device_Library/Core/Src/usbd_ctlreq.c **** * @param  pdev: device instance
 743:Middlewares/ST/STM32_USB_Device_Library/Core/Src/usbd_ctlreq.c **** * @param  req: usb request
 744:Middlewares/ST/STM32_USB_Device_Library/Core/Src/usbd_ctlreq.c **** * @retval status
 745:Middlewares/ST/STM32_USB_Device_Library/Core/Src/usbd_ctlreq.c **** */
 746:Middlewares/ST/STM32_USB_Device_Library/Core/Src/usbd_ctlreq.c **** static void USBD_GetStatus(USBD_HandleTypeDef *pdev, USBD_SetupReqTypedef *req)
 747:Middlewares/ST/STM32_USB_Device_Library/Core/Src/usbd_ctlreq.c **** {
 748:Middlewares/ST/STM32_USB_Device_Library/Core/Src/usbd_ctlreq.c ****   switch (pdev->dev_state)
 749:Middlewares/ST/STM32_USB_Device_Library/Core/Src/usbd_ctlreq.c ****   {
 750:Middlewares/ST/STM32_USB_Device_Library/Core/Src/usbd_ctlreq.c ****     case USBD_STATE_DEFAULT:
 751:Middlewares/ST/STM32_USB_Device_Library/Core/Src/usbd_ctlreq.c ****     case USBD_STATE_ADDRESSED:
 752:Middlewares/ST/STM32_USB_Device_Library/Core/Src/usbd_ctlreq.c ****     case USBD_STATE_CONFIGURED:
 753:Middlewares/ST/STM32_USB_Device_Library/Core/Src/usbd_ctlreq.c ****       if (req->wLength != 0x2U)
 754:Middlewares/ST/STM32_USB_Device_Library/Core/Src/usbd_ctlreq.c ****       {
 755:Middlewares/ST/STM32_USB_Device_Library/Core/Src/usbd_ctlreq.c ****         USBD_CtlError(pdev, req);
 756:Middlewares/ST/STM32_USB_Device_Library/Core/Src/usbd_ctlreq.c ****         break;
 757:Middlewares/ST/STM32_USB_Device_Library/Core/Src/usbd_ctlreq.c ****       }
 758:Middlewares/ST/STM32_USB_Device_Library/Core/Src/usbd_ctlreq.c **** 
 759:Middlewares/ST/STM32_USB_Device_Library/Core/Src/usbd_ctlreq.c **** #if (USBD_SELF_POWERED == 1U)
 760:Middlewares/ST/STM32_USB_Device_Library/Core/Src/usbd_ctlreq.c ****       pdev->dev_config_status = USB_CONFIG_SELF_POWERED;
 761:Middlewares/ST/STM32_USB_Device_Library/Core/Src/usbd_ctlreq.c **** #else
 762:Middlewares/ST/STM32_USB_Device_Library/Core/Src/usbd_ctlreq.c ****       pdev->dev_config_status = 0U;
 763:Middlewares/ST/STM32_USB_Device_Library/Core/Src/usbd_ctlreq.c **** #endif
 764:Middlewares/ST/STM32_USB_Device_Library/Core/Src/usbd_ctlreq.c **** 
 765:Middlewares/ST/STM32_USB_Device_Library/Core/Src/usbd_ctlreq.c ****       if (pdev->dev_remote_wakeup)
 766:Middlewares/ST/STM32_USB_Device_Library/Core/Src/usbd_ctlreq.c ****       {
 767:Middlewares/ST/STM32_USB_Device_Library/Core/Src/usbd_ctlreq.c ****         pdev->dev_config_status |= USB_CONFIG_REMOTE_WAKEUP;
 768:Middlewares/ST/STM32_USB_Device_Library/Core/Src/usbd_ctlreq.c ****       }
 769:Middlewares/ST/STM32_USB_Device_Library/Core/Src/usbd_ctlreq.c **** 
 770:Middlewares/ST/STM32_USB_Device_Library/Core/Src/usbd_ctlreq.c ****       USBD_CtlSendData(pdev, (uint8_t *)(void *)&pdev->dev_config_status, 2U);
 771:Middlewares/ST/STM32_USB_Device_Library/Core/Src/usbd_ctlreq.c ****       break;
 772:Middlewares/ST/STM32_USB_Device_Library/Core/Src/usbd_ctlreq.c **** 
 773:Middlewares/ST/STM32_USB_Device_Library/Core/Src/usbd_ctlreq.c ****     default:
ARM GAS  /tmp/ccOpGw6B.s 			page 15


 774:Middlewares/ST/STM32_USB_Device_Library/Core/Src/usbd_ctlreq.c ****       USBD_CtlError(pdev, req);
 775:Middlewares/ST/STM32_USB_Device_Library/Core/Src/usbd_ctlreq.c ****       break;
 776:Middlewares/ST/STM32_USB_Device_Library/Core/Src/usbd_ctlreq.c ****   }
 777:Middlewares/ST/STM32_USB_Device_Library/Core/Src/usbd_ctlreq.c **** }
 778:Middlewares/ST/STM32_USB_Device_Library/Core/Src/usbd_ctlreq.c **** 
 779:Middlewares/ST/STM32_USB_Device_Library/Core/Src/usbd_ctlreq.c **** 
 780:Middlewares/ST/STM32_USB_Device_Library/Core/Src/usbd_ctlreq.c **** /**
 781:Middlewares/ST/STM32_USB_Device_Library/Core/Src/usbd_ctlreq.c **** * @brief  USBD_SetFeature
 782:Middlewares/ST/STM32_USB_Device_Library/Core/Src/usbd_ctlreq.c **** *         Handle Set device feature request
 783:Middlewares/ST/STM32_USB_Device_Library/Core/Src/usbd_ctlreq.c **** * @param  pdev: device instance
 784:Middlewares/ST/STM32_USB_Device_Library/Core/Src/usbd_ctlreq.c **** * @param  req: usb request
 785:Middlewares/ST/STM32_USB_Device_Library/Core/Src/usbd_ctlreq.c **** * @retval status
 786:Middlewares/ST/STM32_USB_Device_Library/Core/Src/usbd_ctlreq.c **** */
 787:Middlewares/ST/STM32_USB_Device_Library/Core/Src/usbd_ctlreq.c **** static void USBD_SetFeature(USBD_HandleTypeDef *pdev,
 788:Middlewares/ST/STM32_USB_Device_Library/Core/Src/usbd_ctlreq.c ****                             USBD_SetupReqTypedef *req)
 789:Middlewares/ST/STM32_USB_Device_Library/Core/Src/usbd_ctlreq.c **** {
 790:Middlewares/ST/STM32_USB_Device_Library/Core/Src/usbd_ctlreq.c ****   if (req->wValue == USB_FEATURE_REMOTE_WAKEUP)
 791:Middlewares/ST/STM32_USB_Device_Library/Core/Src/usbd_ctlreq.c ****   {
 792:Middlewares/ST/STM32_USB_Device_Library/Core/Src/usbd_ctlreq.c ****     pdev->dev_remote_wakeup = 1U;
 793:Middlewares/ST/STM32_USB_Device_Library/Core/Src/usbd_ctlreq.c ****     USBD_CtlSendStatus(pdev);
 794:Middlewares/ST/STM32_USB_Device_Library/Core/Src/usbd_ctlreq.c ****   }
 795:Middlewares/ST/STM32_USB_Device_Library/Core/Src/usbd_ctlreq.c **** }
 796:Middlewares/ST/STM32_USB_Device_Library/Core/Src/usbd_ctlreq.c **** 
 797:Middlewares/ST/STM32_USB_Device_Library/Core/Src/usbd_ctlreq.c **** 
 798:Middlewares/ST/STM32_USB_Device_Library/Core/Src/usbd_ctlreq.c **** /**
 799:Middlewares/ST/STM32_USB_Device_Library/Core/Src/usbd_ctlreq.c **** * @brief  USBD_ClrFeature
 800:Middlewares/ST/STM32_USB_Device_Library/Core/Src/usbd_ctlreq.c **** *         Handle clear device feature request
 801:Middlewares/ST/STM32_USB_Device_Library/Core/Src/usbd_ctlreq.c **** * @param  pdev: device instance
 802:Middlewares/ST/STM32_USB_Device_Library/Core/Src/usbd_ctlreq.c **** * @param  req: usb request
 803:Middlewares/ST/STM32_USB_Device_Library/Core/Src/usbd_ctlreq.c **** * @retval status
 804:Middlewares/ST/STM32_USB_Device_Library/Core/Src/usbd_ctlreq.c **** */
 805:Middlewares/ST/STM32_USB_Device_Library/Core/Src/usbd_ctlreq.c **** static void USBD_ClrFeature(USBD_HandleTypeDef *pdev,
 806:Middlewares/ST/STM32_USB_Device_Library/Core/Src/usbd_ctlreq.c ****                             USBD_SetupReqTypedef *req)
 807:Middlewares/ST/STM32_USB_Device_Library/Core/Src/usbd_ctlreq.c **** {
 808:Middlewares/ST/STM32_USB_Device_Library/Core/Src/usbd_ctlreq.c ****   switch (pdev->dev_state)
 809:Middlewares/ST/STM32_USB_Device_Library/Core/Src/usbd_ctlreq.c ****   {
 810:Middlewares/ST/STM32_USB_Device_Library/Core/Src/usbd_ctlreq.c ****     case USBD_STATE_DEFAULT:
 811:Middlewares/ST/STM32_USB_Device_Library/Core/Src/usbd_ctlreq.c ****     case USBD_STATE_ADDRESSED:
 812:Middlewares/ST/STM32_USB_Device_Library/Core/Src/usbd_ctlreq.c ****     case USBD_STATE_CONFIGURED:
 813:Middlewares/ST/STM32_USB_Device_Library/Core/Src/usbd_ctlreq.c ****       if (req->wValue == USB_FEATURE_REMOTE_WAKEUP)
 814:Middlewares/ST/STM32_USB_Device_Library/Core/Src/usbd_ctlreq.c ****       {
 815:Middlewares/ST/STM32_USB_Device_Library/Core/Src/usbd_ctlreq.c ****         pdev->dev_remote_wakeup = 0U;
 816:Middlewares/ST/STM32_USB_Device_Library/Core/Src/usbd_ctlreq.c ****         USBD_CtlSendStatus(pdev);
 817:Middlewares/ST/STM32_USB_Device_Library/Core/Src/usbd_ctlreq.c ****       }
 818:Middlewares/ST/STM32_USB_Device_Library/Core/Src/usbd_ctlreq.c ****       break;
 819:Middlewares/ST/STM32_USB_Device_Library/Core/Src/usbd_ctlreq.c **** 
 820:Middlewares/ST/STM32_USB_Device_Library/Core/Src/usbd_ctlreq.c ****     default:
 821:Middlewares/ST/STM32_USB_Device_Library/Core/Src/usbd_ctlreq.c ****       USBD_CtlError(pdev, req);
 822:Middlewares/ST/STM32_USB_Device_Library/Core/Src/usbd_ctlreq.c ****       break;
 823:Middlewares/ST/STM32_USB_Device_Library/Core/Src/usbd_ctlreq.c ****   }
 824:Middlewares/ST/STM32_USB_Device_Library/Core/Src/usbd_ctlreq.c **** }
 825:Middlewares/ST/STM32_USB_Device_Library/Core/Src/usbd_ctlreq.c **** 
 826:Middlewares/ST/STM32_USB_Device_Library/Core/Src/usbd_ctlreq.c **** /**
 827:Middlewares/ST/STM32_USB_Device_Library/Core/Src/usbd_ctlreq.c **** * @brief  USBD_ParseSetupRequest
 828:Middlewares/ST/STM32_USB_Device_Library/Core/Src/usbd_ctlreq.c **** *         Copy buffer into setup structure
 829:Middlewares/ST/STM32_USB_Device_Library/Core/Src/usbd_ctlreq.c **** * @param  pdev: device instance
 830:Middlewares/ST/STM32_USB_Device_Library/Core/Src/usbd_ctlreq.c **** * @param  req: usb request
ARM GAS  /tmp/ccOpGw6B.s 			page 16


 831:Middlewares/ST/STM32_USB_Device_Library/Core/Src/usbd_ctlreq.c **** * @retval None
 832:Middlewares/ST/STM32_USB_Device_Library/Core/Src/usbd_ctlreq.c **** */
 833:Middlewares/ST/STM32_USB_Device_Library/Core/Src/usbd_ctlreq.c **** 
 834:Middlewares/ST/STM32_USB_Device_Library/Core/Src/usbd_ctlreq.c **** void USBD_ParseSetupRequest(USBD_SetupReqTypedef *req, uint8_t *pdata)
 835:Middlewares/ST/STM32_USB_Device_Library/Core/Src/usbd_ctlreq.c **** {
 836:Middlewares/ST/STM32_USB_Device_Library/Core/Src/usbd_ctlreq.c ****   req->bmRequest = *(uint8_t *)(pdata);
 837:Middlewares/ST/STM32_USB_Device_Library/Core/Src/usbd_ctlreq.c ****   req->bRequest = *(uint8_t *)(pdata + 1U);
 838:Middlewares/ST/STM32_USB_Device_Library/Core/Src/usbd_ctlreq.c ****   req->wValue = SWAPBYTE(pdata + 2U);
 839:Middlewares/ST/STM32_USB_Device_Library/Core/Src/usbd_ctlreq.c ****   req->wIndex = SWAPBYTE(pdata + 4U);
 840:Middlewares/ST/STM32_USB_Device_Library/Core/Src/usbd_ctlreq.c ****   req->wLength = SWAPBYTE(pdata + 6U);
 841:Middlewares/ST/STM32_USB_Device_Library/Core/Src/usbd_ctlreq.c **** 
 842:Middlewares/ST/STM32_USB_Device_Library/Core/Src/usbd_ctlreq.c **** }
 843:Middlewares/ST/STM32_USB_Device_Library/Core/Src/usbd_ctlreq.c **** 
 844:Middlewares/ST/STM32_USB_Device_Library/Core/Src/usbd_ctlreq.c **** /**
 845:Middlewares/ST/STM32_USB_Device_Library/Core/Src/usbd_ctlreq.c **** * @brief  USBD_CtlError
 846:Middlewares/ST/STM32_USB_Device_Library/Core/Src/usbd_ctlreq.c **** *         Handle USB low level Error
 847:Middlewares/ST/STM32_USB_Device_Library/Core/Src/usbd_ctlreq.c **** * @param  pdev: device instance
 848:Middlewares/ST/STM32_USB_Device_Library/Core/Src/usbd_ctlreq.c **** * @param  req: usb request
 849:Middlewares/ST/STM32_USB_Device_Library/Core/Src/usbd_ctlreq.c **** * @retval None
 850:Middlewares/ST/STM32_USB_Device_Library/Core/Src/usbd_ctlreq.c **** */
 851:Middlewares/ST/STM32_USB_Device_Library/Core/Src/usbd_ctlreq.c **** 
 852:Middlewares/ST/STM32_USB_Device_Library/Core/Src/usbd_ctlreq.c **** void USBD_CtlError(USBD_HandleTypeDef *pdev,
 853:Middlewares/ST/STM32_USB_Device_Library/Core/Src/usbd_ctlreq.c ****                    USBD_SetupReqTypedef *req)
 854:Middlewares/ST/STM32_USB_Device_Library/Core/Src/usbd_ctlreq.c **** {
 855:Middlewares/ST/STM32_USB_Device_Library/Core/Src/usbd_ctlreq.c ****   USBD_LL_StallEP(pdev, 0x80U);
 856:Middlewares/ST/STM32_USB_Device_Library/Core/Src/usbd_ctlreq.c ****   USBD_LL_StallEP(pdev, 0U);
 857:Middlewares/ST/STM32_USB_Device_Library/Core/Src/usbd_ctlreq.c **** }
 858:Middlewares/ST/STM32_USB_Device_Library/Core/Src/usbd_ctlreq.c **** 
 859:Middlewares/ST/STM32_USB_Device_Library/Core/Src/usbd_ctlreq.c **** 
 860:Middlewares/ST/STM32_USB_Device_Library/Core/Src/usbd_ctlreq.c **** /**
 861:Middlewares/ST/STM32_USB_Device_Library/Core/Src/usbd_ctlreq.c ****   * @brief  USBD_GetString
 862:Middlewares/ST/STM32_USB_Device_Library/Core/Src/usbd_ctlreq.c ****   *         Convert Ascii string into unicode one
 863:Middlewares/ST/STM32_USB_Device_Library/Core/Src/usbd_ctlreq.c ****   * @param  desc : descriptor buffer
 864:Middlewares/ST/STM32_USB_Device_Library/Core/Src/usbd_ctlreq.c ****   * @param  unicode : Formatted string buffer (unicode)
 865:Middlewares/ST/STM32_USB_Device_Library/Core/Src/usbd_ctlreq.c ****   * @param  len : descriptor length
 866:Middlewares/ST/STM32_USB_Device_Library/Core/Src/usbd_ctlreq.c ****   * @retval None
 867:Middlewares/ST/STM32_USB_Device_Library/Core/Src/usbd_ctlreq.c ****   */
 868:Middlewares/ST/STM32_USB_Device_Library/Core/Src/usbd_ctlreq.c **** void USBD_GetString(uint8_t *desc, uint8_t *unicode, uint16_t *len)
 869:Middlewares/ST/STM32_USB_Device_Library/Core/Src/usbd_ctlreq.c **** {
 870:Middlewares/ST/STM32_USB_Device_Library/Core/Src/usbd_ctlreq.c ****   uint8_t idx = 0U;
 871:Middlewares/ST/STM32_USB_Device_Library/Core/Src/usbd_ctlreq.c **** 
 872:Middlewares/ST/STM32_USB_Device_Library/Core/Src/usbd_ctlreq.c ****   if (desc != NULL)
 873:Middlewares/ST/STM32_USB_Device_Library/Core/Src/usbd_ctlreq.c ****   {
 874:Middlewares/ST/STM32_USB_Device_Library/Core/Src/usbd_ctlreq.c ****     *len = (uint16_t)USBD_GetLen(desc) * 2U + 2U;
 875:Middlewares/ST/STM32_USB_Device_Library/Core/Src/usbd_ctlreq.c ****     unicode[idx++] = *(uint8_t *)(void *)len;
 876:Middlewares/ST/STM32_USB_Device_Library/Core/Src/usbd_ctlreq.c ****     unicode[idx++] = USB_DESC_TYPE_STRING;
 877:Middlewares/ST/STM32_USB_Device_Library/Core/Src/usbd_ctlreq.c **** 
 878:Middlewares/ST/STM32_USB_Device_Library/Core/Src/usbd_ctlreq.c ****     while (*desc != '\0')
 879:Middlewares/ST/STM32_USB_Device_Library/Core/Src/usbd_ctlreq.c ****     {
 880:Middlewares/ST/STM32_USB_Device_Library/Core/Src/usbd_ctlreq.c ****       unicode[idx++] = *desc++;
 881:Middlewares/ST/STM32_USB_Device_Library/Core/Src/usbd_ctlreq.c ****       unicode[idx++] =  0U;
 882:Middlewares/ST/STM32_USB_Device_Library/Core/Src/usbd_ctlreq.c ****     }
 883:Middlewares/ST/STM32_USB_Device_Library/Core/Src/usbd_ctlreq.c ****   }
 884:Middlewares/ST/STM32_USB_Device_Library/Core/Src/usbd_ctlreq.c **** }
 885:Middlewares/ST/STM32_USB_Device_Library/Core/Src/usbd_ctlreq.c **** 
 886:Middlewares/ST/STM32_USB_Device_Library/Core/Src/usbd_ctlreq.c **** /**
 887:Middlewares/ST/STM32_USB_Device_Library/Core/Src/usbd_ctlreq.c ****   * @brief  USBD_GetLen
ARM GAS  /tmp/ccOpGw6B.s 			page 17


 888:Middlewares/ST/STM32_USB_Device_Library/Core/Src/usbd_ctlreq.c ****   *         return the string length
 889:Middlewares/ST/STM32_USB_Device_Library/Core/Src/usbd_ctlreq.c ****    * @param  buf : pointer to the ascii string buffer
 890:Middlewares/ST/STM32_USB_Device_Library/Core/Src/usbd_ctlreq.c ****   * @retval string length
 891:Middlewares/ST/STM32_USB_Device_Library/Core/Src/usbd_ctlreq.c ****   */
 892:Middlewares/ST/STM32_USB_Device_Library/Core/Src/usbd_ctlreq.c **** static uint8_t USBD_GetLen(uint8_t *buf)
 893:Middlewares/ST/STM32_USB_Device_Library/Core/Src/usbd_ctlreq.c **** {
  27              		.loc 1 893 1 view -0
  28              		.cfi_startproc
  29              		@ args = 0, pretend = 0, frame = 0
  30              		@ frame_needed = 0, uses_anonymous_args = 0
  31              		@ link register save eliminated.
  32              		.loc 1 893 1 is_stmt 0 view .LVU1
  33 0000 0300     		movs	r3, r0
 894:Middlewares/ST/STM32_USB_Device_Library/Core/Src/usbd_ctlreq.c ****   uint8_t  len = 0U;
  34              		.loc 1 894 3 is_stmt 1 view .LVU2
  35              	.LVL1:
 895:Middlewares/ST/STM32_USB_Device_Library/Core/Src/usbd_ctlreq.c **** 
 896:Middlewares/ST/STM32_USB_Device_Library/Core/Src/usbd_ctlreq.c ****   while (*buf != '\0')
  36              		.loc 1 896 3 view .LVU3
 894:Middlewares/ST/STM32_USB_Device_Library/Core/Src/usbd_ctlreq.c ****   uint8_t  len = 0U;
  37              		.loc 1 894 12 is_stmt 0 view .LVU4
  38 0002 0020     		movs	r0, #0
  39              	.LVL2:
  40              	.L2:
  41              		.loc 1 896 9 is_stmt 1 view .LVU5
  42              		.loc 1 896 10 is_stmt 0 view .LVU6
  43 0004 1A78     		ldrb	r2, [r3]
  44              		.loc 1 896 9 view .LVU7
  45 0006 002A     		cmp	r2, #0
  46 0008 03D0     		beq	.L4
 897:Middlewares/ST/STM32_USB_Device_Library/Core/Src/usbd_ctlreq.c ****   {
 898:Middlewares/ST/STM32_USB_Device_Library/Core/Src/usbd_ctlreq.c ****     len++;
  47              		.loc 1 898 5 is_stmt 1 view .LVU8
  48              		.loc 1 898 8 is_stmt 0 view .LVU9
  49 000a 0130     		adds	r0, r0, #1
  50              	.LVL3:
  51              		.loc 1 898 8 view .LVU10
  52 000c C0B2     		uxtb	r0, r0
  53              	.LVL4:
 899:Middlewares/ST/STM32_USB_Device_Library/Core/Src/usbd_ctlreq.c ****     buf++;
  54              		.loc 1 899 5 is_stmt 1 view .LVU11
  55              		.loc 1 899 8 is_stmt 0 view .LVU12
  56 000e 0133     		adds	r3, r3, #1
  57              	.LVL5:
  58              		.loc 1 899 8 view .LVU13
  59 0010 F8E7     		b	.L2
  60              	.L4:
 900:Middlewares/ST/STM32_USB_Device_Library/Core/Src/usbd_ctlreq.c ****   }
 901:Middlewares/ST/STM32_USB_Device_Library/Core/Src/usbd_ctlreq.c **** 
 902:Middlewares/ST/STM32_USB_Device_Library/Core/Src/usbd_ctlreq.c ****   return len;
 903:Middlewares/ST/STM32_USB_Device_Library/Core/Src/usbd_ctlreq.c **** }
  61              		.loc 1 903 1 view .LVU14
  62              		@ sp needed
  63 0012 7047     		bx	lr
  64              		.cfi_endproc
  65              	.LFE56:
  67              		.section	.text.USBD_SetFeature,"ax",%progbits
ARM GAS  /tmp/ccOpGw6B.s 			page 18


  68              		.align	1
  69              		.syntax unified
  70              		.code	16
  71              		.thumb_func
  72              		.fpu softvfp
  74              	USBD_SetFeature:
  75              	.LVL6:
  76              	.LFB51:
 789:Middlewares/ST/STM32_USB_Device_Library/Core/Src/usbd_ctlreq.c ****   if (req->wValue == USB_FEATURE_REMOTE_WAKEUP)
  77              		.loc 1 789 1 is_stmt 1 view -0
  78              		.cfi_startproc
  79              		@ args = 0, pretend = 0, frame = 0
  80              		@ frame_needed = 0, uses_anonymous_args = 0
 789:Middlewares/ST/STM32_USB_Device_Library/Core/Src/usbd_ctlreq.c ****   if (req->wValue == USB_FEATURE_REMOTE_WAKEUP)
  81              		.loc 1 789 1 is_stmt 0 view .LVU16
  82 0000 10B5     		push	{r4, lr}
  83              	.LCFI0:
  84              		.cfi_def_cfa_offset 8
  85              		.cfi_offset 4, -8
  86              		.cfi_offset 14, -4
 790:Middlewares/ST/STM32_USB_Device_Library/Core/Src/usbd_ctlreq.c ****   {
  87              		.loc 1 790 3 is_stmt 1 view .LVU17
 790:Middlewares/ST/STM32_USB_Device_Library/Core/Src/usbd_ctlreq.c ****   {
  88              		.loc 1 790 10 is_stmt 0 view .LVU18
  89 0002 4B88     		ldrh	r3, [r1, #2]
 790:Middlewares/ST/STM32_USB_Device_Library/Core/Src/usbd_ctlreq.c ****   {
  90              		.loc 1 790 6 view .LVU19
  91 0004 012B     		cmp	r3, #1
  92 0006 00D0     		beq	.L7
  93              	.LVL7:
  94              	.L5:
 795:Middlewares/ST/STM32_USB_Device_Library/Core/Src/usbd_ctlreq.c **** 
  95              		.loc 1 795 1 view .LVU20
  96              		@ sp needed
  97 0008 10BD     		pop	{r4, pc}
  98              	.LVL8:
  99              	.L7:
 792:Middlewares/ST/STM32_USB_Device_Library/Core/Src/usbd_ctlreq.c ****     USBD_CtlSendStatus(pdev);
 100              		.loc 1 792 5 is_stmt 1 view .LVU21
 792:Middlewares/ST/STM32_USB_Device_Library/Core/Src/usbd_ctlreq.c ****     USBD_CtlSendStatus(pdev);
 101              		.loc 1 792 29 is_stmt 0 view .LVU22
 102 000a A923     		movs	r3, #169
 103 000c 9B00     		lsls	r3, r3, #2
 104 000e 0122     		movs	r2, #1
 105 0010 C250     		str	r2, [r0, r3]
 793:Middlewares/ST/STM32_USB_Device_Library/Core/Src/usbd_ctlreq.c ****   }
 106              		.loc 1 793 5 is_stmt 1 view .LVU23
 107 0012 FFF7FEFF 		bl	USBD_CtlSendStatus
 108              	.LVL9:
 795:Middlewares/ST/STM32_USB_Device_Library/Core/Src/usbd_ctlreq.c **** 
 109              		.loc 1 795 1 is_stmt 0 view .LVU24
 110 0016 F7E7     		b	.L5
 111              		.cfi_endproc
 112              	.LFE51:
 114              		.section	.text.USBD_ParseSetupRequest,"ax",%progbits
 115              		.align	1
 116              		.global	USBD_ParseSetupRequest
ARM GAS  /tmp/ccOpGw6B.s 			page 19


 117              		.syntax unified
 118              		.code	16
 119              		.thumb_func
 120              		.fpu softvfp
 122              	USBD_ParseSetupRequest:
 123              	.LVL10:
 124              	.LFB53:
 835:Middlewares/ST/STM32_USB_Device_Library/Core/Src/usbd_ctlreq.c ****   req->bmRequest = *(uint8_t *)(pdata);
 125              		.loc 1 835 1 is_stmt 1 view -0
 126              		.cfi_startproc
 127              		@ args = 0, pretend = 0, frame = 0
 128              		@ frame_needed = 0, uses_anonymous_args = 0
 129              		@ link register save eliminated.
 836:Middlewares/ST/STM32_USB_Device_Library/Core/Src/usbd_ctlreq.c ****   req->bRequest = *(uint8_t *)(pdata + 1U);
 130              		.loc 1 836 3 view .LVU26
 836:Middlewares/ST/STM32_USB_Device_Library/Core/Src/usbd_ctlreq.c ****   req->bRequest = *(uint8_t *)(pdata + 1U);
 131              		.loc 1 836 20 is_stmt 0 view .LVU27
 132 0000 0B78     		ldrb	r3, [r1]
 836:Middlewares/ST/STM32_USB_Device_Library/Core/Src/usbd_ctlreq.c ****   req->bRequest = *(uint8_t *)(pdata + 1U);
 133              		.loc 1 836 18 view .LVU28
 134 0002 0370     		strb	r3, [r0]
 837:Middlewares/ST/STM32_USB_Device_Library/Core/Src/usbd_ctlreq.c ****   req->wValue = SWAPBYTE(pdata + 2U);
 135              		.loc 1 837 3 is_stmt 1 view .LVU29
 837:Middlewares/ST/STM32_USB_Device_Library/Core/Src/usbd_ctlreq.c ****   req->wValue = SWAPBYTE(pdata + 2U);
 136              		.loc 1 837 17 is_stmt 0 view .LVU30
 137 0004 4B78     		ldrb	r3, [r1, #1]
 138 0006 4370     		strb	r3, [r0, #1]
 838:Middlewares/ST/STM32_USB_Device_Library/Core/Src/usbd_ctlreq.c ****   req->wIndex = SWAPBYTE(pdata + 4U);
 139              		.loc 1 838 3 is_stmt 1 view .LVU31
 838:Middlewares/ST/STM32_USB_Device_Library/Core/Src/usbd_ctlreq.c ****   req->wIndex = SWAPBYTE(pdata + 4U);
 140              		.loc 1 838 17 is_stmt 0 view .LVU32
 141 0008 8B78     		ldrb	r3, [r1, #2]
 142 000a CA78     		ldrb	r2, [r1, #3]
 143 000c 1202     		lsls	r2, r2, #8
 144 000e 9B18     		adds	r3, r3, r2
 838:Middlewares/ST/STM32_USB_Device_Library/Core/Src/usbd_ctlreq.c ****   req->wIndex = SWAPBYTE(pdata + 4U);
 145              		.loc 1 838 15 view .LVU33
 146 0010 4380     		strh	r3, [r0, #2]
 839:Middlewares/ST/STM32_USB_Device_Library/Core/Src/usbd_ctlreq.c ****   req->wLength = SWAPBYTE(pdata + 6U);
 147              		.loc 1 839 3 is_stmt 1 view .LVU34
 839:Middlewares/ST/STM32_USB_Device_Library/Core/Src/usbd_ctlreq.c ****   req->wLength = SWAPBYTE(pdata + 6U);
 148              		.loc 1 839 17 is_stmt 0 view .LVU35
 149 0012 0B79     		ldrb	r3, [r1, #4]
 150 0014 4A79     		ldrb	r2, [r1, #5]
 151 0016 1202     		lsls	r2, r2, #8
 152 0018 9B18     		adds	r3, r3, r2
 839:Middlewares/ST/STM32_USB_Device_Library/Core/Src/usbd_ctlreq.c ****   req->wLength = SWAPBYTE(pdata + 6U);
 153              		.loc 1 839 15 view .LVU36
 154 001a 8380     		strh	r3, [r0, #4]
 840:Middlewares/ST/STM32_USB_Device_Library/Core/Src/usbd_ctlreq.c **** 
 155              		.loc 1 840 3 is_stmt 1 view .LVU37
 840:Middlewares/ST/STM32_USB_Device_Library/Core/Src/usbd_ctlreq.c **** 
 156              		.loc 1 840 18 is_stmt 0 view .LVU38
 157 001c 8B79     		ldrb	r3, [r1, #6]
 158 001e CA79     		ldrb	r2, [r1, #7]
 159 0020 1202     		lsls	r2, r2, #8
 160 0022 9B18     		adds	r3, r3, r2
ARM GAS  /tmp/ccOpGw6B.s 			page 20


 840:Middlewares/ST/STM32_USB_Device_Library/Core/Src/usbd_ctlreq.c **** 
 161              		.loc 1 840 16 view .LVU39
 162 0024 C380     		strh	r3, [r0, #6]
 842:Middlewares/ST/STM32_USB_Device_Library/Core/Src/usbd_ctlreq.c **** 
 163              		.loc 1 842 1 view .LVU40
 164              		@ sp needed
 165 0026 7047     		bx	lr
 166              		.cfi_endproc
 167              	.LFE53:
 169              		.section	.text.USBD_CtlError,"ax",%progbits
 170              		.align	1
 171              		.global	USBD_CtlError
 172              		.syntax unified
 173              		.code	16
 174              		.thumb_func
 175              		.fpu softvfp
 177              	USBD_CtlError:
 178              	.LVL11:
 179              	.LFB54:
 854:Middlewares/ST/STM32_USB_Device_Library/Core/Src/usbd_ctlreq.c ****   USBD_LL_StallEP(pdev, 0x80U);
 180              		.loc 1 854 1 is_stmt 1 view -0
 181              		.cfi_startproc
 182              		@ args = 0, pretend = 0, frame = 0
 183              		@ frame_needed = 0, uses_anonymous_args = 0
 854:Middlewares/ST/STM32_USB_Device_Library/Core/Src/usbd_ctlreq.c ****   USBD_LL_StallEP(pdev, 0x80U);
 184              		.loc 1 854 1 is_stmt 0 view .LVU42
 185 0000 10B5     		push	{r4, lr}
 186              	.LCFI1:
 187              		.cfi_def_cfa_offset 8
 188              		.cfi_offset 4, -8
 189              		.cfi_offset 14, -4
 190 0002 0400     		movs	r4, r0
 855:Middlewares/ST/STM32_USB_Device_Library/Core/Src/usbd_ctlreq.c ****   USBD_LL_StallEP(pdev, 0U);
 191              		.loc 1 855 3 is_stmt 1 view .LVU43
 192 0004 8021     		movs	r1, #128
 193              	.LVL12:
 855:Middlewares/ST/STM32_USB_Device_Library/Core/Src/usbd_ctlreq.c ****   USBD_LL_StallEP(pdev, 0U);
 194              		.loc 1 855 3 is_stmt 0 view .LVU44
 195 0006 FFF7FEFF 		bl	USBD_LL_StallEP
 196              	.LVL13:
 856:Middlewares/ST/STM32_USB_Device_Library/Core/Src/usbd_ctlreq.c **** }
 197              		.loc 1 856 3 is_stmt 1 view .LVU45
 198 000a 0021     		movs	r1, #0
 199 000c 2000     		movs	r0, r4
 200 000e FFF7FEFF 		bl	USBD_LL_StallEP
 201              	.LVL14:
 857:Middlewares/ST/STM32_USB_Device_Library/Core/Src/usbd_ctlreq.c **** 
 202              		.loc 1 857 1 is_stmt 0 view .LVU46
 203              		@ sp needed
 204              	.LVL15:
 857:Middlewares/ST/STM32_USB_Device_Library/Core/Src/usbd_ctlreq.c **** 
 205              		.loc 1 857 1 view .LVU47
 206 0012 10BD     		pop	{r4, pc}
 207              		.cfi_endproc
 208              	.LFE54:
 210              		.section	.text.USBD_GetDescriptor,"ax",%progbits
 211              		.align	1
ARM GAS  /tmp/ccOpGw6B.s 			page 21


 212              		.syntax unified
 213              		.code	16
 214              		.thumb_func
 215              		.fpu softvfp
 217              	USBD_GetDescriptor:
 218              	.LVL16:
 219              	.LFB46:
 407:Middlewares/ST/STM32_USB_Device_Library/Core/Src/usbd_ctlreq.c ****   uint16_t len = 0U;
 220              		.loc 1 407 1 is_stmt 1 view -0
 221              		.cfi_startproc
 222              		@ args = 0, pretend = 0, frame = 8
 223              		@ frame_needed = 0, uses_anonymous_args = 0
 407:Middlewares/ST/STM32_USB_Device_Library/Core/Src/usbd_ctlreq.c ****   uint16_t len = 0U;
 224              		.loc 1 407 1 is_stmt 0 view .LVU49
 225 0000 30B5     		push	{r4, r5, lr}
 226              	.LCFI2:
 227              		.cfi_def_cfa_offset 12
 228              		.cfi_offset 4, -12
 229              		.cfi_offset 5, -8
 230              		.cfi_offset 14, -4
 231 0002 83B0     		sub	sp, sp, #12
 232              	.LCFI3:
 233              		.cfi_def_cfa_offset 24
 234 0004 0500     		movs	r5, r0
 235 0006 0C00     		movs	r4, r1
 408:Middlewares/ST/STM32_USB_Device_Library/Core/Src/usbd_ctlreq.c ****   uint8_t *pbuf = NULL;
 236              		.loc 1 408 3 is_stmt 1 view .LVU50
 408:Middlewares/ST/STM32_USB_Device_Library/Core/Src/usbd_ctlreq.c ****   uint8_t *pbuf = NULL;
 237              		.loc 1 408 12 is_stmt 0 view .LVU51
 238 0008 6B46     		mov	r3, sp
 239 000a 0022     		movs	r2, #0
 240 000c DA80     		strh	r2, [r3, #6]
 409:Middlewares/ST/STM32_USB_Device_Library/Core/Src/usbd_ctlreq.c ****   uint8_t err = 0U;
 241              		.loc 1 409 3 is_stmt 1 view .LVU52
 242              	.LVL17:
 410:Middlewares/ST/STM32_USB_Device_Library/Core/Src/usbd_ctlreq.c **** 
 243              		.loc 1 410 3 view .LVU53
 412:Middlewares/ST/STM32_USB_Device_Library/Core/Src/usbd_ctlreq.c ****   {
 244              		.loc 1 412 3 view .LVU54
 412:Middlewares/ST/STM32_USB_Device_Library/Core/Src/usbd_ctlreq.c ****   {
 245              		.loc 1 412 14 is_stmt 0 view .LVU55
 246 000e 4A88     		ldrh	r2, [r1, #2]
 412:Middlewares/ST/STM32_USB_Device_Library/Core/Src/usbd_ctlreq.c ****   {
 247              		.loc 1 412 23 view .LVU56
 248 0010 130A     		lsrs	r3, r2, #8
 249 0012 072B     		cmp	r3, #7
 250 0014 00D9     		bls	.LCB188
 251 0016 B6E0     		b	.L11	@long jump
 252              	.LCB188:
 253 0018 9B00     		lsls	r3, r3, #2
 254 001a 6549     		ldr	r1, .L43
 255              	.LVL18:
 412:Middlewares/ST/STM32_USB_Device_Library/Core/Src/usbd_ctlreq.c ****   {
 256              		.loc 1 412 23 view .LVU57
 257 001c CB58     		ldr	r3, [r1, r3]
 258 001e 9F46     		mov	pc, r3
 259              		.section	.rodata.USBD_GetDescriptor,"a",%progbits
ARM GAS  /tmp/ccOpGw6B.s 			page 22


 260              		.align	2
 261              	.L13:
 262 0000 86010000 		.word	.L11
 263 0004 20000000 		.word	.L17
 264 0008 4E000000 		.word	.L16
 265 000c 7C000000 		.word	.L15
 266 0010 86010000 		.word	.L11
 267 0014 86010000 		.word	.L11
 268 0018 46010000 		.word	.L14
 269 001c 64010000 		.word	.L12
 270              		.section	.text.USBD_GetDescriptor
 271              	.L17:
 428:Middlewares/ST/STM32_USB_Device_Library/Core/Src/usbd_ctlreq.c ****       break;
 272              		.loc 1 428 7 is_stmt 1 view .LVU58
 428:Middlewares/ST/STM32_USB_Device_Library/Core/Src/usbd_ctlreq.c ****       break;
 273              		.loc 1 428 18 is_stmt 0 view .LVU59
 274 0020 AC23     		movs	r3, #172
 275 0022 9B00     		lsls	r3, r3, #2
 276 0024 C358     		ldr	r3, [r0, r3]
 428:Middlewares/ST/STM32_USB_Device_Library/Core/Src/usbd_ctlreq.c ****       break;
 277              		.loc 1 428 25 view .LVU60
 278 0026 1B68     		ldr	r3, [r3]
 428:Middlewares/ST/STM32_USB_Device_Library/Core/Src/usbd_ctlreq.c ****       break;
 279              		.loc 1 428 14 view .LVU61
 280 0028 007C     		ldrb	r0, [r0, #16]
 281              	.LVL19:
 428:Middlewares/ST/STM32_USB_Device_Library/Core/Src/usbd_ctlreq.c ****       break;
 282              		.loc 1 428 14 view .LVU62
 283 002a 6A46     		mov	r2, sp
 284 002c 911D     		adds	r1, r2, #6
 285 002e 9847     		blx	r3
 286              	.LVL20:
 429:Middlewares/ST/STM32_USB_Device_Library/Core/Src/usbd_ctlreq.c **** 
 287              		.loc 1 429 7 is_stmt 1 view .LVU63
 569:Middlewares/ST/STM32_USB_Device_Library/Core/Src/usbd_ctlreq.c ****   {
 288              		.loc 1 569 3 view .LVU64
 289              	.L18:
 575:Middlewares/ST/STM32_USB_Device_Library/Core/Src/usbd_ctlreq.c ****     {
 290              		.loc 1 575 5 view .LVU65
 575:Middlewares/ST/STM32_USB_Device_Library/Core/Src/usbd_ctlreq.c ****     {
 291              		.loc 1 575 14 is_stmt 0 view .LVU66
 292 0030 6B46     		mov	r3, sp
 293 0032 0633     		adds	r3, r3, #6
 294 0034 1B88     		ldrh	r3, [r3]
 575:Middlewares/ST/STM32_USB_Device_Library/Core/Src/usbd_ctlreq.c ****     {
 295              		.loc 1 575 8 view .LVU67
 296 0036 002B     		cmp	r3, #0
 297 0038 03D0     		beq	.L38
 575:Middlewares/ST/STM32_USB_Device_Library/Core/Src/usbd_ctlreq.c ****     {
 298              		.loc 1 575 28 discriminator 1 view .LVU68
 299 003a E288     		ldrh	r2, [r4, #6]
 575:Middlewares/ST/STM32_USB_Device_Library/Core/Src/usbd_ctlreq.c ****     {
 300              		.loc 1 575 21 discriminator 1 view .LVU69
 301 003c 002A     		cmp	r2, #0
 302 003e 00D0     		beq	.LCB228
 303 0040 A6E0     		b	.L41	@long jump
 304              	.LCB228:
ARM GAS  /tmp/ccOpGw6B.s 			page 23


 305              	.LVL21:
 306              	.L38:
 581:Middlewares/ST/STM32_USB_Device_Library/Core/Src/usbd_ctlreq.c ****     {
 307              		.loc 1 581 5 is_stmt 1 view .LVU70
 581:Middlewares/ST/STM32_USB_Device_Library/Core/Src/usbd_ctlreq.c ****     {
 308              		.loc 1 581 12 is_stmt 0 view .LVU71
 309 0042 E388     		ldrh	r3, [r4, #6]
 581:Middlewares/ST/STM32_USB_Device_Library/Core/Src/usbd_ctlreq.c ****     {
 310              		.loc 1 581 8 view .LVU72
 311 0044 002B     		cmp	r3, #0
 312 0046 00D1     		bne	.LCB235
 313 0048 AEE0     		b	.L42	@long jump
 314              	.LCB235:
 315              	.LVL22:
 316              	.L10:
 586:Middlewares/ST/STM32_USB_Device_Library/Core/Src/usbd_ctlreq.c **** 
 317              		.loc 1 586 1 view .LVU73
 318 004a 03B0     		add	sp, sp, #12
 319              		@ sp needed
 320              	.LVL23:
 321              	.LVL24:
 586:Middlewares/ST/STM32_USB_Device_Library/Core/Src/usbd_ctlreq.c **** 
 322              		.loc 1 586 1 view .LVU74
 323 004c 30BD     		pop	{r4, r5, pc}
 324              	.LVL25:
 325              	.L16:
 432:Middlewares/ST/STM32_USB_Device_Library/Core/Src/usbd_ctlreq.c ****       {
 326              		.loc 1 432 7 is_stmt 1 view .LVU75
 432:Middlewares/ST/STM32_USB_Device_Library/Core/Src/usbd_ctlreq.c ****       {
 327              		.loc 1 432 15 is_stmt 0 view .LVU76
 328 004e 037C     		ldrb	r3, [r0, #16]
 432:Middlewares/ST/STM32_USB_Device_Library/Core/Src/usbd_ctlreq.c ****       {
 329              		.loc 1 432 10 view .LVU77
 330 0050 002B     		cmp	r3, #0
 331 0052 09D1     		bne	.L19
 434:Middlewares/ST/STM32_USB_Device_Library/Core/Src/usbd_ctlreq.c ****         pbuf[1] = USB_DESC_TYPE_CONFIGURATION;
 332              		.loc 1 434 9 is_stmt 1 view .LVU78
 434:Middlewares/ST/STM32_USB_Device_Library/Core/Src/usbd_ctlreq.c ****         pbuf[1] = USB_DESC_TYPE_CONFIGURATION;
 333              		.loc 1 434 20 is_stmt 0 view .LVU79
 334 0054 AD23     		movs	r3, #173
 335 0056 9B00     		lsls	r3, r3, #2
 336 0058 C358     		ldr	r3, [r0, r3]
 434:Middlewares/ST/STM32_USB_Device_Library/Core/Src/usbd_ctlreq.c ****         pbuf[1] = USB_DESC_TYPE_CONFIGURATION;
 337              		.loc 1 434 28 view .LVU80
 338 005a 9B6A     		ldr	r3, [r3, #40]
 434:Middlewares/ST/STM32_USB_Device_Library/Core/Src/usbd_ctlreq.c ****         pbuf[1] = USB_DESC_TYPE_CONFIGURATION;
 339              		.loc 1 434 16 view .LVU81
 340 005c 6A46     		mov	r2, sp
 341 005e 901D     		adds	r0, r2, #6
 342              	.LVL26:
 434:Middlewares/ST/STM32_USB_Device_Library/Core/Src/usbd_ctlreq.c ****         pbuf[1] = USB_DESC_TYPE_CONFIGURATION;
 343              		.loc 1 434 16 view .LVU82
 344 0060 9847     		blx	r3
 345              	.LVL27:
 435:Middlewares/ST/STM32_USB_Device_Library/Core/Src/usbd_ctlreq.c ****       }
 346              		.loc 1 435 9 is_stmt 1 view .LVU83
 435:Middlewares/ST/STM32_USB_Device_Library/Core/Src/usbd_ctlreq.c ****       }
ARM GAS  /tmp/ccOpGw6B.s 			page 24


 347              		.loc 1 435 17 is_stmt 0 view .LVU84
 348 0062 0223     		movs	r3, #2
 349 0064 4370     		strb	r3, [r0, #1]
 569:Middlewares/ST/STM32_USB_Device_Library/Core/Src/usbd_ctlreq.c ****   {
 350              		.loc 1 569 3 is_stmt 1 view .LVU85
 351 0066 E3E7     		b	.L18
 352              	.LVL28:
 353              	.L19:
 439:Middlewares/ST/STM32_USB_Device_Library/Core/Src/usbd_ctlreq.c ****         pbuf[1] = USB_DESC_TYPE_CONFIGURATION;
 354              		.loc 1 439 9 view .LVU86
 439:Middlewares/ST/STM32_USB_Device_Library/Core/Src/usbd_ctlreq.c ****         pbuf[1] = USB_DESC_TYPE_CONFIGURATION;
 355              		.loc 1 439 20 is_stmt 0 view .LVU87
 356 0068 AD23     		movs	r3, #173
 357 006a 9B00     		lsls	r3, r3, #2
 358 006c C358     		ldr	r3, [r0, r3]
 439:Middlewares/ST/STM32_USB_Device_Library/Core/Src/usbd_ctlreq.c ****         pbuf[1] = USB_DESC_TYPE_CONFIGURATION;
 359              		.loc 1 439 28 view .LVU88
 360 006e DB6A     		ldr	r3, [r3, #44]
 439:Middlewares/ST/STM32_USB_Device_Library/Core/Src/usbd_ctlreq.c ****         pbuf[1] = USB_DESC_TYPE_CONFIGURATION;
 361              		.loc 1 439 16 view .LVU89
 362 0070 6A46     		mov	r2, sp
 363 0072 901D     		adds	r0, r2, #6
 364              	.LVL29:
 439:Middlewares/ST/STM32_USB_Device_Library/Core/Src/usbd_ctlreq.c ****         pbuf[1] = USB_DESC_TYPE_CONFIGURATION;
 365              		.loc 1 439 16 view .LVU90
 366 0074 9847     		blx	r3
 367              	.LVL30:
 440:Middlewares/ST/STM32_USB_Device_Library/Core/Src/usbd_ctlreq.c ****       }
 368              		.loc 1 440 9 is_stmt 1 view .LVU91
 440:Middlewares/ST/STM32_USB_Device_Library/Core/Src/usbd_ctlreq.c ****       }
 369              		.loc 1 440 17 is_stmt 0 view .LVU92
 370 0076 0223     		movs	r3, #2
 371 0078 4370     		strb	r3, [r0, #1]
 569:Middlewares/ST/STM32_USB_Device_Library/Core/Src/usbd_ctlreq.c ****   {
 372              		.loc 1 569 3 is_stmt 1 view .LVU93
 373 007a D9E7     		b	.L18
 374              	.LVL31:
 375              	.L15:
 445:Middlewares/ST/STM32_USB_Device_Library/Core/Src/usbd_ctlreq.c ****       {
 376              		.loc 1 445 7 view .LVU94
 445:Middlewares/ST/STM32_USB_Device_Library/Core/Src/usbd_ctlreq.c ****       {
 377              		.loc 1 445 15 is_stmt 0 view .LVU95
 378 007c D2B2     		uxtb	r2, r2
 379 007e 052A     		cmp	r2, #5
 380 0080 5DD8     		bhi	.L20
 381 0082 9200     		lsls	r2, r2, #2
 382 0084 4B4B     		ldr	r3, .L43+4
 383 0086 9B58     		ldr	r3, [r3, r2]
 384 0088 9F46     		mov	pc, r3
 385              		.section	.rodata.USBD_GetDescriptor
 386              		.align	2
 387              	.L22:
 388 0020 8A000000 		.word	.L27
 389 0024 A8000000 		.word	.L26
 390 0028 C6000000 		.word	.L25
 391 002c E4000000 		.word	.L24
 392 0030 02010000 		.word	.L23
ARM GAS  /tmp/ccOpGw6B.s 			page 25


 393 0034 20010000 		.word	.L21
 394              		.section	.text.USBD_GetDescriptor
 395              	.L27:
 448:Middlewares/ST/STM32_USB_Device_Library/Core/Src/usbd_ctlreq.c ****           {
 396              		.loc 1 448 11 is_stmt 1 view .LVU96
 448:Middlewares/ST/STM32_USB_Device_Library/Core/Src/usbd_ctlreq.c ****           {
 397              		.loc 1 448 19 is_stmt 0 view .LVU97
 398 008a AC23     		movs	r3, #172
 399 008c 9B00     		lsls	r3, r3, #2
 400 008e C358     		ldr	r3, [r0, r3]
 448:Middlewares/ST/STM32_USB_Device_Library/Core/Src/usbd_ctlreq.c ****           {
 401              		.loc 1 448 26 view .LVU98
 402 0090 5B68     		ldr	r3, [r3, #4]
 448:Middlewares/ST/STM32_USB_Device_Library/Core/Src/usbd_ctlreq.c ****           {
 403              		.loc 1 448 14 view .LVU99
 404 0092 002B     		cmp	r3, #0
 405 0094 04D0     		beq	.L28
 450:Middlewares/ST/STM32_USB_Device_Library/Core/Src/usbd_ctlreq.c ****           }
 406              		.loc 1 450 13 is_stmt 1 view .LVU100
 450:Middlewares/ST/STM32_USB_Device_Library/Core/Src/usbd_ctlreq.c ****           }
 407              		.loc 1 450 20 is_stmt 0 view .LVU101
 408 0096 007C     		ldrb	r0, [r0, #16]
 409              	.LVL32:
 450:Middlewares/ST/STM32_USB_Device_Library/Core/Src/usbd_ctlreq.c ****           }
 410              		.loc 1 450 20 view .LVU102
 411 0098 6A46     		mov	r2, sp
 412 009a 911D     		adds	r1, r2, #6
 413 009c 9847     		blx	r3
 414              	.LVL33:
 569:Middlewares/ST/STM32_USB_Device_Library/Core/Src/usbd_ctlreq.c ****   {
 415              		.loc 1 569 3 is_stmt 1 view .LVU103
 416 009e C7E7     		b	.L18
 417              	.LVL34:
 418              	.L28:
 454:Middlewares/ST/STM32_USB_Device_Library/Core/Src/usbd_ctlreq.c ****             err++;
 419              		.loc 1 454 13 view .LVU104
 420 00a0 2100     		movs	r1, r4
 421 00a2 FFF7FEFF 		bl	USBD_CtlError
 422              	.LVL35:
 455:Middlewares/ST/STM32_USB_Device_Library/Core/Src/usbd_ctlreq.c ****           }
 423              		.loc 1 455 13 view .LVU105
 569:Middlewares/ST/STM32_USB_Device_Library/Core/Src/usbd_ctlreq.c ****   {
 424              		.loc 1 569 3 view .LVU106
 425 00a6 D0E7     		b	.L10
 426              	.LVL36:
 427              	.L26:
 460:Middlewares/ST/STM32_USB_Device_Library/Core/Src/usbd_ctlreq.c ****           {
 428              		.loc 1 460 11 view .LVU107
 460:Middlewares/ST/STM32_USB_Device_Library/Core/Src/usbd_ctlreq.c ****           {
 429              		.loc 1 460 19 is_stmt 0 view .LVU108
 430 00a8 AC23     		movs	r3, #172
 431 00aa 9B00     		lsls	r3, r3, #2
 432 00ac C358     		ldr	r3, [r0, r3]
 460:Middlewares/ST/STM32_USB_Device_Library/Core/Src/usbd_ctlreq.c ****           {
 433              		.loc 1 460 26 view .LVU109
 434 00ae 9B68     		ldr	r3, [r3, #8]
 460:Middlewares/ST/STM32_USB_Device_Library/Core/Src/usbd_ctlreq.c ****           {
ARM GAS  /tmp/ccOpGw6B.s 			page 26


 435              		.loc 1 460 14 view .LVU110
 436 00b0 002B     		cmp	r3, #0
 437 00b2 04D0     		beq	.L30
 462:Middlewares/ST/STM32_USB_Device_Library/Core/Src/usbd_ctlreq.c ****           }
 438              		.loc 1 462 13 is_stmt 1 view .LVU111
 462:Middlewares/ST/STM32_USB_Device_Library/Core/Src/usbd_ctlreq.c ****           }
 439              		.loc 1 462 20 is_stmt 0 view .LVU112
 440 00b4 007C     		ldrb	r0, [r0, #16]
 441              	.LVL37:
 462:Middlewares/ST/STM32_USB_Device_Library/Core/Src/usbd_ctlreq.c ****           }
 442              		.loc 1 462 20 view .LVU113
 443 00b6 6A46     		mov	r2, sp
 444 00b8 911D     		adds	r1, r2, #6
 445 00ba 9847     		blx	r3
 446              	.LVL38:
 569:Middlewares/ST/STM32_USB_Device_Library/Core/Src/usbd_ctlreq.c ****   {
 447              		.loc 1 569 3 is_stmt 1 view .LVU114
 448 00bc B8E7     		b	.L18
 449              	.LVL39:
 450              	.L30:
 466:Middlewares/ST/STM32_USB_Device_Library/Core/Src/usbd_ctlreq.c ****             err++;
 451              		.loc 1 466 13 view .LVU115
 452 00be 2100     		movs	r1, r4
 453 00c0 FFF7FEFF 		bl	USBD_CtlError
 454              	.LVL40:
 467:Middlewares/ST/STM32_USB_Device_Library/Core/Src/usbd_ctlreq.c ****           }
 455              		.loc 1 467 13 view .LVU116
 569:Middlewares/ST/STM32_USB_Device_Library/Core/Src/usbd_ctlreq.c ****   {
 456              		.loc 1 569 3 view .LVU117
 457 00c4 C1E7     		b	.L10
 458              	.LVL41:
 459              	.L25:
 472:Middlewares/ST/STM32_USB_Device_Library/Core/Src/usbd_ctlreq.c ****           {
 460              		.loc 1 472 11 view .LVU118
 472:Middlewares/ST/STM32_USB_Device_Library/Core/Src/usbd_ctlreq.c ****           {
 461              		.loc 1 472 19 is_stmt 0 view .LVU119
 462 00c6 AC23     		movs	r3, #172
 463 00c8 9B00     		lsls	r3, r3, #2
 464 00ca C358     		ldr	r3, [r0, r3]
 472:Middlewares/ST/STM32_USB_Device_Library/Core/Src/usbd_ctlreq.c ****           {
 465              		.loc 1 472 26 view .LVU120
 466 00cc DB68     		ldr	r3, [r3, #12]
 472:Middlewares/ST/STM32_USB_Device_Library/Core/Src/usbd_ctlreq.c ****           {
 467              		.loc 1 472 14 view .LVU121
 468 00ce 002B     		cmp	r3, #0
 469 00d0 04D0     		beq	.L31
 474:Middlewares/ST/STM32_USB_Device_Library/Core/Src/usbd_ctlreq.c ****           }
 470              		.loc 1 474 13 is_stmt 1 view .LVU122
 474:Middlewares/ST/STM32_USB_Device_Library/Core/Src/usbd_ctlreq.c ****           }
 471              		.loc 1 474 20 is_stmt 0 view .LVU123
 472 00d2 007C     		ldrb	r0, [r0, #16]
 473              	.LVL42:
 474:Middlewares/ST/STM32_USB_Device_Library/Core/Src/usbd_ctlreq.c ****           }
 474              		.loc 1 474 20 view .LVU124
 475 00d4 6A46     		mov	r2, sp
 476 00d6 911D     		adds	r1, r2, #6
 477 00d8 9847     		blx	r3
ARM GAS  /tmp/ccOpGw6B.s 			page 27


 478              	.LVL43:
 569:Middlewares/ST/STM32_USB_Device_Library/Core/Src/usbd_ctlreq.c ****   {
 479              		.loc 1 569 3 is_stmt 1 view .LVU125
 480 00da A9E7     		b	.L18
 481              	.LVL44:
 482              	.L31:
 478:Middlewares/ST/STM32_USB_Device_Library/Core/Src/usbd_ctlreq.c ****             err++;
 483              		.loc 1 478 13 view .LVU126
 484 00dc 2100     		movs	r1, r4
 485 00de FFF7FEFF 		bl	USBD_CtlError
 486              	.LVL45:
 479:Middlewares/ST/STM32_USB_Device_Library/Core/Src/usbd_ctlreq.c ****           }
 487              		.loc 1 479 13 view .LVU127
 569:Middlewares/ST/STM32_USB_Device_Library/Core/Src/usbd_ctlreq.c ****   {
 488              		.loc 1 569 3 view .LVU128
 489 00e2 B2E7     		b	.L10
 490              	.LVL46:
 491              	.L24:
 484:Middlewares/ST/STM32_USB_Device_Library/Core/Src/usbd_ctlreq.c ****           {
 492              		.loc 1 484 11 view .LVU129
 484:Middlewares/ST/STM32_USB_Device_Library/Core/Src/usbd_ctlreq.c ****           {
 493              		.loc 1 484 19 is_stmt 0 view .LVU130
 494 00e4 AC23     		movs	r3, #172
 495 00e6 9B00     		lsls	r3, r3, #2
 496 00e8 C358     		ldr	r3, [r0, r3]
 484:Middlewares/ST/STM32_USB_Device_Library/Core/Src/usbd_ctlreq.c ****           {
 497              		.loc 1 484 26 view .LVU131
 498 00ea 1B69     		ldr	r3, [r3, #16]
 484:Middlewares/ST/STM32_USB_Device_Library/Core/Src/usbd_ctlreq.c ****           {
 499              		.loc 1 484 14 view .LVU132
 500 00ec 002B     		cmp	r3, #0
 501 00ee 04D0     		beq	.L32
 486:Middlewares/ST/STM32_USB_Device_Library/Core/Src/usbd_ctlreq.c ****           }
 502              		.loc 1 486 13 is_stmt 1 view .LVU133
 486:Middlewares/ST/STM32_USB_Device_Library/Core/Src/usbd_ctlreq.c ****           }
 503              		.loc 1 486 20 is_stmt 0 view .LVU134
 504 00f0 007C     		ldrb	r0, [r0, #16]
 505              	.LVL47:
 486:Middlewares/ST/STM32_USB_Device_Library/Core/Src/usbd_ctlreq.c ****           }
 506              		.loc 1 486 20 view .LVU135
 507 00f2 6A46     		mov	r2, sp
 508 00f4 911D     		adds	r1, r2, #6
 509 00f6 9847     		blx	r3
 510              	.LVL48:
 569:Middlewares/ST/STM32_USB_Device_Library/Core/Src/usbd_ctlreq.c ****   {
 511              		.loc 1 569 3 is_stmt 1 view .LVU136
 512 00f8 9AE7     		b	.L18
 513              	.LVL49:
 514              	.L32:
 490:Middlewares/ST/STM32_USB_Device_Library/Core/Src/usbd_ctlreq.c ****             err++;
 515              		.loc 1 490 13 view .LVU137
 516 00fa 2100     		movs	r1, r4
 517 00fc FFF7FEFF 		bl	USBD_CtlError
 518              	.LVL50:
 491:Middlewares/ST/STM32_USB_Device_Library/Core/Src/usbd_ctlreq.c ****           }
 519              		.loc 1 491 13 view .LVU138
 569:Middlewares/ST/STM32_USB_Device_Library/Core/Src/usbd_ctlreq.c ****   {
ARM GAS  /tmp/ccOpGw6B.s 			page 28


 520              		.loc 1 569 3 view .LVU139
 521 0100 A3E7     		b	.L10
 522              	.LVL51:
 523              	.L23:
 496:Middlewares/ST/STM32_USB_Device_Library/Core/Src/usbd_ctlreq.c ****           {
 524              		.loc 1 496 11 view .LVU140
 496:Middlewares/ST/STM32_USB_Device_Library/Core/Src/usbd_ctlreq.c ****           {
 525              		.loc 1 496 19 is_stmt 0 view .LVU141
 526 0102 AC23     		movs	r3, #172
 527 0104 9B00     		lsls	r3, r3, #2
 528 0106 C358     		ldr	r3, [r0, r3]
 496:Middlewares/ST/STM32_USB_Device_Library/Core/Src/usbd_ctlreq.c ****           {
 529              		.loc 1 496 26 view .LVU142
 530 0108 5B69     		ldr	r3, [r3, #20]
 496:Middlewares/ST/STM32_USB_Device_Library/Core/Src/usbd_ctlreq.c ****           {
 531              		.loc 1 496 14 view .LVU143
 532 010a 002B     		cmp	r3, #0
 533 010c 04D0     		beq	.L33
 498:Middlewares/ST/STM32_USB_Device_Library/Core/Src/usbd_ctlreq.c ****           }
 534              		.loc 1 498 13 is_stmt 1 view .LVU144
 498:Middlewares/ST/STM32_USB_Device_Library/Core/Src/usbd_ctlreq.c ****           }
 535              		.loc 1 498 20 is_stmt 0 view .LVU145
 536 010e 007C     		ldrb	r0, [r0, #16]
 537              	.LVL52:
 498:Middlewares/ST/STM32_USB_Device_Library/Core/Src/usbd_ctlreq.c ****           }
 538              		.loc 1 498 20 view .LVU146
 539 0110 6A46     		mov	r2, sp
 540 0112 911D     		adds	r1, r2, #6
 541 0114 9847     		blx	r3
 542              	.LVL53:
 569:Middlewares/ST/STM32_USB_Device_Library/Core/Src/usbd_ctlreq.c ****   {
 543              		.loc 1 569 3 is_stmt 1 view .LVU147
 544 0116 8BE7     		b	.L18
 545              	.LVL54:
 546              	.L33:
 502:Middlewares/ST/STM32_USB_Device_Library/Core/Src/usbd_ctlreq.c ****             err++;
 547              		.loc 1 502 13 view .LVU148
 548 0118 2100     		movs	r1, r4
 549 011a FFF7FEFF 		bl	USBD_CtlError
 550              	.LVL55:
 503:Middlewares/ST/STM32_USB_Device_Library/Core/Src/usbd_ctlreq.c ****           }
 551              		.loc 1 503 13 view .LVU149
 569:Middlewares/ST/STM32_USB_Device_Library/Core/Src/usbd_ctlreq.c ****   {
 552              		.loc 1 569 3 view .LVU150
 553 011e 94E7     		b	.L10
 554              	.LVL56:
 555              	.L21:
 508:Middlewares/ST/STM32_USB_Device_Library/Core/Src/usbd_ctlreq.c ****           {
 556              		.loc 1 508 11 view .LVU151
 508:Middlewares/ST/STM32_USB_Device_Library/Core/Src/usbd_ctlreq.c ****           {
 557              		.loc 1 508 19 is_stmt 0 view .LVU152
 558 0120 AC23     		movs	r3, #172
 559 0122 9B00     		lsls	r3, r3, #2
 560 0124 C358     		ldr	r3, [r0, r3]
 508:Middlewares/ST/STM32_USB_Device_Library/Core/Src/usbd_ctlreq.c ****           {
 561              		.loc 1 508 26 view .LVU153
 562 0126 9B69     		ldr	r3, [r3, #24]
ARM GAS  /tmp/ccOpGw6B.s 			page 29


 508:Middlewares/ST/STM32_USB_Device_Library/Core/Src/usbd_ctlreq.c ****           {
 563              		.loc 1 508 14 view .LVU154
 564 0128 002B     		cmp	r3, #0
 565 012a 04D0     		beq	.L34
 510:Middlewares/ST/STM32_USB_Device_Library/Core/Src/usbd_ctlreq.c ****           }
 566              		.loc 1 510 13 is_stmt 1 view .LVU155
 510:Middlewares/ST/STM32_USB_Device_Library/Core/Src/usbd_ctlreq.c ****           }
 567              		.loc 1 510 20 is_stmt 0 view .LVU156
 568 012c 007C     		ldrb	r0, [r0, #16]
 569              	.LVL57:
 510:Middlewares/ST/STM32_USB_Device_Library/Core/Src/usbd_ctlreq.c ****           }
 570              		.loc 1 510 20 view .LVU157
 571 012e 6A46     		mov	r2, sp
 572 0130 911D     		adds	r1, r2, #6
 573 0132 9847     		blx	r3
 574              	.LVL58:
 569:Middlewares/ST/STM32_USB_Device_Library/Core/Src/usbd_ctlreq.c ****   {
 575              		.loc 1 569 3 is_stmt 1 view .LVU158
 576 0134 7CE7     		b	.L18
 577              	.LVL59:
 578              	.L34:
 514:Middlewares/ST/STM32_USB_Device_Library/Core/Src/usbd_ctlreq.c ****             err++;
 579              		.loc 1 514 13 view .LVU159
 580 0136 2100     		movs	r1, r4
 581 0138 FFF7FEFF 		bl	USBD_CtlError
 582              	.LVL60:
 515:Middlewares/ST/STM32_USB_Device_Library/Core/Src/usbd_ctlreq.c ****           }
 583              		.loc 1 515 13 view .LVU160
 569:Middlewares/ST/STM32_USB_Device_Library/Core/Src/usbd_ctlreq.c ****   {
 584              		.loc 1 569 3 view .LVU161
 585 013c 85E7     		b	.L10
 586              	.LVL61:
 587              	.L20:
 532:Middlewares/ST/STM32_USB_Device_Library/Core/Src/usbd_ctlreq.c ****           err++;
 588              		.loc 1 532 11 view .LVU162
 589 013e 2100     		movs	r1, r4
 590 0140 FFF7FEFF 		bl	USBD_CtlError
 591              	.LVL62:
 533:Middlewares/ST/STM32_USB_Device_Library/Core/Src/usbd_ctlreq.c **** #endif
 592              		.loc 1 533 11 view .LVU163
 569:Middlewares/ST/STM32_USB_Device_Library/Core/Src/usbd_ctlreq.c ****   {
 593              		.loc 1 569 3 view .LVU164
 594 0144 81E7     		b	.L10
 595              	.LVL63:
 596              	.L14:
 539:Middlewares/ST/STM32_USB_Device_Library/Core/Src/usbd_ctlreq.c ****       {
 597              		.loc 1 539 7 view .LVU165
 539:Middlewares/ST/STM32_USB_Device_Library/Core/Src/usbd_ctlreq.c ****       {
 598              		.loc 1 539 15 is_stmt 0 view .LVU166
 599 0146 037C     		ldrb	r3, [r0, #16]
 539:Middlewares/ST/STM32_USB_Device_Library/Core/Src/usbd_ctlreq.c ****       {
 600              		.loc 1 539 10 view .LVU167
 601 0148 002B     		cmp	r3, #0
 602 014a 07D1     		bne	.L35
 541:Middlewares/ST/STM32_USB_Device_Library/Core/Src/usbd_ctlreq.c ****       }
 603              		.loc 1 541 9 is_stmt 1 view .LVU168
 541:Middlewares/ST/STM32_USB_Device_Library/Core/Src/usbd_ctlreq.c ****       }
ARM GAS  /tmp/ccOpGw6B.s 			page 30


 604              		.loc 1 541 20 is_stmt 0 view .LVU169
 605 014c AD23     		movs	r3, #173
 606 014e 9B00     		lsls	r3, r3, #2
 607 0150 C358     		ldr	r3, [r0, r3]
 541:Middlewares/ST/STM32_USB_Device_Library/Core/Src/usbd_ctlreq.c ****       }
 608              		.loc 1 541 28 view .LVU170
 609 0152 5B6B     		ldr	r3, [r3, #52]
 541:Middlewares/ST/STM32_USB_Device_Library/Core/Src/usbd_ctlreq.c ****       }
 610              		.loc 1 541 16 view .LVU171
 611 0154 6A46     		mov	r2, sp
 612 0156 901D     		adds	r0, r2, #6
 613              	.LVL64:
 541:Middlewares/ST/STM32_USB_Device_Library/Core/Src/usbd_ctlreq.c ****       }
 614              		.loc 1 541 16 view .LVU172
 615 0158 9847     		blx	r3
 616              	.LVL65:
 569:Middlewares/ST/STM32_USB_Device_Library/Core/Src/usbd_ctlreq.c ****   {
 617              		.loc 1 569 3 is_stmt 1 view .LVU173
 618 015a 69E7     		b	.L18
 619              	.LVL66:
 620              	.L35:
 545:Middlewares/ST/STM32_USB_Device_Library/Core/Src/usbd_ctlreq.c ****         err++;
 621              		.loc 1 545 9 view .LVU174
 622 015c 2100     		movs	r1, r4
 623 015e FFF7FEFF 		bl	USBD_CtlError
 624              	.LVL67:
 546:Middlewares/ST/STM32_USB_Device_Library/Core/Src/usbd_ctlreq.c ****       }
 625              		.loc 1 546 9 view .LVU175
 569:Middlewares/ST/STM32_USB_Device_Library/Core/Src/usbd_ctlreq.c ****   {
 626              		.loc 1 569 3 view .LVU176
 627 0162 72E7     		b	.L10
 628              	.LVL68:
 629              	.L12:
 551:Middlewares/ST/STM32_USB_Device_Library/Core/Src/usbd_ctlreq.c ****       {
 630              		.loc 1 551 7 view .LVU177
 551:Middlewares/ST/STM32_USB_Device_Library/Core/Src/usbd_ctlreq.c ****       {
 631              		.loc 1 551 15 is_stmt 0 view .LVU178
 632 0164 037C     		ldrb	r3, [r0, #16]
 551:Middlewares/ST/STM32_USB_Device_Library/Core/Src/usbd_ctlreq.c ****       {
 633              		.loc 1 551 10 view .LVU179
 634 0166 002B     		cmp	r3, #0
 635 0168 09D1     		bne	.L36
 553:Middlewares/ST/STM32_USB_Device_Library/Core/Src/usbd_ctlreq.c ****         pbuf[1] = USB_DESC_TYPE_OTHER_SPEED_CONFIGURATION;
 636              		.loc 1 553 9 is_stmt 1 view .LVU180
 553:Middlewares/ST/STM32_USB_Device_Library/Core/Src/usbd_ctlreq.c ****         pbuf[1] = USB_DESC_TYPE_OTHER_SPEED_CONFIGURATION;
 637              		.loc 1 553 20 is_stmt 0 view .LVU181
 638 016a AD23     		movs	r3, #173
 639 016c 9B00     		lsls	r3, r3, #2
 640 016e C358     		ldr	r3, [r0, r3]
 553:Middlewares/ST/STM32_USB_Device_Library/Core/Src/usbd_ctlreq.c ****         pbuf[1] = USB_DESC_TYPE_OTHER_SPEED_CONFIGURATION;
 641              		.loc 1 553 28 view .LVU182
 642 0170 1B6B     		ldr	r3, [r3, #48]
 553:Middlewares/ST/STM32_USB_Device_Library/Core/Src/usbd_ctlreq.c ****         pbuf[1] = USB_DESC_TYPE_OTHER_SPEED_CONFIGURATION;
 643              		.loc 1 553 16 view .LVU183
 644 0172 6A46     		mov	r2, sp
 645 0174 901D     		adds	r0, r2, #6
 646              	.LVL69:
ARM GAS  /tmp/ccOpGw6B.s 			page 31


 553:Middlewares/ST/STM32_USB_Device_Library/Core/Src/usbd_ctlreq.c ****         pbuf[1] = USB_DESC_TYPE_OTHER_SPEED_CONFIGURATION;
 647              		.loc 1 553 16 view .LVU184
 648 0176 9847     		blx	r3
 649              	.LVL70:
 554:Middlewares/ST/STM32_USB_Device_Library/Core/Src/usbd_ctlreq.c ****       }
 650              		.loc 1 554 9 is_stmt 1 view .LVU185
 554:Middlewares/ST/STM32_USB_Device_Library/Core/Src/usbd_ctlreq.c ****       }
 651              		.loc 1 554 17 is_stmt 0 view .LVU186
 652 0178 0723     		movs	r3, #7
 653 017a 4370     		strb	r3, [r0, #1]
 569:Middlewares/ST/STM32_USB_Device_Library/Core/Src/usbd_ctlreq.c ****   {
 654              		.loc 1 569 3 is_stmt 1 view .LVU187
 655 017c 58E7     		b	.L18
 656              	.LVL71:
 657              	.L36:
 558:Middlewares/ST/STM32_USB_Device_Library/Core/Src/usbd_ctlreq.c ****         err++;
 658              		.loc 1 558 9 view .LVU188
 659 017e 2100     		movs	r1, r4
 660 0180 FFF7FEFF 		bl	USBD_CtlError
 661              	.LVL72:
 559:Middlewares/ST/STM32_USB_Device_Library/Core/Src/usbd_ctlreq.c ****       }
 662              		.loc 1 559 9 view .LVU189
 569:Middlewares/ST/STM32_USB_Device_Library/Core/Src/usbd_ctlreq.c ****   {
 663              		.loc 1 569 3 view .LVU190
 664 0184 61E7     		b	.L10
 665              	.LVL73:
 666              	.L11:
 564:Middlewares/ST/STM32_USB_Device_Library/Core/Src/usbd_ctlreq.c ****       err++;
 667              		.loc 1 564 7 view .LVU191
 668 0186 2100     		movs	r1, r4
 669 0188 2800     		movs	r0, r5
 670              	.LVL74:
 564:Middlewares/ST/STM32_USB_Device_Library/Core/Src/usbd_ctlreq.c ****       err++;
 671              		.loc 1 564 7 is_stmt 0 view .LVU192
 672 018a FFF7FEFF 		bl	USBD_CtlError
 673              	.LVL75:
 565:Middlewares/ST/STM32_USB_Device_Library/Core/Src/usbd_ctlreq.c ****       break;
 674              		.loc 1 565 7 is_stmt 1 view .LVU193
 566:Middlewares/ST/STM32_USB_Device_Library/Core/Src/usbd_ctlreq.c ****   }
 675              		.loc 1 566 7 view .LVU194
 569:Middlewares/ST/STM32_USB_Device_Library/Core/Src/usbd_ctlreq.c ****   {
 676              		.loc 1 569 3 view .LVU195
 571:Middlewares/ST/STM32_USB_Device_Library/Core/Src/usbd_ctlreq.c ****   }
 677              		.loc 1 571 5 view .LVU196
 678 018e 5CE7     		b	.L10
 679              	.LVL76:
 680              	.L41:
 577:Middlewares/ST/STM32_USB_Device_Library/Core/Src/usbd_ctlreq.c ****       (void)USBD_CtlSendData(pdev, pbuf, len);
 681              		.loc 1 577 7 view .LVU197
 577:Middlewares/ST/STM32_USB_Device_Library/Core/Src/usbd_ctlreq.c ****       (void)USBD_CtlSendData(pdev, pbuf, len);
 682              		.loc 1 577 13 is_stmt 0 view .LVU198
 683 0190 191C     		adds	r1, r3, #0
 684 0192 9342     		cmp	r3, r2
 685 0194 00D9     		bls	.L39
 686 0196 111C     		adds	r1, r2, #0
 687              	.L39:
 688 0198 8AB2     		uxth	r2, r1
ARM GAS  /tmp/ccOpGw6B.s 			page 32


 577:Middlewares/ST/STM32_USB_Device_Library/Core/Src/usbd_ctlreq.c ****       (void)USBD_CtlSendData(pdev, pbuf, len);
 689              		.loc 1 577 11 view .LVU199
 690 019a 6B46     		mov	r3, sp
 691 019c D980     		strh	r1, [r3, #6]
 578:Middlewares/ST/STM32_USB_Device_Library/Core/Src/usbd_ctlreq.c ****     }
 692              		.loc 1 578 7 is_stmt 1 view .LVU200
 578:Middlewares/ST/STM32_USB_Device_Library/Core/Src/usbd_ctlreq.c ****     }
 693              		.loc 1 578 13 is_stmt 0 view .LVU201
 694 019e 0100     		movs	r1, r0
 695 01a0 2800     		movs	r0, r5
 696              	.LVL77:
 578:Middlewares/ST/STM32_USB_Device_Library/Core/Src/usbd_ctlreq.c ****     }
 697              		.loc 1 578 13 view .LVU202
 698 01a2 FFF7FEFF 		bl	USBD_CtlSendData
 699              	.LVL78:
 578:Middlewares/ST/STM32_USB_Device_Library/Core/Src/usbd_ctlreq.c ****     }
 700              		.loc 1 578 13 view .LVU203
 701 01a6 4CE7     		b	.L38
 702              	.L42:
 583:Middlewares/ST/STM32_USB_Device_Library/Core/Src/usbd_ctlreq.c ****     }
 703              		.loc 1 583 7 is_stmt 1 view .LVU204
 583:Middlewares/ST/STM32_USB_Device_Library/Core/Src/usbd_ctlreq.c ****     }
 704              		.loc 1 583 13 is_stmt 0 view .LVU205
 705 01a8 2800     		movs	r0, r5
 706 01aa FFF7FEFF 		bl	USBD_CtlSendStatus
 707              	.LVL79:
 708 01ae 4CE7     		b	.L10
 709              	.L44:
 710              		.align	2
 711              	.L43:
 712 01b0 00000000 		.word	.L13
 713 01b4 20000000 		.word	.L22
 714              		.cfi_endproc
 715              	.LFE46:
 717              		.section	.text.USBD_SetAddress,"ax",%progbits
 718              		.align	1
 719              		.syntax unified
 720              		.code	16
 721              		.thumb_func
 722              		.fpu softvfp
 724              	USBD_SetAddress:
 725              	.LVL80:
 726              	.LFB47:
 597:Middlewares/ST/STM32_USB_Device_Library/Core/Src/usbd_ctlreq.c ****   uint8_t  dev_addr;
 727              		.loc 1 597 1 is_stmt 1 view -0
 728              		.cfi_startproc
 729              		@ args = 0, pretend = 0, frame = 0
 730              		@ frame_needed = 0, uses_anonymous_args = 0
 597:Middlewares/ST/STM32_USB_Device_Library/Core/Src/usbd_ctlreq.c ****   uint8_t  dev_addr;
 731              		.loc 1 597 1 is_stmt 0 view .LVU207
 732 0000 70B5     		push	{r4, r5, r6, lr}
 733              	.LCFI4:
 734              		.cfi_def_cfa_offset 16
 735              		.cfi_offset 4, -16
 736              		.cfi_offset 5, -12
 737              		.cfi_offset 6, -8
 738              		.cfi_offset 14, -4
ARM GAS  /tmp/ccOpGw6B.s 			page 33


 739 0002 0400     		movs	r4, r0
 598:Middlewares/ST/STM32_USB_Device_Library/Core/Src/usbd_ctlreq.c **** 
 740              		.loc 1 598 3 is_stmt 1 view .LVU208
 600:Middlewares/ST/STM32_USB_Device_Library/Core/Src/usbd_ctlreq.c ****   {
 741              		.loc 1 600 3 view .LVU209
 600:Middlewares/ST/STM32_USB_Device_Library/Core/Src/usbd_ctlreq.c ****   {
 742              		.loc 1 600 11 is_stmt 0 view .LVU210
 743 0004 8B88     		ldrh	r3, [r1, #4]
 600:Middlewares/ST/STM32_USB_Device_Library/Core/Src/usbd_ctlreq.c ****   {
 744              		.loc 1 600 6 view .LVU211
 745 0006 002B     		cmp	r3, #0
 746 0008 23D1     		bne	.L46
 600:Middlewares/ST/STM32_USB_Device_Library/Core/Src/usbd_ctlreq.c ****   {
 747              		.loc 1 600 34 discriminator 1 view .LVU212
 748 000a CB88     		ldrh	r3, [r1, #6]
 600:Middlewares/ST/STM32_USB_Device_Library/Core/Src/usbd_ctlreq.c ****   {
 749              		.loc 1 600 27 discriminator 1 view .LVU213
 750 000c 002B     		cmp	r3, #0
 751 000e 20D1     		bne	.L46
 600:Middlewares/ST/STM32_USB_Device_Library/Core/Src/usbd_ctlreq.c ****   {
 752              		.loc 1 600 58 discriminator 2 view .LVU214
 753 0010 4B88     		ldrh	r3, [r1, #2]
 600:Middlewares/ST/STM32_USB_Device_Library/Core/Src/usbd_ctlreq.c ****   {
 754              		.loc 1 600 51 discriminator 2 view .LVU215
 755 0012 7F2B     		cmp	r3, #127
 756 0014 1DD8     		bhi	.L46
 602:Middlewares/ST/STM32_USB_Device_Library/Core/Src/usbd_ctlreq.c **** 
 757              		.loc 1 602 5 is_stmt 1 view .LVU216
 602:Middlewares/ST/STM32_USB_Device_Library/Core/Src/usbd_ctlreq.c **** 
 758              		.loc 1 602 14 is_stmt 0 view .LVU217
 759 0016 7F25     		movs	r5, #127
 760 0018 1D40     		ands	r5, r3
 761              	.LVL81:
 604:Middlewares/ST/STM32_USB_Device_Library/Core/Src/usbd_ctlreq.c ****     {
 762              		.loc 1 604 5 is_stmt 1 view .LVU218
 604:Middlewares/ST/STM32_USB_Device_Library/Core/Src/usbd_ctlreq.c ****     {
 763              		.loc 1 604 13 is_stmt 0 view .LVU219
 764 001a A723     		movs	r3, #167
 765 001c 9B00     		lsls	r3, r3, #2
 766 001e C35C     		ldrb	r3, [r0, r3]
 604:Middlewares/ST/STM32_USB_Device_Library/Core/Src/usbd_ctlreq.c ****     {
 767              		.loc 1 604 8 view .LVU220
 768 0020 032B     		cmp	r3, #3
 769 0022 0ED0     		beq	.L50
 610:Middlewares/ST/STM32_USB_Device_Library/Core/Src/usbd_ctlreq.c ****       USBD_LL_SetUSBAddress(pdev, dev_addr);
 770              		.loc 1 610 7 is_stmt 1 view .LVU221
 610:Middlewares/ST/STM32_USB_Device_Library/Core/Src/usbd_ctlreq.c ****       USBD_LL_SetUSBAddress(pdev, dev_addr);
 771              		.loc 1 610 25 is_stmt 0 view .LVU222
 772 0024 0D4B     		ldr	r3, .L51
 773 0026 C554     		strb	r5, [r0, r3]
 611:Middlewares/ST/STM32_USB_Device_Library/Core/Src/usbd_ctlreq.c ****       USBD_CtlSendStatus(pdev);
 774              		.loc 1 611 7 is_stmt 1 view .LVU223
 775 0028 2900     		movs	r1, r5
 776              	.LVL82:
 611:Middlewares/ST/STM32_USB_Device_Library/Core/Src/usbd_ctlreq.c ****       USBD_CtlSendStatus(pdev);
 777              		.loc 1 611 7 is_stmt 0 view .LVU224
 778 002a FFF7FEFF 		bl	USBD_LL_SetUSBAddress
ARM GAS  /tmp/ccOpGw6B.s 			page 34


 779              	.LVL83:
 612:Middlewares/ST/STM32_USB_Device_Library/Core/Src/usbd_ctlreq.c **** 
 780              		.loc 1 612 7 is_stmt 1 view .LVU225
 781 002e 2000     		movs	r0, r4
 782 0030 FFF7FEFF 		bl	USBD_CtlSendStatus
 783              	.LVL84:
 614:Middlewares/ST/STM32_USB_Device_Library/Core/Src/usbd_ctlreq.c ****       {
 784              		.loc 1 614 7 view .LVU226
 614:Middlewares/ST/STM32_USB_Device_Library/Core/Src/usbd_ctlreq.c ****       {
 785              		.loc 1 614 10 is_stmt 0 view .LVU227
 786 0034 002D     		cmp	r5, #0
 787 0036 07D0     		beq	.L49
 616:Middlewares/ST/STM32_USB_Device_Library/Core/Src/usbd_ctlreq.c ****       }
 788              		.loc 1 616 9 is_stmt 1 view .LVU228
 616:Middlewares/ST/STM32_USB_Device_Library/Core/Src/usbd_ctlreq.c ****       }
 789              		.loc 1 616 25 is_stmt 0 view .LVU229
 790 0038 A723     		movs	r3, #167
 791 003a 9B00     		lsls	r3, r3, #2
 792 003c 0222     		movs	r2, #2
 793 003e E254     		strb	r2, [r4, r3]
 794 0040 0AE0     		b	.L45
 795              	.LVL85:
 796              	.L50:
 606:Middlewares/ST/STM32_USB_Device_Library/Core/Src/usbd_ctlreq.c ****     }
 797              		.loc 1 606 7 is_stmt 1 view .LVU230
 798 0042 FFF7FEFF 		bl	USBD_CtlError
 799              	.LVL86:
 606:Middlewares/ST/STM32_USB_Device_Library/Core/Src/usbd_ctlreq.c ****     }
 800              		.loc 1 606 7 is_stmt 0 view .LVU231
 801 0046 07E0     		b	.L45
 802              	.L49:
 620:Middlewares/ST/STM32_USB_Device_Library/Core/Src/usbd_ctlreq.c ****       }
 803              		.loc 1 620 9 is_stmt 1 view .LVU232
 620:Middlewares/ST/STM32_USB_Device_Library/Core/Src/usbd_ctlreq.c ****       }
 804              		.loc 1 620 25 is_stmt 0 view .LVU233
 805 0048 A723     		movs	r3, #167
 806 004a 9B00     		lsls	r3, r3, #2
 807 004c 0122     		movs	r2, #1
 808 004e E254     		strb	r2, [r4, r3]
 809 0050 02E0     		b	.L45
 810              	.LVL87:
 811              	.L46:
 626:Middlewares/ST/STM32_USB_Device_Library/Core/Src/usbd_ctlreq.c ****   }
 812              		.loc 1 626 5 is_stmt 1 view .LVU234
 813 0052 2000     		movs	r0, r4
 814              	.LVL88:
 626:Middlewares/ST/STM32_USB_Device_Library/Core/Src/usbd_ctlreq.c ****   }
 815              		.loc 1 626 5 is_stmt 0 view .LVU235
 816 0054 FFF7FEFF 		bl	USBD_CtlError
 817              	.LVL89:
 818              	.L45:
 628:Middlewares/ST/STM32_USB_Device_Library/Core/Src/usbd_ctlreq.c **** 
 819              		.loc 1 628 1 view .LVU236
 820              		@ sp needed
 821              	.LVL90:
 628:Middlewares/ST/STM32_USB_Device_Library/Core/Src/usbd_ctlreq.c **** 
 822              		.loc 1 628 1 view .LVU237
ARM GAS  /tmp/ccOpGw6B.s 			page 35


 823 0058 70BD     		pop	{r4, r5, r6, pc}
 824              	.L52:
 825 005a C046     		.align	2
 826              	.L51:
 827 005c 9E020000 		.word	670
 828              		.cfi_endproc
 829              	.LFE47:
 831              		.section	.text.USBD_SetConfig,"ax",%progbits
 832              		.align	1
 833              		.syntax unified
 834              		.code	16
 835              		.thumb_func
 836              		.fpu softvfp
 838              	USBD_SetConfig:
 839              	.LVL91:
 840              	.LFB48:
 638:Middlewares/ST/STM32_USB_Device_Library/Core/Src/usbd_ctlreq.c ****   static uint8_t cfgidx;
 841              		.loc 1 638 1 is_stmt 1 view -0
 842              		.cfi_startproc
 843              		@ args = 0, pretend = 0, frame = 0
 844              		@ frame_needed = 0, uses_anonymous_args = 0
 638:Middlewares/ST/STM32_USB_Device_Library/Core/Src/usbd_ctlreq.c ****   static uint8_t cfgidx;
 845              		.loc 1 638 1 is_stmt 0 view .LVU239
 846 0000 70B5     		push	{r4, r5, r6, lr}
 847              	.LCFI5:
 848              		.cfi_def_cfa_offset 16
 849              		.cfi_offset 4, -16
 850              		.cfi_offset 5, -12
 851              		.cfi_offset 6, -8
 852              		.cfi_offset 14, -4
 853 0002 0400     		movs	r4, r0
 854 0004 0D00     		movs	r5, r1
 639:Middlewares/ST/STM32_USB_Device_Library/Core/Src/usbd_ctlreq.c **** 
 855              		.loc 1 639 3 is_stmt 1 view .LVU240
 641:Middlewares/ST/STM32_USB_Device_Library/Core/Src/usbd_ctlreq.c **** 
 856              		.loc 1 641 3 view .LVU241
 641:Middlewares/ST/STM32_USB_Device_Library/Core/Src/usbd_ctlreq.c **** 
 857              		.loc 1 641 12 is_stmt 0 view .LVU242
 858 0006 8978     		ldrb	r1, [r1, #2]
 859              	.LVL92:
 641:Middlewares/ST/STM32_USB_Device_Library/Core/Src/usbd_ctlreq.c **** 
 860              		.loc 1 641 10 view .LVU243
 861 0008 2A4B     		ldr	r3, .L69
 862 000a 1970     		strb	r1, [r3]
 643:Middlewares/ST/STM32_USB_Device_Library/Core/Src/usbd_ctlreq.c ****   {
 863              		.loc 1 643 3 is_stmt 1 view .LVU244
 643:Middlewares/ST/STM32_USB_Device_Library/Core/Src/usbd_ctlreq.c ****   {
 864              		.loc 1 643 6 is_stmt 0 view .LVU245
 865 000c 0129     		cmp	r1, #1
 866 000e 0FD8     		bhi	.L65
 649:Middlewares/ST/STM32_USB_Device_Library/Core/Src/usbd_ctlreq.c ****     {
 867              		.loc 1 649 5 is_stmt 1 view .LVU246
 649:Middlewares/ST/STM32_USB_Device_Library/Core/Src/usbd_ctlreq.c ****     {
 868              		.loc 1 649 17 is_stmt 0 view .LVU247
 869 0010 A723     		movs	r3, #167
 870 0012 9B00     		lsls	r3, r3, #2
 871 0014 C35C     		ldrb	r3, [r0, r3]
ARM GAS  /tmp/ccOpGw6B.s 			page 36


 649:Middlewares/ST/STM32_USB_Device_Library/Core/Src/usbd_ctlreq.c ****     {
 872              		.loc 1 649 5 view .LVU248
 873 0016 022B     		cmp	r3, #2
 874 0018 0ED0     		beq	.L56
 875 001a 032B     		cmp	r3, #3
 876 001c 23D0     		beq	.L57
 698:Middlewares/ST/STM32_USB_Device_Library/Core/Src/usbd_ctlreq.c ****         USBD_ClrClassConfig(pdev, cfgidx);
 877              		.loc 1 698 9 is_stmt 1 view .LVU249
 878 001e 2900     		movs	r1, r5
 879 0020 FFF7FEFF 		bl	USBD_CtlError
 880              	.LVL93:
 699:Middlewares/ST/STM32_USB_Device_Library/Core/Src/usbd_ctlreq.c ****         break;
 881              		.loc 1 699 9 view .LVU250
 882 0024 234B     		ldr	r3, .L69
 883 0026 1978     		ldrb	r1, [r3]
 884 0028 2000     		movs	r0, r4
 885 002a FFF7FEFF 		bl	USBD_ClrClassConfig
 886              	.LVL94:
 700:Middlewares/ST/STM32_USB_Device_Library/Core/Src/usbd_ctlreq.c ****     }
 887              		.loc 1 700 9 view .LVU251
 888 002e 02E0     		b	.L53
 889              	.LVL95:
 890              	.L65:
 645:Middlewares/ST/STM32_USB_Device_Library/Core/Src/usbd_ctlreq.c ****   }
 891              		.loc 1 645 5 view .LVU252
 892 0030 2900     		movs	r1, r5
 893 0032 FFF7FEFF 		bl	USBD_CtlError
 894              	.LVL96:
 895              	.L53:
 703:Middlewares/ST/STM32_USB_Device_Library/Core/Src/usbd_ctlreq.c **** 
 896              		.loc 1 703 1 is_stmt 0 view .LVU253
 897              		@ sp needed
 898              	.LVL97:
 899              	.LVL98:
 703:Middlewares/ST/STM32_USB_Device_Library/Core/Src/usbd_ctlreq.c **** 
 900              		.loc 1 703 1 view .LVU254
 901 0036 70BD     		pop	{r4, r5, r6, pc}
 902              	.LVL99:
 903              	.L56:
 652:Middlewares/ST/STM32_USB_Device_Library/Core/Src/usbd_ctlreq.c ****         {
 904              		.loc 1 652 9 is_stmt 1 view .LVU255
 652:Middlewares/ST/STM32_USB_Device_Library/Core/Src/usbd_ctlreq.c ****         {
 905              		.loc 1 652 12 is_stmt 0 view .LVU256
 906 0038 0029     		cmp	r1, #0
 907 003a 11D0     		beq	.L59
 654:Middlewares/ST/STM32_USB_Device_Library/Core/Src/usbd_ctlreq.c ****           pdev->dev_state = USBD_STATE_CONFIGURED;
 908              		.loc 1 654 11 is_stmt 1 view .LVU257
 654:Middlewares/ST/STM32_USB_Device_Library/Core/Src/usbd_ctlreq.c ****           pdev->dev_state = USBD_STATE_CONFIGURED;
 909              		.loc 1 654 28 is_stmt 0 view .LVU258
 910 003c 4160     		str	r1, [r0, #4]
 655:Middlewares/ST/STM32_USB_Device_Library/Core/Src/usbd_ctlreq.c ****           if (USBD_SetClassConfig(pdev, cfgidx) == USBD_FAIL)
 911              		.loc 1 655 11 is_stmt 1 view .LVU259
 655:Middlewares/ST/STM32_USB_Device_Library/Core/Src/usbd_ctlreq.c ****           if (USBD_SetClassConfig(pdev, cfgidx) == USBD_FAIL)
 912              		.loc 1 655 27 is_stmt 0 view .LVU260
 913 003e A723     		movs	r3, #167
 914 0040 9B00     		lsls	r3, r3, #2
 915 0042 0322     		movs	r2, #3
ARM GAS  /tmp/ccOpGw6B.s 			page 37


 916 0044 C254     		strb	r2, [r0, r3]
 656:Middlewares/ST/STM32_USB_Device_Library/Core/Src/usbd_ctlreq.c ****           {
 917              		.loc 1 656 11 is_stmt 1 view .LVU261
 656:Middlewares/ST/STM32_USB_Device_Library/Core/Src/usbd_ctlreq.c ****           {
 918              		.loc 1 656 15 is_stmt 0 view .LVU262
 919 0046 FFF7FEFF 		bl	USBD_SetClassConfig
 920              	.LVL100:
 656:Middlewares/ST/STM32_USB_Device_Library/Core/Src/usbd_ctlreq.c ****           {
 921              		.loc 1 656 14 view .LVU263
 922 004a 0228     		cmp	r0, #2
 923 004c 03D0     		beq	.L66
 661:Middlewares/ST/STM32_USB_Device_Library/Core/Src/usbd_ctlreq.c ****         }
 924              		.loc 1 661 11 is_stmt 1 view .LVU264
 925 004e 2000     		movs	r0, r4
 926 0050 FFF7FEFF 		bl	USBD_CtlSendStatus
 927              	.LVL101:
 928 0054 EFE7     		b	.L53
 929              	.L66:
 658:Middlewares/ST/STM32_USB_Device_Library/Core/Src/usbd_ctlreq.c ****             return;
 930              		.loc 1 658 13 view .LVU265
 931 0056 2900     		movs	r1, r5
 932 0058 2000     		movs	r0, r4
 933 005a FFF7FEFF 		bl	USBD_CtlError
 934              	.LVL102:
 659:Middlewares/ST/STM32_USB_Device_Library/Core/Src/usbd_ctlreq.c ****           }
 935              		.loc 1 659 13 view .LVU266
 936 005e EAE7     		b	.L53
 937              	.LVL103:
 938              	.L59:
 665:Middlewares/ST/STM32_USB_Device_Library/Core/Src/usbd_ctlreq.c ****         }
 939              		.loc 1 665 11 view .LVU267
 940 0060 FFF7FEFF 		bl	USBD_CtlSendStatus
 941              	.LVL104:
 665:Middlewares/ST/STM32_USB_Device_Library/Core/Src/usbd_ctlreq.c ****         }
 942              		.loc 1 665 11 is_stmt 0 view .LVU268
 943 0064 E7E7     		b	.L53
 944              	.LVL105:
 945              	.L57:
 670:Middlewares/ST/STM32_USB_Device_Library/Core/Src/usbd_ctlreq.c ****         {
 946              		.loc 1 670 9 is_stmt 1 view .LVU269
 670:Middlewares/ST/STM32_USB_Device_Library/Core/Src/usbd_ctlreq.c ****         {
 947              		.loc 1 670 12 is_stmt 0 view .LVU270
 948 0066 0029     		cmp	r1, #0
 949 0068 11D0     		beq	.L67
 677:Middlewares/ST/STM32_USB_Device_Library/Core/Src/usbd_ctlreq.c ****         {
 950              		.loc 1 677 14 is_stmt 1 view .LVU271
 677:Middlewares/ST/STM32_USB_Device_Library/Core/Src/usbd_ctlreq.c ****         {
 951              		.loc 1 677 32 is_stmt 0 view .LVU272
 952 006a 4368     		ldr	r3, [r0, #4]
 677:Middlewares/ST/STM32_USB_Device_Library/Core/Src/usbd_ctlreq.c ****         {
 953              		.loc 1 677 17 view .LVU273
 954 006c 9942     		cmp	r1, r3
 955 006e 1ED0     		beq	.L62
 680:Middlewares/ST/STM32_USB_Device_Library/Core/Src/usbd_ctlreq.c **** 
 956              		.loc 1 680 11 is_stmt 1 view .LVU274
 957 0070 D9B2     		uxtb	r1, r3
 958 0072 FFF7FEFF 		bl	USBD_ClrClassConfig
ARM GAS  /tmp/ccOpGw6B.s 			page 38


 959              	.LVL106:
 683:Middlewares/ST/STM32_USB_Device_Library/Core/Src/usbd_ctlreq.c ****           if (USBD_SetClassConfig(pdev, cfgidx) == USBD_FAIL)
 960              		.loc 1 683 11 view .LVU275
 683:Middlewares/ST/STM32_USB_Device_Library/Core/Src/usbd_ctlreq.c ****           if (USBD_SetClassConfig(pdev, cfgidx) == USBD_FAIL)
 961              		.loc 1 683 28 is_stmt 0 view .LVU276
 962 0076 0F4B     		ldr	r3, .L69
 963 0078 1978     		ldrb	r1, [r3]
 964 007a 6160     		str	r1, [r4, #4]
 684:Middlewares/ST/STM32_USB_Device_Library/Core/Src/usbd_ctlreq.c ****           {
 965              		.loc 1 684 11 is_stmt 1 view .LVU277
 684:Middlewares/ST/STM32_USB_Device_Library/Core/Src/usbd_ctlreq.c ****           {
 966              		.loc 1 684 15 is_stmt 0 view .LVU278
 967 007c 2000     		movs	r0, r4
 968 007e FFF7FEFF 		bl	USBD_SetClassConfig
 969              	.LVL107:
 684:Middlewares/ST/STM32_USB_Device_Library/Core/Src/usbd_ctlreq.c ****           {
 970              		.loc 1 684 14 view .LVU279
 971 0082 0228     		cmp	r0, #2
 972 0084 0ED0     		beq	.L68
 689:Middlewares/ST/STM32_USB_Device_Library/Core/Src/usbd_ctlreq.c ****         }
 973              		.loc 1 689 11 is_stmt 1 view .LVU280
 974 0086 2000     		movs	r0, r4
 975 0088 FFF7FEFF 		bl	USBD_CtlSendStatus
 976              	.LVL108:
 977 008c D3E7     		b	.L53
 978              	.LVL109:
 979              	.L67:
 672:Middlewares/ST/STM32_USB_Device_Library/Core/Src/usbd_ctlreq.c ****           pdev->dev_config = cfgidx;
 980              		.loc 1 672 11 view .LVU281
 672:Middlewares/ST/STM32_USB_Device_Library/Core/Src/usbd_ctlreq.c ****           pdev->dev_config = cfgidx;
 981              		.loc 1 672 27 is_stmt 0 view .LVU282
 982 008e A723     		movs	r3, #167
 983 0090 9B00     		lsls	r3, r3, #2
 984 0092 0222     		movs	r2, #2
 985 0094 C254     		strb	r2, [r0, r3]
 673:Middlewares/ST/STM32_USB_Device_Library/Core/Src/usbd_ctlreq.c ****           USBD_ClrClassConfig(pdev, cfgidx);
 986              		.loc 1 673 11 is_stmt 1 view .LVU283
 673:Middlewares/ST/STM32_USB_Device_Library/Core/Src/usbd_ctlreq.c ****           USBD_ClrClassConfig(pdev, cfgidx);
 987              		.loc 1 673 28 is_stmt 0 view .LVU284
 988 0096 4160     		str	r1, [r0, #4]
 674:Middlewares/ST/STM32_USB_Device_Library/Core/Src/usbd_ctlreq.c ****           USBD_CtlSendStatus(pdev);
 989              		.loc 1 674 11 is_stmt 1 view .LVU285
 990 0098 FFF7FEFF 		bl	USBD_ClrClassConfig
 991              	.LVL110:
 675:Middlewares/ST/STM32_USB_Device_Library/Core/Src/usbd_ctlreq.c ****         }
 992              		.loc 1 675 11 view .LVU286
 993 009c 2000     		movs	r0, r4
 994 009e FFF7FEFF 		bl	USBD_CtlSendStatus
 995              	.LVL111:
 996 00a2 C8E7     		b	.L53
 997              	.L68:
 686:Middlewares/ST/STM32_USB_Device_Library/Core/Src/usbd_ctlreq.c ****             return;
 998              		.loc 1 686 13 view .LVU287
 999 00a4 2900     		movs	r1, r5
 1000 00a6 2000     		movs	r0, r4
 1001 00a8 FFF7FEFF 		bl	USBD_CtlError
 1002              	.LVL112:
ARM GAS  /tmp/ccOpGw6B.s 			page 39


 687:Middlewares/ST/STM32_USB_Device_Library/Core/Src/usbd_ctlreq.c ****           }
 1003              		.loc 1 687 13 view .LVU288
 1004 00ac C3E7     		b	.L53
 1005              	.LVL113:
 1006              	.L62:
 693:Middlewares/ST/STM32_USB_Device_Library/Core/Src/usbd_ctlreq.c ****         }
 1007              		.loc 1 693 11 view .LVU289
 1008 00ae FFF7FEFF 		bl	USBD_CtlSendStatus
 1009              	.LVL114:
 693:Middlewares/ST/STM32_USB_Device_Library/Core/Src/usbd_ctlreq.c ****         }
 1010              		.loc 1 693 11 is_stmt 0 view .LVU290
 1011 00b2 C0E7     		b	.L53
 1012              	.L70:
 1013              		.align	2
 1014              	.L69:
 1015 00b4 00000000 		.word	.LANCHOR0
 1016              		.cfi_endproc
 1017              	.LFE48:
 1019              		.section	.text.USBD_GetConfig,"ax",%progbits
 1020              		.align	1
 1021              		.syntax unified
 1022              		.code	16
 1023              		.thumb_func
 1024              		.fpu softvfp
 1026              	USBD_GetConfig:
 1027              	.LVL115:
 1028              	.LFB49:
 713:Middlewares/ST/STM32_USB_Device_Library/Core/Src/usbd_ctlreq.c ****   if (req->wLength != 1U)
 1029              		.loc 1 713 1 is_stmt 1 view -0
 1030              		.cfi_startproc
 1031              		@ args = 0, pretend = 0, frame = 0
 1032              		@ frame_needed = 0, uses_anonymous_args = 0
 713:Middlewares/ST/STM32_USB_Device_Library/Core/Src/usbd_ctlreq.c ****   if (req->wLength != 1U)
 1033              		.loc 1 713 1 is_stmt 0 view .LVU292
 1034 0000 10B5     		push	{r4, lr}
 1035              	.LCFI6:
 1036              		.cfi_def_cfa_offset 8
 1037              		.cfi_offset 4, -8
 1038              		.cfi_offset 14, -4
 714:Middlewares/ST/STM32_USB_Device_Library/Core/Src/usbd_ctlreq.c ****   {
 1039              		.loc 1 714 3 is_stmt 1 view .LVU293
 714:Middlewares/ST/STM32_USB_Device_Library/Core/Src/usbd_ctlreq.c ****   {
 1040              		.loc 1 714 10 is_stmt 0 view .LVU294
 1041 0002 CB88     		ldrh	r3, [r1, #6]
 714:Middlewares/ST/STM32_USB_Device_Library/Core/Src/usbd_ctlreq.c ****   {
 1042              		.loc 1 714 6 view .LVU295
 1043 0004 012B     		cmp	r3, #1
 1044 0006 0BD1     		bne	.L78
 720:Middlewares/ST/STM32_USB_Device_Library/Core/Src/usbd_ctlreq.c ****     {
 1045              		.loc 1 720 5 is_stmt 1 view .LVU296
 720:Middlewares/ST/STM32_USB_Device_Library/Core/Src/usbd_ctlreq.c ****     {
 1046              		.loc 1 720 17 is_stmt 0 view .LVU297
 1047 0008 A723     		movs	r3, #167
 1048 000a 9B00     		lsls	r3, r3, #2
 1049 000c C35C     		ldrb	r3, [r0, r3]
 720:Middlewares/ST/STM32_USB_Device_Library/Core/Src/usbd_ctlreq.c ****     {
 1050              		.loc 1 720 5 view .LVU298
ARM GAS  /tmp/ccOpGw6B.s 			page 40


 1051 000e 022B     		cmp	r3, #2
 1052 0010 09D9     		bls	.L79
 1053 0012 032B     		cmp	r3, #3
 1054 0014 09D1     		bne	.L76
 729:Middlewares/ST/STM32_USB_Device_Library/Core/Src/usbd_ctlreq.c ****         break;
 1055              		.loc 1 729 9 is_stmt 1 view .LVU299
 729:Middlewares/ST/STM32_USB_Device_Library/Core/Src/usbd_ctlreq.c ****         break;
 1056              		.loc 1 729 51 is_stmt 0 view .LVU300
 1057 0016 011D     		adds	r1, r0, #4
 1058              	.LVL116:
 729:Middlewares/ST/STM32_USB_Device_Library/Core/Src/usbd_ctlreq.c ****         break;
 1059              		.loc 1 729 9 view .LVU301
 1060 0018 0122     		movs	r2, #1
 1061 001a FFF7FEFF 		bl	USBD_CtlSendData
 1062              	.LVL117:
 730:Middlewares/ST/STM32_USB_Device_Library/Core/Src/usbd_ctlreq.c **** 
 1063              		.loc 1 730 9 is_stmt 1 view .LVU302
 1064 001e 01E0     		b	.L71
 1065              	.LVL118:
 1066              	.L78:
 716:Middlewares/ST/STM32_USB_Device_Library/Core/Src/usbd_ctlreq.c ****   }
 1067              		.loc 1 716 5 view .LVU303
 1068 0020 FFF7FEFF 		bl	USBD_CtlError
 1069              	.LVL119:
 1070              	.L71:
 737:Middlewares/ST/STM32_USB_Device_Library/Core/Src/usbd_ctlreq.c **** 
 1071              		.loc 1 737 1 is_stmt 0 view .LVU304
 1072              		@ sp needed
 1073 0024 10BD     		pop	{r4, pc}
 1074              	.LVL120:
 1075              	.L79:
 720:Middlewares/ST/STM32_USB_Device_Library/Core/Src/usbd_ctlreq.c ****     {
 1076              		.loc 1 720 5 view .LVU305
 1077 0026 002B     		cmp	r3, #0
 1078 0028 02D1     		bne	.L80
 1079              	.L76:
 733:Middlewares/ST/STM32_USB_Device_Library/Core/Src/usbd_ctlreq.c ****         break;
 1080              		.loc 1 733 9 is_stmt 1 view .LVU306
 1081 002a FFF7FEFF 		bl	USBD_CtlError
 1082              	.LVL121:
 734:Middlewares/ST/STM32_USB_Device_Library/Core/Src/usbd_ctlreq.c ****     }
 1083              		.loc 1 734 9 view .LVU307
 737:Middlewares/ST/STM32_USB_Device_Library/Core/Src/usbd_ctlreq.c **** 
 1084              		.loc 1 737 1 is_stmt 0 view .LVU308
 1085 002e F9E7     		b	.L71
 1086              	.LVL122:
 1087              	.L80:
 724:Middlewares/ST/STM32_USB_Device_Library/Core/Src/usbd_ctlreq.c ****         USBD_CtlSendData(pdev, (uint8_t *)(void *)&pdev->dev_default_config, 1U);
 1088              		.loc 1 724 9 is_stmt 1 view .LVU309
 724:Middlewares/ST/STM32_USB_Device_Library/Core/Src/usbd_ctlreq.c ****         USBD_CtlSendData(pdev, (uint8_t *)(void *)&pdev->dev_default_config, 1U);
 1089              		.loc 1 724 34 is_stmt 0 view .LVU310
 1090 0030 0023     		movs	r3, #0
 1091 0032 8360     		str	r3, [r0, #8]
 725:Middlewares/ST/STM32_USB_Device_Library/Core/Src/usbd_ctlreq.c ****         break;
 1092              		.loc 1 725 9 is_stmt 1 view .LVU311
 725:Middlewares/ST/STM32_USB_Device_Library/Core/Src/usbd_ctlreq.c ****         break;
 1093              		.loc 1 725 51 is_stmt 0 view .LVU312
ARM GAS  /tmp/ccOpGw6B.s 			page 41


 1094 0034 0100     		movs	r1, r0
 1095              	.LVL123:
 725:Middlewares/ST/STM32_USB_Device_Library/Core/Src/usbd_ctlreq.c ****         break;
 1096              		.loc 1 725 51 view .LVU313
 1097 0036 0831     		adds	r1, r1, #8
 725:Middlewares/ST/STM32_USB_Device_Library/Core/Src/usbd_ctlreq.c ****         break;
 1098              		.loc 1 725 9 view .LVU314
 1099 0038 0122     		movs	r2, #1
 1100 003a FFF7FEFF 		bl	USBD_CtlSendData
 1101              	.LVL124:
 726:Middlewares/ST/STM32_USB_Device_Library/Core/Src/usbd_ctlreq.c **** 
 1102              		.loc 1 726 9 is_stmt 1 view .LVU315
 1103 003e F1E7     		b	.L71
 1104              		.cfi_endproc
 1105              	.LFE49:
 1107              		.section	.text.USBD_GetStatus,"ax",%progbits
 1108              		.align	1
 1109              		.syntax unified
 1110              		.code	16
 1111              		.thumb_func
 1112              		.fpu softvfp
 1114              	USBD_GetStatus:
 1115              	.LVL125:
 1116              	.LFB50:
 747:Middlewares/ST/STM32_USB_Device_Library/Core/Src/usbd_ctlreq.c ****   switch (pdev->dev_state)
 1117              		.loc 1 747 1 view -0
 1118              		.cfi_startproc
 1119              		@ args = 0, pretend = 0, frame = 0
 1120              		@ frame_needed = 0, uses_anonymous_args = 0
 747:Middlewares/ST/STM32_USB_Device_Library/Core/Src/usbd_ctlreq.c ****   switch (pdev->dev_state)
 1121              		.loc 1 747 1 is_stmt 0 view .LVU317
 1122 0000 10B5     		push	{r4, lr}
 1123              	.LCFI7:
 1124              		.cfi_def_cfa_offset 8
 1125              		.cfi_offset 4, -8
 1126              		.cfi_offset 14, -4
 748:Middlewares/ST/STM32_USB_Device_Library/Core/Src/usbd_ctlreq.c ****   {
 1127              		.loc 1 748 3 is_stmt 1 view .LVU318
 748:Middlewares/ST/STM32_USB_Device_Library/Core/Src/usbd_ctlreq.c ****   {
 1128              		.loc 1 748 15 is_stmt 0 view .LVU319
 1129 0002 A723     		movs	r3, #167
 1130 0004 9B00     		lsls	r3, r3, #2
 1131 0006 C35C     		ldrb	r3, [r0, r3]
 748:Middlewares/ST/STM32_USB_Device_Library/Core/Src/usbd_ctlreq.c ****   {
 1132              		.loc 1 748 3 view .LVU320
 1133 0008 013B     		subs	r3, r3, #1
 1134 000a 022B     		cmp	r3, #2
 1135 000c 14D8     		bhi	.L82
 753:Middlewares/ST/STM32_USB_Device_Library/Core/Src/usbd_ctlreq.c ****       {
 1136              		.loc 1 753 7 is_stmt 1 view .LVU321
 753:Middlewares/ST/STM32_USB_Device_Library/Core/Src/usbd_ctlreq.c ****       {
 1137              		.loc 1 753 14 is_stmt 0 view .LVU322
 1138 000e CB88     		ldrh	r3, [r1, #6]
 753:Middlewares/ST/STM32_USB_Device_Library/Core/Src/usbd_ctlreq.c ****       {
 1139              		.loc 1 753 10 view .LVU323
 1140 0010 022B     		cmp	r3, #2
 1141 0012 0ED1     		bne	.L86
ARM GAS  /tmp/ccOpGw6B.s 			page 42


 760:Middlewares/ST/STM32_USB_Device_Library/Core/Src/usbd_ctlreq.c **** #else
 1142              		.loc 1 760 7 is_stmt 1 view .LVU324
 760:Middlewares/ST/STM32_USB_Device_Library/Core/Src/usbd_ctlreq.c **** #else
 1143              		.loc 1 760 31 is_stmt 0 view .LVU325
 1144 0014 0123     		movs	r3, #1
 1145 0016 C360     		str	r3, [r0, #12]
 765:Middlewares/ST/STM32_USB_Device_Library/Core/Src/usbd_ctlreq.c ****       {
 1146              		.loc 1 765 7 is_stmt 1 view .LVU326
 765:Middlewares/ST/STM32_USB_Device_Library/Core/Src/usbd_ctlreq.c ****       {
 1147              		.loc 1 765 15 is_stmt 0 view .LVU327
 1148 0018 A923     		movs	r3, #169
 1149 001a 9B00     		lsls	r3, r3, #2
 1150 001c C358     		ldr	r3, [r0, r3]
 765:Middlewares/ST/STM32_USB_Device_Library/Core/Src/usbd_ctlreq.c ****       {
 1151              		.loc 1 765 10 view .LVU328
 1152 001e 002B     		cmp	r3, #0
 1153 0020 01D0     		beq	.L85
 767:Middlewares/ST/STM32_USB_Device_Library/Core/Src/usbd_ctlreq.c ****       }
 1154              		.loc 1 767 9 is_stmt 1 view .LVU329
 767:Middlewares/ST/STM32_USB_Device_Library/Core/Src/usbd_ctlreq.c ****       }
 1155              		.loc 1 767 33 is_stmt 0 view .LVU330
 1156 0022 0323     		movs	r3, #3
 1157 0024 C360     		str	r3, [r0, #12]
 1158              	.L85:
 770:Middlewares/ST/STM32_USB_Device_Library/Core/Src/usbd_ctlreq.c ****       break;
 1159              		.loc 1 770 7 is_stmt 1 view .LVU331
 770:Middlewares/ST/STM32_USB_Device_Library/Core/Src/usbd_ctlreq.c ****       break;
 1160              		.loc 1 770 49 is_stmt 0 view .LVU332
 1161 0026 0100     		movs	r1, r0
 1162              	.LVL126:
 770:Middlewares/ST/STM32_USB_Device_Library/Core/Src/usbd_ctlreq.c ****       break;
 1163              		.loc 1 770 49 view .LVU333
 1164 0028 0C31     		adds	r1, r1, #12
 770:Middlewares/ST/STM32_USB_Device_Library/Core/Src/usbd_ctlreq.c ****       break;
 1165              		.loc 1 770 7 view .LVU334
 1166 002a 0222     		movs	r2, #2
 1167 002c FFF7FEFF 		bl	USBD_CtlSendData
 1168              	.LVL127:
 771:Middlewares/ST/STM32_USB_Device_Library/Core/Src/usbd_ctlreq.c **** 
 1169              		.loc 1 771 7 is_stmt 1 view .LVU335
 1170              	.L81:
 777:Middlewares/ST/STM32_USB_Device_Library/Core/Src/usbd_ctlreq.c **** 
 1171              		.loc 1 777 1 is_stmt 0 view .LVU336
 1172              		@ sp needed
 1173 0030 10BD     		pop	{r4, pc}
 1174              	.LVL128:
 1175              	.L86:
 755:Middlewares/ST/STM32_USB_Device_Library/Core/Src/usbd_ctlreq.c ****         break;
 1176              		.loc 1 755 9 is_stmt 1 view .LVU337
 1177 0032 FFF7FEFF 		bl	USBD_CtlError
 1178              	.LVL129:
 756:Middlewares/ST/STM32_USB_Device_Library/Core/Src/usbd_ctlreq.c ****       }
 1179              		.loc 1 756 9 view .LVU338
 1180 0036 FBE7     		b	.L81
 1181              	.LVL130:
 1182              	.L82:
 774:Middlewares/ST/STM32_USB_Device_Library/Core/Src/usbd_ctlreq.c ****       break;
ARM GAS  /tmp/ccOpGw6B.s 			page 43


 1183              		.loc 1 774 7 view .LVU339
 1184 0038 FFF7FEFF 		bl	USBD_CtlError
 1185              	.LVL131:
 775:Middlewares/ST/STM32_USB_Device_Library/Core/Src/usbd_ctlreq.c ****   }
 1186              		.loc 1 775 7 view .LVU340
 777:Middlewares/ST/STM32_USB_Device_Library/Core/Src/usbd_ctlreq.c **** 
 1187              		.loc 1 777 1 is_stmt 0 view .LVU341
 1188 003c F8E7     		b	.L81
 1189              		.cfi_endproc
 1190              	.LFE50:
 1192              		.section	.text.USBD_ClrFeature,"ax",%progbits
 1193              		.align	1
 1194              		.syntax unified
 1195              		.code	16
 1196              		.thumb_func
 1197              		.fpu softvfp
 1199              	USBD_ClrFeature:
 1200              	.LVL132:
 1201              	.LFB52:
 807:Middlewares/ST/STM32_USB_Device_Library/Core/Src/usbd_ctlreq.c ****   switch (pdev->dev_state)
 1202              		.loc 1 807 1 is_stmt 1 view -0
 1203              		.cfi_startproc
 1204              		@ args = 0, pretend = 0, frame = 0
 1205              		@ frame_needed = 0, uses_anonymous_args = 0
 807:Middlewares/ST/STM32_USB_Device_Library/Core/Src/usbd_ctlreq.c ****   switch (pdev->dev_state)
 1206              		.loc 1 807 1 is_stmt 0 view .LVU343
 1207 0000 10B5     		push	{r4, lr}
 1208              	.LCFI8:
 1209              		.cfi_def_cfa_offset 8
 1210              		.cfi_offset 4, -8
 1211              		.cfi_offset 14, -4
 808:Middlewares/ST/STM32_USB_Device_Library/Core/Src/usbd_ctlreq.c ****   {
 1212              		.loc 1 808 3 is_stmt 1 view .LVU344
 808:Middlewares/ST/STM32_USB_Device_Library/Core/Src/usbd_ctlreq.c ****   {
 1213              		.loc 1 808 15 is_stmt 0 view .LVU345
 1214 0002 A723     		movs	r3, #167
 1215 0004 9B00     		lsls	r3, r3, #2
 1216 0006 C35C     		ldrb	r3, [r0, r3]
 808:Middlewares/ST/STM32_USB_Device_Library/Core/Src/usbd_ctlreq.c ****   {
 1217              		.loc 1 808 3 view .LVU346
 1218 0008 013B     		subs	r3, r3, #1
 1219 000a 022B     		cmp	r3, #2
 1220 000c 0AD8     		bhi	.L88
 813:Middlewares/ST/STM32_USB_Device_Library/Core/Src/usbd_ctlreq.c ****       {
 1221              		.loc 1 813 7 is_stmt 1 view .LVU347
 813:Middlewares/ST/STM32_USB_Device_Library/Core/Src/usbd_ctlreq.c ****       {
 1222              		.loc 1 813 14 is_stmt 0 view .LVU348
 1223 000e 4B88     		ldrh	r3, [r1, #2]
 813:Middlewares/ST/STM32_USB_Device_Library/Core/Src/usbd_ctlreq.c ****       {
 1224              		.loc 1 813 10 view .LVU349
 1225 0010 012B     		cmp	r3, #1
 1226 0012 00D0     		beq	.L90
 1227              	.LVL133:
 1228              	.L87:
 824:Middlewares/ST/STM32_USB_Device_Library/Core/Src/usbd_ctlreq.c **** 
 1229              		.loc 1 824 1 view .LVU350
 1230              		@ sp needed
ARM GAS  /tmp/ccOpGw6B.s 			page 44


 1231 0014 10BD     		pop	{r4, pc}
 1232              	.LVL134:
 1233              	.L90:
 815:Middlewares/ST/STM32_USB_Device_Library/Core/Src/usbd_ctlreq.c ****         USBD_CtlSendStatus(pdev);
 1234              		.loc 1 815 9 is_stmt 1 view .LVU351
 815:Middlewares/ST/STM32_USB_Device_Library/Core/Src/usbd_ctlreq.c ****         USBD_CtlSendStatus(pdev);
 1235              		.loc 1 815 33 is_stmt 0 view .LVU352
 1236 0016 A923     		movs	r3, #169
 1237 0018 9B00     		lsls	r3, r3, #2
 1238 001a 0022     		movs	r2, #0
 1239 001c C250     		str	r2, [r0, r3]
 816:Middlewares/ST/STM32_USB_Device_Library/Core/Src/usbd_ctlreq.c ****       }
 1240              		.loc 1 816 9 is_stmt 1 view .LVU353
 1241 001e FFF7FEFF 		bl	USBD_CtlSendStatus
 1242              	.LVL135:
 816:Middlewares/ST/STM32_USB_Device_Library/Core/Src/usbd_ctlreq.c ****       }
 1243              		.loc 1 816 9 is_stmt 0 view .LVU354
 1244 0022 F7E7     		b	.L87
 1245              	.LVL136:
 1246              	.L88:
 821:Middlewares/ST/STM32_USB_Device_Library/Core/Src/usbd_ctlreq.c ****       break;
 1247              		.loc 1 821 7 is_stmt 1 view .LVU355
 1248 0024 FFF7FEFF 		bl	USBD_CtlError
 1249              	.LVL137:
 822:Middlewares/ST/STM32_USB_Device_Library/Core/Src/usbd_ctlreq.c ****   }
 1250              		.loc 1 822 7 view .LVU356
 824:Middlewares/ST/STM32_USB_Device_Library/Core/Src/usbd_ctlreq.c **** 
 1251              		.loc 1 824 1 is_stmt 0 view .LVU357
 1252 0028 F4E7     		b	.L87
 1253              		.cfi_endproc
 1254              	.LFE52:
 1256              		.section	.text.USBD_StdDevReq,"ax",%progbits
 1257              		.align	1
 1258              		.global	USBD_StdDevReq
 1259              		.syntax unified
 1260              		.code	16
 1261              		.thumb_func
 1262              		.fpu softvfp
 1264              	USBD_StdDevReq:
 1265              	.LVL138:
 1266              	.LFB43:
 116:Middlewares/ST/STM32_USB_Device_Library/Core/Src/usbd_ctlreq.c ****   USBD_StatusTypeDef ret = USBD_OK;
 1267              		.loc 1 116 1 is_stmt 1 view -0
 1268              		.cfi_startproc
 1269              		@ args = 0, pretend = 0, frame = 0
 1270              		@ frame_needed = 0, uses_anonymous_args = 0
 116:Middlewares/ST/STM32_USB_Device_Library/Core/Src/usbd_ctlreq.c ****   USBD_StatusTypeDef ret = USBD_OK;
 1271              		.loc 1 116 1 is_stmt 0 view .LVU359
 1272 0000 10B5     		push	{r4, lr}
 1273              	.LCFI9:
 1274              		.cfi_def_cfa_offset 8
 1275              		.cfi_offset 4, -8
 1276              		.cfi_offset 14, -4
 117:Middlewares/ST/STM32_USB_Device_Library/Core/Src/usbd_ctlreq.c **** 
 1277              		.loc 1 117 3 is_stmt 1 view .LVU360
 1278              	.LVL139:
 119:Middlewares/ST/STM32_USB_Device_Library/Core/Src/usbd_ctlreq.c ****   {
ARM GAS  /tmp/ccOpGw6B.s 			page 45


 1279              		.loc 1 119 3 view .LVU361
 119:Middlewares/ST/STM32_USB_Device_Library/Core/Src/usbd_ctlreq.c ****   {
 1280              		.loc 1 119 14 is_stmt 0 view .LVU362
 1281 0002 0A78     		ldrb	r2, [r1]
 1282 0004 6023     		movs	r3, #96
 1283 0006 1340     		ands	r3, r2
 119:Middlewares/ST/STM32_USB_Device_Library/Core/Src/usbd_ctlreq.c ****   {
 1284              		.loc 1 119 3 view .LVU363
 1285 0008 202B     		cmp	r3, #32
 1286 000a 06D0     		beq	.L92
 1287 000c 402B     		cmp	r3, #64
 1288 000e 04D0     		beq	.L92
 1289 0010 002B     		cmp	r3, #0
 1290 0012 09D0     		beq	.L106
 164:Middlewares/ST/STM32_USB_Device_Library/Core/Src/usbd_ctlreq.c ****       break;
 1291              		.loc 1 164 7 is_stmt 1 view .LVU364
 1292 0014 FFF7FEFF 		bl	USBD_CtlError
 1293              	.LVL140:
 165:Middlewares/ST/STM32_USB_Device_Library/Core/Src/usbd_ctlreq.c ****   }
 1294              		.loc 1 165 7 view .LVU365
 1295 0018 04E0     		b	.L95
 1296              	.LVL141:
 1297              	.L92:
 123:Middlewares/ST/STM32_USB_Device_Library/Core/Src/usbd_ctlreq.c ****       break;
 1298              		.loc 1 123 7 view .LVU366
 123:Middlewares/ST/STM32_USB_Device_Library/Core/Src/usbd_ctlreq.c ****       break;
 1299              		.loc 1 123 11 is_stmt 0 view .LVU367
 1300 001a AD23     		movs	r3, #173
 1301 001c 9B00     		lsls	r3, r3, #2
 1302 001e C358     		ldr	r3, [r0, r3]
 123:Middlewares/ST/STM32_USB_Device_Library/Core/Src/usbd_ctlreq.c ****       break;
 1303              		.loc 1 123 19 view .LVU368
 1304 0020 9B68     		ldr	r3, [r3, #8]
 123:Middlewares/ST/STM32_USB_Device_Library/Core/Src/usbd_ctlreq.c ****       break;
 1305              		.loc 1 123 7 view .LVU369
 1306 0022 9847     		blx	r3
 1307              	.LVL142:
 124:Middlewares/ST/STM32_USB_Device_Library/Core/Src/usbd_ctlreq.c **** 
 1308              		.loc 1 124 7 is_stmt 1 view .LVU370
 1309              	.L95:
 168:Middlewares/ST/STM32_USB_Device_Library/Core/Src/usbd_ctlreq.c **** }
 1310              		.loc 1 168 3 view .LVU371
 169:Middlewares/ST/STM32_USB_Device_Library/Core/Src/usbd_ctlreq.c **** 
 1311              		.loc 1 169 1 is_stmt 0 view .LVU372
 1312 0024 0020     		movs	r0, #0
 1313              		@ sp needed
 1314 0026 10BD     		pop	{r4, pc}
 1315              	.LVL143:
 1316              	.L106:
 127:Middlewares/ST/STM32_USB_Device_Library/Core/Src/usbd_ctlreq.c ****       {
 1317              		.loc 1 127 7 is_stmt 1 view .LVU373
 127:Middlewares/ST/STM32_USB_Device_Library/Core/Src/usbd_ctlreq.c ****       {
 1318              		.loc 1 127 18 is_stmt 0 view .LVU374
 1319 0028 4B78     		ldrb	r3, [r1, #1]
 1320 002a 092B     		cmp	r3, #9
 1321 002c 18D8     		bhi	.L96
 1322 002e 9B00     		lsls	r3, r3, #2
ARM GAS  /tmp/ccOpGw6B.s 			page 46


 1323 0030 0D4A     		ldr	r2, .L107
 1324 0032 D358     		ldr	r3, [r2, r3]
 1325 0034 9F46     		mov	pc, r3
 1326              		.section	.rodata.USBD_StdDevReq,"a",%progbits
 1327              		.align	2
 1328              	.L98:
 1329 0000 4E000000 		.word	.L104
 1330 0004 5A000000 		.word	.L103
 1331 0008 60000000 		.word	.L96
 1332 000c 54000000 		.word	.L102
 1333 0010 60000000 		.word	.L96
 1334 0014 3C000000 		.word	.L101
 1335 0018 36000000 		.word	.L100
 1336 001c 60000000 		.word	.L96
 1337 0020 48000000 		.word	.L99
 1338 0024 42000000 		.word	.L97
 1339              		.section	.text.USBD_StdDevReq
 1340              	.L100:
 130:Middlewares/ST/STM32_USB_Device_Library/Core/Src/usbd_ctlreq.c ****           break;
 1341              		.loc 1 130 11 is_stmt 1 view .LVU375
 1342 0036 FFF7FEFF 		bl	USBD_GetDescriptor
 1343              	.LVL144:
 131:Middlewares/ST/STM32_USB_Device_Library/Core/Src/usbd_ctlreq.c **** 
 1344              		.loc 1 131 11 view .LVU376
 1345 003a F3E7     		b	.L95
 1346              	.LVL145:
 1347              	.L101:
 134:Middlewares/ST/STM32_USB_Device_Library/Core/Src/usbd_ctlreq.c ****           break;
 1348              		.loc 1 134 11 view .LVU377
 1349 003c FFF7FEFF 		bl	USBD_SetAddress
 1350              	.LVL146:
 135:Middlewares/ST/STM32_USB_Device_Library/Core/Src/usbd_ctlreq.c **** 
 1351              		.loc 1 135 11 view .LVU378
 1352 0040 F0E7     		b	.L95
 1353              	.LVL147:
 1354              	.L97:
 138:Middlewares/ST/STM32_USB_Device_Library/Core/Src/usbd_ctlreq.c ****           break;
 1355              		.loc 1 138 11 view .LVU379
 1356 0042 FFF7FEFF 		bl	USBD_SetConfig
 1357              	.LVL148:
 139:Middlewares/ST/STM32_USB_Device_Library/Core/Src/usbd_ctlreq.c **** 
 1358              		.loc 1 139 11 view .LVU380
 1359 0046 EDE7     		b	.L95
 1360              	.LVL149:
 1361              	.L99:
 142:Middlewares/ST/STM32_USB_Device_Library/Core/Src/usbd_ctlreq.c ****           break;
 1362              		.loc 1 142 11 view .LVU381
 1363 0048 FFF7FEFF 		bl	USBD_GetConfig
 1364              	.LVL150:
 143:Middlewares/ST/STM32_USB_Device_Library/Core/Src/usbd_ctlreq.c **** 
 1365              		.loc 1 143 11 view .LVU382
 1366 004c EAE7     		b	.L95
 1367              	.LVL151:
 1368              	.L104:
 146:Middlewares/ST/STM32_USB_Device_Library/Core/Src/usbd_ctlreq.c ****           break;
 1369              		.loc 1 146 11 view .LVU383
 1370 004e FFF7FEFF 		bl	USBD_GetStatus
ARM GAS  /tmp/ccOpGw6B.s 			page 47


 1371              	.LVL152:
 147:Middlewares/ST/STM32_USB_Device_Library/Core/Src/usbd_ctlreq.c **** 
 1372              		.loc 1 147 11 view .LVU384
 1373 0052 E7E7     		b	.L95
 1374              	.LVL153:
 1375              	.L102:
 150:Middlewares/ST/STM32_USB_Device_Library/Core/Src/usbd_ctlreq.c ****           break;
 1376              		.loc 1 150 11 view .LVU385
 1377 0054 FFF7FEFF 		bl	USBD_SetFeature
 1378              	.LVL154:
 151:Middlewares/ST/STM32_USB_Device_Library/Core/Src/usbd_ctlreq.c **** 
 1379              		.loc 1 151 11 view .LVU386
 1380 0058 E4E7     		b	.L95
 1381              	.LVL155:
 1382              	.L103:
 154:Middlewares/ST/STM32_USB_Device_Library/Core/Src/usbd_ctlreq.c ****           break;
 1383              		.loc 1 154 11 view .LVU387
 1384 005a FFF7FEFF 		bl	USBD_ClrFeature
 1385              	.LVL156:
 155:Middlewares/ST/STM32_USB_Device_Library/Core/Src/usbd_ctlreq.c **** 
 1386              		.loc 1 155 11 view .LVU388
 1387 005e E1E7     		b	.L95
 1388              	.LVL157:
 1389              	.L96:
 158:Middlewares/ST/STM32_USB_Device_Library/Core/Src/usbd_ctlreq.c ****           break;
 1390              		.loc 1 158 11 view .LVU389
 1391 0060 FFF7FEFF 		bl	USBD_CtlError
 1392              	.LVL158:
 159:Middlewares/ST/STM32_USB_Device_Library/Core/Src/usbd_ctlreq.c ****       }
 1393              		.loc 1 159 11 view .LVU390
 1394 0064 DEE7     		b	.L95
 1395              	.L108:
 1396 0066 C046     		.align	2
 1397              	.L107:
 1398 0068 00000000 		.word	.L98
 1399              		.cfi_endproc
 1400              	.LFE43:
 1402              		.section	.text.USBD_StdItfReq,"ax",%progbits
 1403              		.align	1
 1404              		.global	USBD_StdItfReq
 1405              		.syntax unified
 1406              		.code	16
 1407              		.thumb_func
 1408              		.fpu softvfp
 1410              	USBD_StdItfReq:
 1411              	.LVL159:
 1412              	.LFB44:
 180:Middlewares/ST/STM32_USB_Device_Library/Core/Src/usbd_ctlreq.c ****   USBD_StatusTypeDef ret = USBD_OK;
 1413              		.loc 1 180 1 view -0
 1414              		.cfi_startproc
 1415              		@ args = 0, pretend = 0, frame = 0
 1416              		@ frame_needed = 0, uses_anonymous_args = 0
 180:Middlewares/ST/STM32_USB_Device_Library/Core/Src/usbd_ctlreq.c ****   USBD_StatusTypeDef ret = USBD_OK;
 1417              		.loc 1 180 1 is_stmt 0 view .LVU392
 1418 0000 70B5     		push	{r4, r5, r6, lr}
 1419              	.LCFI10:
 1420              		.cfi_def_cfa_offset 16
ARM GAS  /tmp/ccOpGw6B.s 			page 48


 1421              		.cfi_offset 4, -16
 1422              		.cfi_offset 5, -12
 1423              		.cfi_offset 6, -8
 1424              		.cfi_offset 14, -4
 1425 0002 0500     		movs	r5, r0
 1426 0004 0C00     		movs	r4, r1
 181:Middlewares/ST/STM32_USB_Device_Library/Core/Src/usbd_ctlreq.c **** 
 1427              		.loc 1 181 3 is_stmt 1 view .LVU393
 1428              	.LVL160:
 183:Middlewares/ST/STM32_USB_Device_Library/Core/Src/usbd_ctlreq.c ****   {
 1429              		.loc 1 183 3 view .LVU394
 183:Middlewares/ST/STM32_USB_Device_Library/Core/Src/usbd_ctlreq.c ****   {
 1430              		.loc 1 183 14 is_stmt 0 view .LVU395
 1431 0006 0A78     		ldrb	r2, [r1]
 1432 0008 6023     		movs	r3, #96
 1433 000a 1340     		ands	r3, r2
 183:Middlewares/ST/STM32_USB_Device_Library/Core/Src/usbd_ctlreq.c ****   {
 1434              		.loc 1 183 3 view .LVU396
 1435 000c 202B     		cmp	r3, #32
 1436 000e 07D0     		beq	.L110
 1437 0010 402B     		cmp	r3, #64
 1438 0012 05D0     		beq	.L110
 1439 0014 002B     		cmp	r3, #0
 1440 0016 03D0     		beq	.L110
 216:Middlewares/ST/STM32_USB_Device_Library/Core/Src/usbd_ctlreq.c ****       break;
 1441              		.loc 1 216 7 is_stmt 1 view .LVU397
 1442 0018 FFF7FEFF 		bl	USBD_CtlError
 1443              	.LVL161:
 217:Middlewares/ST/STM32_USB_Device_Library/Core/Src/usbd_ctlreq.c ****   }
 1444              		.loc 1 217 7 view .LVU398
 1445              	.L114:
 220:Middlewares/ST/STM32_USB_Device_Library/Core/Src/usbd_ctlreq.c **** }
 1446              		.loc 1 220 3 view .LVU399
 221:Middlewares/ST/STM32_USB_Device_Library/Core/Src/usbd_ctlreq.c **** 
 1447              		.loc 1 221 1 is_stmt 0 view .LVU400
 1448 001c 0020     		movs	r0, #0
 1449              		@ sp needed
 1450              	.LVL162:
 1451              	.LVL163:
 221:Middlewares/ST/STM32_USB_Device_Library/Core/Src/usbd_ctlreq.c **** 
 1452              		.loc 1 221 1 view .LVU401
 1453 001e 70BD     		pop	{r4, r5, r6, pc}
 1454              	.LVL164:
 1455              	.L110:
 188:Middlewares/ST/STM32_USB_Device_Library/Core/Src/usbd_ctlreq.c ****       {
 1456              		.loc 1 188 7 is_stmt 1 view .LVU402
 188:Middlewares/ST/STM32_USB_Device_Library/Core/Src/usbd_ctlreq.c ****       {
 1457              		.loc 1 188 19 is_stmt 0 view .LVU403
 1458 0020 A723     		movs	r3, #167
 1459 0022 9B00     		lsls	r3, r3, #2
 1460 0024 EB5C     		ldrb	r3, [r5, r3]
 1461 0026 013B     		subs	r3, r3, #1
 1462 0028 022B     		cmp	r3, #2
 1463 002a 17D8     		bhi	.L112
 194:Middlewares/ST/STM32_USB_Device_Library/Core/Src/usbd_ctlreq.c ****           {
 1464              		.loc 1 194 11 is_stmt 1 view .LVU404
 194:Middlewares/ST/STM32_USB_Device_Library/Core/Src/usbd_ctlreq.c ****           {
ARM GAS  /tmp/ccOpGw6B.s 			page 49


 1465              		.loc 1 194 15 is_stmt 0 view .LVU405
 1466 002c 2379     		ldrb	r3, [r4, #4]
 194:Middlewares/ST/STM32_USB_Device_Library/Core/Src/usbd_ctlreq.c ****           {
 1467              		.loc 1 194 14 view .LVU406
 1468 002e 012B     		cmp	r3, #1
 1469 0030 0FD8     		bhi	.L113
 196:Middlewares/ST/STM32_USB_Device_Library/Core/Src/usbd_ctlreq.c **** 
 1470              		.loc 1 196 13 is_stmt 1 view .LVU407
 196:Middlewares/ST/STM32_USB_Device_Library/Core/Src/usbd_ctlreq.c **** 
 1471              		.loc 1 196 43 is_stmt 0 view .LVU408
 1472 0032 AD23     		movs	r3, #173
 1473 0034 9B00     		lsls	r3, r3, #2
 1474 0036 EB58     		ldr	r3, [r5, r3]
 196:Middlewares/ST/STM32_USB_Device_Library/Core/Src/usbd_ctlreq.c **** 
 1475              		.loc 1 196 51 view .LVU409
 1476 0038 9B68     		ldr	r3, [r3, #8]
 196:Middlewares/ST/STM32_USB_Device_Library/Core/Src/usbd_ctlreq.c **** 
 1477              		.loc 1 196 39 view .LVU410
 1478 003a 2100     		movs	r1, r4
 1479              	.LVL165:
 196:Middlewares/ST/STM32_USB_Device_Library/Core/Src/usbd_ctlreq.c **** 
 1480              		.loc 1 196 39 view .LVU411
 1481 003c 2800     		movs	r0, r5
 1482              	.LVL166:
 196:Middlewares/ST/STM32_USB_Device_Library/Core/Src/usbd_ctlreq.c **** 
 1483              		.loc 1 196 39 view .LVU412
 1484 003e 9847     		blx	r3
 1485              	.LVL167:
 198:Middlewares/ST/STM32_USB_Device_Library/Core/Src/usbd_ctlreq.c ****             {
 1486              		.loc 1 198 13 is_stmt 1 view .LVU413
 198:Middlewares/ST/STM32_USB_Device_Library/Core/Src/usbd_ctlreq.c ****             {
 1487              		.loc 1 198 21 is_stmt 0 view .LVU414
 1488 0040 E388     		ldrh	r3, [r4, #6]
 198:Middlewares/ST/STM32_USB_Device_Library/Core/Src/usbd_ctlreq.c ****             {
 1489              		.loc 1 198 16 view .LVU415
 1490 0042 002B     		cmp	r3, #0
 1491 0044 EAD1     		bne	.L114
 198:Middlewares/ST/STM32_USB_Device_Library/Core/Src/usbd_ctlreq.c ****             {
 1492              		.loc 1 198 38 discriminator 1 view .LVU416
 1493 0046 0028     		cmp	r0, #0
 1494 0048 E8D1     		bne	.L114
 200:Middlewares/ST/STM32_USB_Device_Library/Core/Src/usbd_ctlreq.c ****             }
 1495              		.loc 1 200 15 is_stmt 1 view .LVU417
 1496 004a 2800     		movs	r0, r5
 1497              	.LVL168:
 200:Middlewares/ST/STM32_USB_Device_Library/Core/Src/usbd_ctlreq.c ****             }
 1498              		.loc 1 200 15 is_stmt 0 view .LVU418
 1499 004c FFF7FEFF 		bl	USBD_CtlSendStatus
 1500              	.LVL169:
 1501 0050 E4E7     		b	.L114
 1502              	.LVL170:
 1503              	.L113:
 205:Middlewares/ST/STM32_USB_Device_Library/Core/Src/usbd_ctlreq.c ****           }
 1504              		.loc 1 205 13 is_stmt 1 view .LVU419
 1505 0052 2100     		movs	r1, r4
 1506              	.LVL171:
 205:Middlewares/ST/STM32_USB_Device_Library/Core/Src/usbd_ctlreq.c ****           }
ARM GAS  /tmp/ccOpGw6B.s 			page 50


 1507              		.loc 1 205 13 is_stmt 0 view .LVU420
 1508 0054 2800     		movs	r0, r5
 1509              	.LVL172:
 205:Middlewares/ST/STM32_USB_Device_Library/Core/Src/usbd_ctlreq.c ****           }
 1510              		.loc 1 205 13 view .LVU421
 1511 0056 FFF7FEFF 		bl	USBD_CtlError
 1512              	.LVL173:
 1513 005a DFE7     		b	.L114
 1514              	.LVL174:
 1515              	.L112:
 210:Middlewares/ST/STM32_USB_Device_Library/Core/Src/usbd_ctlreq.c ****           break;
 1516              		.loc 1 210 11 is_stmt 1 view .LVU422
 1517 005c 2100     		movs	r1, r4
 1518              	.LVL175:
 210:Middlewares/ST/STM32_USB_Device_Library/Core/Src/usbd_ctlreq.c ****           break;
 1519              		.loc 1 210 11 is_stmt 0 view .LVU423
 1520 005e 2800     		movs	r0, r5
 1521              	.LVL176:
 210:Middlewares/ST/STM32_USB_Device_Library/Core/Src/usbd_ctlreq.c ****           break;
 1522              		.loc 1 210 11 view .LVU424
 1523 0060 FFF7FEFF 		bl	USBD_CtlError
 1524              	.LVL177:
 211:Middlewares/ST/STM32_USB_Device_Library/Core/Src/usbd_ctlreq.c ****       }
 1525              		.loc 1 211 11 is_stmt 1 view .LVU425
 1526 0064 DAE7     		b	.L114
 1527              		.cfi_endproc
 1528              	.LFE44:
 1530              		.section	.text.USBD_StdEPReq,"ax",%progbits
 1531              		.align	1
 1532              		.global	USBD_StdEPReq
 1533              		.syntax unified
 1534              		.code	16
 1535              		.thumb_func
 1536              		.fpu softvfp
 1538              	USBD_StdEPReq:
 1539              	.LVL178:
 1540              	.LFB45:
 232:Middlewares/ST/STM32_USB_Device_Library/Core/Src/usbd_ctlreq.c ****   USBD_EndpointTypeDef *pep;
 1541              		.loc 1 232 1 view -0
 1542              		.cfi_startproc
 1543              		@ args = 0, pretend = 0, frame = 0
 1544              		@ frame_needed = 0, uses_anonymous_args = 0
 232:Middlewares/ST/STM32_USB_Device_Library/Core/Src/usbd_ctlreq.c ****   USBD_EndpointTypeDef *pep;
 1545              		.loc 1 232 1 is_stmt 0 view .LVU427
 1546 0000 70B5     		push	{r4, r5, r6, lr}
 1547              	.LCFI11:
 1548              		.cfi_def_cfa_offset 16
 1549              		.cfi_offset 4, -16
 1550              		.cfi_offset 5, -12
 1551              		.cfi_offset 6, -8
 1552              		.cfi_offset 14, -4
 1553 0002 0500     		movs	r5, r0
 233:Middlewares/ST/STM32_USB_Device_Library/Core/Src/usbd_ctlreq.c ****   uint8_t   ep_addr;
 1554              		.loc 1 233 3 is_stmt 1 view .LVU428
 234:Middlewares/ST/STM32_USB_Device_Library/Core/Src/usbd_ctlreq.c ****   USBD_StatusTypeDef ret = USBD_OK;
 1555              		.loc 1 234 3 view .LVU429
 235:Middlewares/ST/STM32_USB_Device_Library/Core/Src/usbd_ctlreq.c ****   ep_addr  = LOBYTE(req->wIndex);
ARM GAS  /tmp/ccOpGw6B.s 			page 51


 1556              		.loc 1 235 3 view .LVU430
 1557              	.LVL179:
 236:Middlewares/ST/STM32_USB_Device_Library/Core/Src/usbd_ctlreq.c **** 
 1558              		.loc 1 236 3 view .LVU431
 236:Middlewares/ST/STM32_USB_Device_Library/Core/Src/usbd_ctlreq.c **** 
 1559              		.loc 1 236 14 is_stmt 0 view .LVU432
 1560 0004 8888     		ldrh	r0, [r1, #4]
 1561              	.LVL180:
 236:Middlewares/ST/STM32_USB_Device_Library/Core/Src/usbd_ctlreq.c **** 
 1562              		.loc 1 236 12 view .LVU433
 1563 0006 0A79     		ldrb	r2, [r1, #4]
 1564              	.LVL181:
 238:Middlewares/ST/STM32_USB_Device_Library/Core/Src/usbd_ctlreq.c ****   {
 1565              		.loc 1 238 3 is_stmt 1 view .LVU434
 238:Middlewares/ST/STM32_USB_Device_Library/Core/Src/usbd_ctlreq.c ****   {
 1566              		.loc 1 238 14 is_stmt 0 view .LVU435
 1567 0008 0B78     		ldrb	r3, [r1]
 1568 000a 6024     		movs	r4, #96
 1569 000c 1C40     		ands	r4, r3
 238:Middlewares/ST/STM32_USB_Device_Library/Core/Src/usbd_ctlreq.c ****   {
 1570              		.loc 1 238 3 view .LVU436
 1571 000e 202C     		cmp	r4, #32
 1572 0010 08D0     		beq	.L116
 1573 0012 402C     		cmp	r4, #64
 1574 0014 06D0     		beq	.L116
 1575 0016 002C     		cmp	r4, #0
 1576 0018 0DD0     		beq	.L154
 390:Middlewares/ST/STM32_USB_Device_Library/Core/Src/usbd_ctlreq.c ****       break;
 1577              		.loc 1 390 7 is_stmt 1 view .LVU437
 1578 001a 2800     		movs	r0, r5
 1579 001c FFF7FEFF 		bl	USBD_CtlError
 1580              	.LVL182:
 391:Middlewares/ST/STM32_USB_Device_Library/Core/Src/usbd_ctlreq.c ****   }
 1581              		.loc 1 391 7 view .LVU438
 394:Middlewares/ST/STM32_USB_Device_Library/Core/Src/usbd_ctlreq.c **** }
 1582              		.loc 1 394 10 is_stmt 0 view .LVU439
 1583 0020 0024     		movs	r4, #0
 391:Middlewares/ST/STM32_USB_Device_Library/Core/Src/usbd_ctlreq.c ****   }
 1584              		.loc 1 391 7 view .LVU440
 1585 0022 06E0     		b	.L119
 1586              	.LVL183:
 1587              	.L116:
 242:Middlewares/ST/STM32_USB_Device_Library/Core/Src/usbd_ctlreq.c ****       break;
 1588              		.loc 1 242 7 is_stmt 1 view .LVU441
 242:Middlewares/ST/STM32_USB_Device_Library/Core/Src/usbd_ctlreq.c ****       break;
 1589              		.loc 1 242 11 is_stmt 0 view .LVU442
 1590 0024 AD23     		movs	r3, #173
 1591 0026 9B00     		lsls	r3, r3, #2
 1592 0028 EB58     		ldr	r3, [r5, r3]
 242:Middlewares/ST/STM32_USB_Device_Library/Core/Src/usbd_ctlreq.c ****       break;
 1593              		.loc 1 242 19 view .LVU443
 1594 002a 9B68     		ldr	r3, [r3, #8]
 242:Middlewares/ST/STM32_USB_Device_Library/Core/Src/usbd_ctlreq.c ****       break;
 1595              		.loc 1 242 7 view .LVU444
 1596 002c 2800     		movs	r0, r5
 1597 002e 9847     		blx	r3
 1598              	.LVL184:
ARM GAS  /tmp/ccOpGw6B.s 			page 52


 243:Middlewares/ST/STM32_USB_Device_Library/Core/Src/usbd_ctlreq.c **** 
 1599              		.loc 1 243 7 is_stmt 1 view .LVU445
 394:Middlewares/ST/STM32_USB_Device_Library/Core/Src/usbd_ctlreq.c **** }
 1600              		.loc 1 394 10 is_stmt 0 view .LVU446
 1601 0030 0024     		movs	r4, #0
 1602              	.LVL185:
 1603              	.L119:
 395:Middlewares/ST/STM32_USB_Device_Library/Core/Src/usbd_ctlreq.c **** 
 1604              		.loc 1 395 1 view .LVU447
 1605 0032 2000     		movs	r0, r4
 1606              		@ sp needed
 1607              	.LVL186:
 395:Middlewares/ST/STM32_USB_Device_Library/Core/Src/usbd_ctlreq.c **** 
 1608              		.loc 1 395 1 view .LVU448
 1609 0034 70BD     		pop	{r4, r5, r6, pc}
 1610              	.LVL187:
 1611              	.L154:
 247:Middlewares/ST/STM32_USB_Device_Library/Core/Src/usbd_ctlreq.c ****       {
 1612              		.loc 1 247 7 is_stmt 1 view .LVU449
 247:Middlewares/ST/STM32_USB_Device_Library/Core/Src/usbd_ctlreq.c ****       {
 1613              		.loc 1 247 10 is_stmt 0 view .LVU450
 1614 0036 202C     		cmp	r4, #32
 1615 0038 0AD0     		beq	.L155
 254:Middlewares/ST/STM32_USB_Device_Library/Core/Src/usbd_ctlreq.c ****       {
 1616              		.loc 1 254 7 is_stmt 1 view .LVU451
 254:Middlewares/ST/STM32_USB_Device_Library/Core/Src/usbd_ctlreq.c ****       {
 1617              		.loc 1 254 18 is_stmt 0 view .LVU452
 1618 003a 4E78     		ldrb	r6, [r1, #1]
 1619 003c 012E     		cmp	r6, #1
 1620 003e 3ED0     		beq	.L121
 1621 0040 032E     		cmp	r6, #3
 1622 0042 0DD0     		beq	.L122
 1623 0044 002E     		cmp	r6, #0
 1624 0046 64D0     		beq	.L156
 384:Middlewares/ST/STM32_USB_Device_Library/Core/Src/usbd_ctlreq.c ****           break;
 1625              		.loc 1 384 11 is_stmt 1 view .LVU453
 1626 0048 2800     		movs	r0, r5
 1627 004a FFF7FEFF 		bl	USBD_CtlError
 1628              	.LVL188:
 385:Middlewares/ST/STM32_USB_Device_Library/Core/Src/usbd_ctlreq.c ****       }
 1629              		.loc 1 385 11 view .LVU454
 1630 004e F0E7     		b	.L119
 1631              	.LVL189:
 1632              	.L155:
 249:Middlewares/ST/STM32_USB_Device_Library/Core/Src/usbd_ctlreq.c **** 
 1633              		.loc 1 249 9 view .LVU455
 249:Middlewares/ST/STM32_USB_Device_Library/Core/Src/usbd_ctlreq.c **** 
 1634              		.loc 1 249 39 is_stmt 0 view .LVU456
 1635 0050 AD23     		movs	r3, #173
 1636 0052 9B00     		lsls	r3, r3, #2
 1637 0054 EB58     		ldr	r3, [r5, r3]
 249:Middlewares/ST/STM32_USB_Device_Library/Core/Src/usbd_ctlreq.c **** 
 1638              		.loc 1 249 47 view .LVU457
 1639 0056 9B68     		ldr	r3, [r3, #8]
 249:Middlewares/ST/STM32_USB_Device_Library/Core/Src/usbd_ctlreq.c **** 
 1640              		.loc 1 249 35 view .LVU458
 1641 0058 2800     		movs	r0, r5
ARM GAS  /tmp/ccOpGw6B.s 			page 53


 1642 005a 9847     		blx	r3
 1643              	.LVL190:
 249:Middlewares/ST/STM32_USB_Device_Library/Core/Src/usbd_ctlreq.c **** 
 1644              		.loc 1 249 35 view .LVU459
 1645 005c 0400     		movs	r4, r0
 1646              	.LVL191:
 251:Middlewares/ST/STM32_USB_Device_Library/Core/Src/usbd_ctlreq.c ****       }
 1647              		.loc 1 251 9 is_stmt 1 view .LVU460
 251:Middlewares/ST/STM32_USB_Device_Library/Core/Src/usbd_ctlreq.c ****       }
 1648              		.loc 1 251 16 is_stmt 0 view .LVU461
 1649 005e E8E7     		b	.L119
 1650              	.LVL192:
 1651              	.L122:
 257:Middlewares/ST/STM32_USB_Device_Library/Core/Src/usbd_ctlreq.c ****           {
 1652              		.loc 1 257 11 is_stmt 1 discriminator 3 view .LVU462
 257:Middlewares/ST/STM32_USB_Device_Library/Core/Src/usbd_ctlreq.c ****           {
 1653              		.loc 1 257 23 is_stmt 0 discriminator 3 view .LVU463
 1654 0060 A723     		movs	r3, #167
 1655 0062 9B00     		lsls	r3, r3, #2
 1656 0064 EB5C     		ldrb	r3, [r5, r3]
 1657 0066 022B     		cmp	r3, #2
 1658 0068 05D0     		beq	.L125
 1659 006a 032B     		cmp	r3, #3
 1660 006c 14D0     		beq	.L126
 285:Middlewares/ST/STM32_USB_Device_Library/Core/Src/usbd_ctlreq.c ****               break;
 1661              		.loc 1 285 15 is_stmt 1 view .LVU464
 1662 006e 2800     		movs	r0, r5
 1663 0070 FFF7FEFF 		bl	USBD_CtlError
 1664              	.LVL193:
 286:Middlewares/ST/STM32_USB_Device_Library/Core/Src/usbd_ctlreq.c ****           }
 1665              		.loc 1 286 15 view .LVU465
 1666 0074 DDE7     		b	.L119
 1667              	.LVL194:
 1668              	.L125:
 260:Middlewares/ST/STM32_USB_Device_Library/Core/Src/usbd_ctlreq.c ****               {
 1669              		.loc 1 260 15 view .LVU466
 260:Middlewares/ST/STM32_USB_Device_Library/Core/Src/usbd_ctlreq.c ****               {
 1670              		.loc 1 260 18 is_stmt 0 view .LVU467
 1671 0076 002A     		cmp	r2, #0
 1672 0078 01D0     		beq	.L128
 260:Middlewares/ST/STM32_USB_Device_Library/Core/Src/usbd_ctlreq.c ****               {
 1673              		.loc 1 260 38 discriminator 1 view .LVU468
 1674 007a 802A     		cmp	r2, #128
 1675 007c 03D1     		bne	.L157
 1676              	.L128:
 267:Middlewares/ST/STM32_USB_Device_Library/Core/Src/usbd_ctlreq.c ****               }
 1677              		.loc 1 267 17 is_stmt 1 view .LVU469
 1678 007e 2800     		movs	r0, r5
 1679 0080 FFF7FEFF 		bl	USBD_CtlError
 1680              	.LVL195:
 267:Middlewares/ST/STM32_USB_Device_Library/Core/Src/usbd_ctlreq.c ****               }
 1681              		.loc 1 267 17 is_stmt 0 view .LVU470
 1682 0084 D5E7     		b	.L119
 1683              	.LVL196:
 1684              	.L157:
 262:Middlewares/ST/STM32_USB_Device_Library/Core/Src/usbd_ctlreq.c ****                 USBD_LL_StallEP(pdev, 0x80U);
 1685              		.loc 1 262 17 is_stmt 1 view .LVU471
ARM GAS  /tmp/ccOpGw6B.s 			page 54


 1686 0086 1100     		movs	r1, r2
 1687              	.LVL197:
 262:Middlewares/ST/STM32_USB_Device_Library/Core/Src/usbd_ctlreq.c ****                 USBD_LL_StallEP(pdev, 0x80U);
 1688              		.loc 1 262 17 is_stmt 0 view .LVU472
 1689 0088 2800     		movs	r0, r5
 1690 008a FFF7FEFF 		bl	USBD_LL_StallEP
 1691              	.LVL198:
 263:Middlewares/ST/STM32_USB_Device_Library/Core/Src/usbd_ctlreq.c ****               }
 1692              		.loc 1 263 17 is_stmt 1 view .LVU473
 1693 008e 8021     		movs	r1, #128
 1694 0090 2800     		movs	r0, r5
 1695 0092 FFF7FEFF 		bl	USBD_LL_StallEP
 1696              	.LVL199:
 1697 0096 CCE7     		b	.L119
 1698              	.LVL200:
 1699              	.L126:
 272:Middlewares/ST/STM32_USB_Device_Library/Core/Src/usbd_ctlreq.c ****               {
 1700              		.loc 1 272 15 view .LVU474
 272:Middlewares/ST/STM32_USB_Device_Library/Core/Src/usbd_ctlreq.c ****               {
 1701              		.loc 1 272 22 is_stmt 0 view .LVU475
 1702 0098 4B88     		ldrh	r3, [r1, #2]
 272:Middlewares/ST/STM32_USB_Device_Library/Core/Src/usbd_ctlreq.c ****               {
 1703              		.loc 1 272 18 view .LVU476
 1704 009a 002B     		cmp	r3, #0
 1705 009c 06D1     		bne	.L129
 274:Middlewares/ST/STM32_USB_Device_Library/Core/Src/usbd_ctlreq.c ****                     (ep_addr != 0x80U) && (req->wLength == 0x00U))
 1706              		.loc 1 274 17 is_stmt 1 view .LVU477
 274:Middlewares/ST/STM32_USB_Device_Library/Core/Src/usbd_ctlreq.c ****                     (ep_addr != 0x80U) && (req->wLength == 0x00U))
 1707              		.loc 1 274 20 is_stmt 0 view .LVU478
 1708 009e 002A     		cmp	r2, #0
 1709 00a0 04D0     		beq	.L129
 274:Middlewares/ST/STM32_USB_Device_Library/Core/Src/usbd_ctlreq.c ****                     (ep_addr != 0x80U) && (req->wLength == 0x00U))
 1710              		.loc 1 274 40 discriminator 1 view .LVU479
 1711 00a2 802A     		cmp	r2, #128
 1712 00a4 02D0     		beq	.L129
 275:Middlewares/ST/STM32_USB_Device_Library/Core/Src/usbd_ctlreq.c ****                 {
 1713              		.loc 1 275 47 view .LVU480
 1714 00a6 CB88     		ldrh	r3, [r1, #6]
 275:Middlewares/ST/STM32_USB_Device_Library/Core/Src/usbd_ctlreq.c ****                 {
 1715              		.loc 1 275 40 view .LVU481
 1716 00a8 002B     		cmp	r3, #0
 1717 00aa 03D0     		beq	.L158
 1718              	.LVL201:
 1719              	.L129:
 280:Middlewares/ST/STM32_USB_Device_Library/Core/Src/usbd_ctlreq.c **** 
 1720              		.loc 1 280 15 is_stmt 1 view .LVU482
 1721 00ac 2800     		movs	r0, r5
 1722 00ae FFF7FEFF 		bl	USBD_CtlSendStatus
 1723              	.LVL202:
 282:Middlewares/ST/STM32_USB_Device_Library/Core/Src/usbd_ctlreq.c **** 
 1724              		.loc 1 282 15 view .LVU483
 1725 00b2 BEE7     		b	.L119
 1726              	.LVL203:
 1727              	.L158:
 277:Middlewares/ST/STM32_USB_Device_Library/Core/Src/usbd_ctlreq.c ****                 }
 1728              		.loc 1 277 19 view .LVU484
 1729 00b4 1100     		movs	r1, r2
ARM GAS  /tmp/ccOpGw6B.s 			page 55


 1730              	.LVL204:
 277:Middlewares/ST/STM32_USB_Device_Library/Core/Src/usbd_ctlreq.c ****                 }
 1731              		.loc 1 277 19 is_stmt 0 view .LVU485
 1732 00b6 2800     		movs	r0, r5
 1733 00b8 FFF7FEFF 		bl	USBD_LL_StallEP
 1734              	.LVL205:
 277:Middlewares/ST/STM32_USB_Device_Library/Core/Src/usbd_ctlreq.c ****                 }
 1735              		.loc 1 277 19 view .LVU486
 1736 00bc F6E7     		b	.L129
 1737              	.LVL206:
 1738              	.L121:
 292:Middlewares/ST/STM32_USB_Device_Library/Core/Src/usbd_ctlreq.c ****           {
 1739              		.loc 1 292 11 is_stmt 1 discriminator 2 view .LVU487
 292:Middlewares/ST/STM32_USB_Device_Library/Core/Src/usbd_ctlreq.c ****           {
 1740              		.loc 1 292 23 is_stmt 0 discriminator 2 view .LVU488
 1741 00be A723     		movs	r3, #167
 1742 00c0 9B00     		lsls	r3, r3, #2
 1743 00c2 EB5C     		ldrb	r3, [r5, r3]
 1744 00c4 022B     		cmp	r3, #2
 1745 00c6 05D0     		beq	.L130
 1746 00c8 032B     		cmp	r3, #3
 1747 00ca 14D0     		beq	.L131
 318:Middlewares/ST/STM32_USB_Device_Library/Core/Src/usbd_ctlreq.c ****               break;
 1748              		.loc 1 318 15 is_stmt 1 view .LVU489
 1749 00cc 2800     		movs	r0, r5
 1750 00ce FFF7FEFF 		bl	USBD_CtlError
 1751              	.LVL207:
 319:Middlewares/ST/STM32_USB_Device_Library/Core/Src/usbd_ctlreq.c ****           }
 1752              		.loc 1 319 15 view .LVU490
 1753 00d2 AEE7     		b	.L119
 1754              	.LVL208:
 1755              	.L130:
 295:Middlewares/ST/STM32_USB_Device_Library/Core/Src/usbd_ctlreq.c ****               {
 1756              		.loc 1 295 15 view .LVU491
 295:Middlewares/ST/STM32_USB_Device_Library/Core/Src/usbd_ctlreq.c ****               {
 1757              		.loc 1 295 18 is_stmt 0 view .LVU492
 1758 00d4 002A     		cmp	r2, #0
 1759 00d6 01D0     		beq	.L133
 295:Middlewares/ST/STM32_USB_Device_Library/Core/Src/usbd_ctlreq.c ****               {
 1760              		.loc 1 295 38 discriminator 1 view .LVU493
 1761 00d8 802A     		cmp	r2, #128
 1762 00da 03D1     		bne	.L159
 1763              	.L133:
 302:Middlewares/ST/STM32_USB_Device_Library/Core/Src/usbd_ctlreq.c ****               }
 1764              		.loc 1 302 17 is_stmt 1 view .LVU494
 1765 00dc 2800     		movs	r0, r5
 1766 00de FFF7FEFF 		bl	USBD_CtlError
 1767              	.LVL209:
 302:Middlewares/ST/STM32_USB_Device_Library/Core/Src/usbd_ctlreq.c ****               }
 1768              		.loc 1 302 17 is_stmt 0 view .LVU495
 1769 00e2 A6E7     		b	.L119
 1770              	.LVL210:
 1771              	.L159:
 297:Middlewares/ST/STM32_USB_Device_Library/Core/Src/usbd_ctlreq.c ****                 USBD_LL_StallEP(pdev, 0x80U);
 1772              		.loc 1 297 17 is_stmt 1 view .LVU496
 1773 00e4 1100     		movs	r1, r2
 1774              	.LVL211:
ARM GAS  /tmp/ccOpGw6B.s 			page 56


 297:Middlewares/ST/STM32_USB_Device_Library/Core/Src/usbd_ctlreq.c ****                 USBD_LL_StallEP(pdev, 0x80U);
 1775              		.loc 1 297 17 is_stmt 0 view .LVU497
 1776 00e6 2800     		movs	r0, r5
 1777 00e8 FFF7FEFF 		bl	USBD_LL_StallEP
 1778              	.LVL212:
 298:Middlewares/ST/STM32_USB_Device_Library/Core/Src/usbd_ctlreq.c ****               }
 1779              		.loc 1 298 17 is_stmt 1 view .LVU498
 1780 00ec 8021     		movs	r1, #128
 1781 00ee 2800     		movs	r0, r5
 1782 00f0 FFF7FEFF 		bl	USBD_LL_StallEP
 1783              	.LVL213:
 1784 00f4 9DE7     		b	.L119
 1785              	.LVL214:
 1786              	.L131:
 307:Middlewares/ST/STM32_USB_Device_Library/Core/Src/usbd_ctlreq.c ****               {
 1787              		.loc 1 307 15 view .LVU499
 307:Middlewares/ST/STM32_USB_Device_Library/Core/Src/usbd_ctlreq.c ****               {
 1788              		.loc 1 307 22 is_stmt 0 view .LVU500
 1789 00f6 4B88     		ldrh	r3, [r1, #2]
 307:Middlewares/ST/STM32_USB_Device_Library/Core/Src/usbd_ctlreq.c ****               {
 1790              		.loc 1 307 18 view .LVU501
 1791 00f8 002B     		cmp	r3, #0
 1792 00fa 9AD1     		bne	.L119
 309:Middlewares/ST/STM32_USB_Device_Library/Core/Src/usbd_ctlreq.c ****                 {
 1793              		.loc 1 309 17 is_stmt 1 view .LVU502
 309:Middlewares/ST/STM32_USB_Device_Library/Core/Src/usbd_ctlreq.c ****                 {
 1794              		.loc 1 309 20 is_stmt 0 view .LVU503
 1795 00fc 5306     		lsls	r3, r2, #25
 1796 00fe 03D1     		bne	.L160
 1797              	.LVL215:
 1798              	.L134:
 313:Middlewares/ST/STM32_USB_Device_Library/Core/Src/usbd_ctlreq.c ****               }
 1799              		.loc 1 313 17 is_stmt 1 view .LVU504
 1800 0100 2800     		movs	r0, r5
 1801 0102 FFF7FEFF 		bl	USBD_CtlSendStatus
 1802              	.LVL216:
 1803 0106 94E7     		b	.L119
 1804              	.LVL217:
 1805              	.L160:
 311:Middlewares/ST/STM32_USB_Device_Library/Core/Src/usbd_ctlreq.c ****                 }
 1806              		.loc 1 311 19 view .LVU505
 1807 0108 1100     		movs	r1, r2
 1808              	.LVL218:
 311:Middlewares/ST/STM32_USB_Device_Library/Core/Src/usbd_ctlreq.c ****                 }
 1809              		.loc 1 311 19 is_stmt 0 view .LVU506
 1810 010a 2800     		movs	r0, r5
 1811 010c FFF7FEFF 		bl	USBD_LL_ClearStallEP
 1812              	.LVL219:
 311:Middlewares/ST/STM32_USB_Device_Library/Core/Src/usbd_ctlreq.c ****                 }
 1813              		.loc 1 311 19 view .LVU507
 1814 0110 F6E7     		b	.L134
 1815              	.LVL220:
 1816              	.L156:
 324:Middlewares/ST/STM32_USB_Device_Library/Core/Src/usbd_ctlreq.c ****           {
 1817              		.loc 1 324 11 is_stmt 1 discriminator 1 view .LVU508
 324:Middlewares/ST/STM32_USB_Device_Library/Core/Src/usbd_ctlreq.c ****           {
 1818              		.loc 1 324 23 is_stmt 0 discriminator 1 view .LVU509
ARM GAS  /tmp/ccOpGw6B.s 			page 57


 1819 0112 A723     		movs	r3, #167
 1820 0114 9B00     		lsls	r3, r3, #2
 1821 0116 EB5C     		ldrb	r3, [r5, r3]
 1822 0118 022B     		cmp	r3, #2
 1823 011a 06D0     		beq	.L135
 1824 011c 032B     		cmp	r3, #3
 1825 011e 29D0     		beq	.L136
 378:Middlewares/ST/STM32_USB_Device_Library/Core/Src/usbd_ctlreq.c ****               break;
 1826              		.loc 1 378 15 is_stmt 1 view .LVU510
 1827 0120 2800     		movs	r0, r5
 1828 0122 FFF7FEFF 		bl	USBD_CtlError
 1829              	.LVL221:
 379:Middlewares/ST/STM32_USB_Device_Library/Core/Src/usbd_ctlreq.c ****           }
 1830              		.loc 1 379 15 view .LVU511
 394:Middlewares/ST/STM32_USB_Device_Library/Core/Src/usbd_ctlreq.c **** }
 1831              		.loc 1 394 10 is_stmt 0 view .LVU512
 1832 0126 3400     		movs	r4, r6
 379:Middlewares/ST/STM32_USB_Device_Library/Core/Src/usbd_ctlreq.c ****           }
 1833              		.loc 1 379 15 view .LVU513
 1834 0128 83E7     		b	.L119
 1835              	.LVL222:
 1836              	.L135:
 327:Middlewares/ST/STM32_USB_Device_Library/Core/Src/usbd_ctlreq.c ****               {
 1837              		.loc 1 327 15 is_stmt 1 view .LVU514
 327:Middlewares/ST/STM32_USB_Device_Library/Core/Src/usbd_ctlreq.c ****               {
 1838              		.loc 1 327 18 is_stmt 0 view .LVU515
 1839 012a 002A     		cmp	r2, #0
 1840 012c 01D0     		beq	.L138
 327:Middlewares/ST/STM32_USB_Device_Library/Core/Src/usbd_ctlreq.c ****               {
 1841              		.loc 1 327 38 discriminator 1 view .LVU516
 1842 012e 802A     		cmp	r2, #128
 1843 0130 12D1     		bne	.L161
 1844              	.L138:
 332:Middlewares/ST/STM32_USB_Device_Library/Core/Src/usbd_ctlreq.c ****                     &pdev->ep_out[ep_addr & 0x7FU];
 1845              		.loc 1 332 15 is_stmt 1 view .LVU517
 332:Middlewares/ST/STM32_USB_Device_Library/Core/Src/usbd_ctlreq.c ****                     &pdev->ep_out[ep_addr & 0x7FU];
 1846              		.loc 1 332 82 is_stmt 0 view .LVU518
 1847 0132 0306     		lsls	r3, r0, #24
 1848 0134 15D4     		bmi	.L162
 333:Middlewares/ST/STM32_USB_Device_Library/Core/Src/usbd_ctlreq.c **** 
 1849              		.loc 1 333 43 discriminator 2 view .LVU519
 1850 0136 7F21     		movs	r1, #127
 1851              	.LVL223:
 333:Middlewares/ST/STM32_USB_Device_Library/Core/Src/usbd_ctlreq.c **** 
 1852              		.loc 1 333 43 discriminator 2 view .LVU520
 1853 0138 0A40     		ands	r2, r1
 1854              	.LVL224:
 332:Middlewares/ST/STM32_USB_Device_Library/Core/Src/usbd_ctlreq.c ****                     &pdev->ep_out[ep_addr & 0x7FU];
 1855              		.loc 1 332 82 discriminator 2 view .LVU521
 1856 013a 9100     		lsls	r1, r2, #2
 1857 013c 8918     		adds	r1, r1, r2
 1858 013e 8900     		lsls	r1, r1, #2
 1859 0140 5131     		adds	r1, r1, #81
 1860 0142 FF31     		adds	r1, r1, #255
 1861 0144 6918     		adds	r1, r5, r1
 1862 0146 0431     		adds	r1, r1, #4
 1863              	.L140:
ARM GAS  /tmp/ccOpGw6B.s 			page 58


 1864              	.LVL225:
 335:Middlewares/ST/STM32_USB_Device_Library/Core/Src/usbd_ctlreq.c **** 
 1865              		.loc 1 335 15 is_stmt 1 discriminator 4 view .LVU522
 335:Middlewares/ST/STM32_USB_Device_Library/Core/Src/usbd_ctlreq.c **** 
 1866              		.loc 1 335 27 is_stmt 0 discriminator 4 view .LVU523
 1867 0148 0023     		movs	r3, #0
 1868 014a 0B60     		str	r3, [r1]
 1869              	.LVL226:
 337:Middlewares/ST/STM32_USB_Device_Library/Core/Src/usbd_ctlreq.c ****               break;
 1870              		.loc 1 337 15 is_stmt 1 discriminator 4 view .LVU524
 1871 014c 0222     		movs	r2, #2
 1872 014e 2800     		movs	r0, r5
 1873 0150 FFF7FEFF 		bl	USBD_CtlSendData
 1874              	.LVL227:
 338:Middlewares/ST/STM32_USB_Device_Library/Core/Src/usbd_ctlreq.c **** 
 1875              		.loc 1 338 15 discriminator 4 view .LVU525
 394:Middlewares/ST/STM32_USB_Device_Library/Core/Src/usbd_ctlreq.c **** }
 1876              		.loc 1 394 10 is_stmt 0 discriminator 4 view .LVU526
 1877 0154 3400     		movs	r4, r6
 338:Middlewares/ST/STM32_USB_Device_Library/Core/Src/usbd_ctlreq.c **** 
 1878              		.loc 1 338 15 discriminator 4 view .LVU527
 1879 0156 6CE7     		b	.L119
 1880              	.LVL228:
 1881              	.L161:
 329:Middlewares/ST/STM32_USB_Device_Library/Core/Src/usbd_ctlreq.c ****                 break;
 1882              		.loc 1 329 17 is_stmt 1 view .LVU528
 1883 0158 2800     		movs	r0, r5
 1884 015a FFF7FEFF 		bl	USBD_CtlError
 1885              	.LVL229:
 330:Middlewares/ST/STM32_USB_Device_Library/Core/Src/usbd_ctlreq.c ****               }
 1886              		.loc 1 330 17 view .LVU529
 394:Middlewares/ST/STM32_USB_Device_Library/Core/Src/usbd_ctlreq.c **** }
 1887              		.loc 1 394 10 is_stmt 0 view .LVU530
 1888 015e 3400     		movs	r4, r6
 330:Middlewares/ST/STM32_USB_Device_Library/Core/Src/usbd_ctlreq.c ****               }
 1889              		.loc 1 330 17 view .LVU531
 1890 0160 67E7     		b	.L119
 1891              	.LVL230:
 1892              	.L162:
 332:Middlewares/ST/STM32_USB_Device_Library/Core/Src/usbd_ctlreq.c ****                     &pdev->ep_out[ep_addr & 0x7FU];
 1893              		.loc 1 332 73 discriminator 1 view .LVU532
 1894 0162 7F21     		movs	r1, #127
 1895              	.LVL231:
 332:Middlewares/ST/STM32_USB_Device_Library/Core/Src/usbd_ctlreq.c ****                     &pdev->ep_out[ep_addr & 0x7FU];
 1896              		.loc 1 332 73 discriminator 1 view .LVU533
 1897 0164 0A40     		ands	r2, r1
 1898              	.LVL232:
 332:Middlewares/ST/STM32_USB_Device_Library/Core/Src/usbd_ctlreq.c ****                     &pdev->ep_out[ep_addr & 0x7FU];
 1899              		.loc 1 332 82 discriminator 1 view .LVU534
 1900 0166 9100     		lsls	r1, r2, #2
 1901 0168 8918     		adds	r1, r1, r2
 1902 016a 8900     		lsls	r1, r1, #2
 1903 016c 1031     		adds	r1, r1, #16
 1904 016e 6918     		adds	r1, r5, r1
 1905 0170 0431     		adds	r1, r1, #4
 1906 0172 E9E7     		b	.L140
 1907              	.LVL233:
ARM GAS  /tmp/ccOpGw6B.s 			page 59


 1908              	.L136:
 341:Middlewares/ST/STM32_USB_Device_Library/Core/Src/usbd_ctlreq.c ****               {
 1909              		.loc 1 341 15 is_stmt 1 view .LVU535
 341:Middlewares/ST/STM32_USB_Device_Library/Core/Src/usbd_ctlreq.c ****               {
 1910              		.loc 1 341 37 is_stmt 0 view .LVU536
 1911 0174 44B2     		sxtb	r4, r0
 341:Middlewares/ST/STM32_USB_Device_Library/Core/Src/usbd_ctlreq.c ****               {
 1912              		.loc 1 341 18 view .LVU537
 1913 0176 0306     		lsls	r3, r0, #24
 1914 0178 22D4     		bmi	.L163
 351:Middlewares/ST/STM32_USB_Device_Library/Core/Src/usbd_ctlreq.c ****                 {
 1915              		.loc 1 351 17 is_stmt 1 view .LVU538
 351:Middlewares/ST/STM32_USB_Device_Library/Core/Src/usbd_ctlreq.c ****                 {
 1916              		.loc 1 351 42 is_stmt 0 view .LVU539
 1917 017a 0F20     		movs	r0, #15
 1918 017c 1040     		ands	r0, r2
 351:Middlewares/ST/STM32_USB_Device_Library/Core/Src/usbd_ctlreq.c ****                 {
 1919              		.loc 1 351 49 view .LVU540
 1920 017e 8300     		lsls	r3, r0, #2
 1921 0180 1B18     		adds	r3, r3, r0
 1922 0182 9B00     		lsls	r3, r3, #2
 1923 0184 EB18     		adds	r3, r5, r3
 1924 0186 5933     		adds	r3, r3, #89
 1925 0188 FF33     		adds	r3, r3, #255
 1926 018a 1B68     		ldr	r3, [r3]
 351:Middlewares/ST/STM32_USB_Device_Library/Core/Src/usbd_ctlreq.c ****                 {
 1927              		.loc 1 351 20 view .LVU541
 1928 018c 002B     		cmp	r3, #0
 1929 018e 25D0     		beq	.L164
 1930              	.L142:
 358:Middlewares/ST/STM32_USB_Device_Library/Core/Src/usbd_ctlreq.c ****                     &pdev->ep_out[ep_addr & 0x7FU];
 1931              		.loc 1 358 15 is_stmt 1 view .LVU542
 358:Middlewares/ST/STM32_USB_Device_Library/Core/Src/usbd_ctlreq.c ****                     &pdev->ep_out[ep_addr & 0x7FU];
 1932              		.loc 1 358 82 is_stmt 0 view .LVU543
 1933 0190 002C     		cmp	r4, #0
 1934 0192 28DB     		blt	.L165
 359:Middlewares/ST/STM32_USB_Device_Library/Core/Src/usbd_ctlreq.c **** 
 1935              		.loc 1 359 43 discriminator 2 view .LVU544
 1936 0194 7F23     		movs	r3, #127
 1937 0196 1340     		ands	r3, r2
 358:Middlewares/ST/STM32_USB_Device_Library/Core/Src/usbd_ctlreq.c ****                     &pdev->ep_out[ep_addr & 0x7FU];
 1938              		.loc 1 358 82 discriminator 2 view .LVU545
 1939 0198 9C00     		lsls	r4, r3, #2
 1940 019a E418     		adds	r4, r4, r3
 1941 019c A400     		lsls	r4, r4, #2
 1942 019e 5134     		adds	r4, r4, #81
 1943 01a0 FF34     		adds	r4, r4, #255
 1944 01a2 2C19     		adds	r4, r5, r4
 1945 01a4 0434     		adds	r4, r4, #4
 1946              	.L144:
 1947              	.LVL234:
 361:Middlewares/ST/STM32_USB_Device_Library/Core/Src/usbd_ctlreq.c ****               {
 1948              		.loc 1 361 15 is_stmt 1 discriminator 4 view .LVU546
 361:Middlewares/ST/STM32_USB_Device_Library/Core/Src/usbd_ctlreq.c ****               {
 1949              		.loc 1 361 18 is_stmt 0 discriminator 4 view .LVU547
 1950 01a6 002A     		cmp	r2, #0
 1951 01a8 01D0     		beq	.L145
ARM GAS  /tmp/ccOpGw6B.s 			page 60


 361:Middlewares/ST/STM32_USB_Device_Library/Core/Src/usbd_ctlreq.c ****               {
 1952              		.loc 1 361 38 discriminator 1 view .LVU548
 1953 01aa 802A     		cmp	r2, #128
 1954 01ac 24D1     		bne	.L146
 1955              	.L145:
 363:Middlewares/ST/STM32_USB_Device_Library/Core/Src/usbd_ctlreq.c ****               }
 1956              		.loc 1 363 17 is_stmt 1 view .LVU549
 363:Middlewares/ST/STM32_USB_Device_Library/Core/Src/usbd_ctlreq.c ****               }
 1957              		.loc 1 363 29 is_stmt 0 view .LVU550
 1958 01ae 0023     		movs	r3, #0
 1959 01b0 2360     		str	r3, [r4]
 1960              	.LVL235:
 1961              	.L147:
 374:Middlewares/ST/STM32_USB_Device_Library/Core/Src/usbd_ctlreq.c ****               break;
 1962              		.loc 1 374 15 is_stmt 1 view .LVU551
 1963 01b2 0222     		movs	r2, #2
 1964 01b4 2100     		movs	r1, r4
 1965 01b6 2800     		movs	r0, r5
 1966 01b8 FFF7FEFF 		bl	USBD_CtlSendData
 1967              	.LVL236:
 375:Middlewares/ST/STM32_USB_Device_Library/Core/Src/usbd_ctlreq.c **** 
 1968              		.loc 1 375 15 view .LVU552
 394:Middlewares/ST/STM32_USB_Device_Library/Core/Src/usbd_ctlreq.c **** }
 1969              		.loc 1 394 10 is_stmt 0 view .LVU553
 1970 01bc 3400     		movs	r4, r6
 1971              	.LVL237:
 375:Middlewares/ST/STM32_USB_Device_Library/Core/Src/usbd_ctlreq.c **** 
 1972              		.loc 1 375 15 view .LVU554
 1973 01be 38E7     		b	.L119
 1974              	.LVL238:
 1975              	.L163:
 343:Middlewares/ST/STM32_USB_Device_Library/Core/Src/usbd_ctlreq.c ****                 {
 1976              		.loc 1 343 17 is_stmt 1 view .LVU555
 343:Middlewares/ST/STM32_USB_Device_Library/Core/Src/usbd_ctlreq.c ****                 {
 1977              		.loc 1 343 41 is_stmt 0 view .LVU556
 1978 01c0 0F20     		movs	r0, #15
 1979 01c2 1040     		ands	r0, r2
 343:Middlewares/ST/STM32_USB_Device_Library/Core/Src/usbd_ctlreq.c ****                 {
 1980              		.loc 1 343 48 view .LVU557
 1981 01c4 8300     		lsls	r3, r0, #2
 1982 01c6 1B18     		adds	r3, r3, r0
 1983 01c8 9B00     		lsls	r3, r3, #2
 1984 01ca EB18     		adds	r3, r5, r3
 1985 01cc 9B69     		ldr	r3, [r3, #24]
 343:Middlewares/ST/STM32_USB_Device_Library/Core/Src/usbd_ctlreq.c ****                 {
 1986              		.loc 1 343 20 view .LVU558
 1987 01ce 002B     		cmp	r3, #0
 1988 01d0 DED1     		bne	.L142
 345:Middlewares/ST/STM32_USB_Device_Library/Core/Src/usbd_ctlreq.c ****                   break;
 1989              		.loc 1 345 19 is_stmt 1 view .LVU559
 1990 01d2 2800     		movs	r0, r5
 1991 01d4 FFF7FEFF 		bl	USBD_CtlError
 1992              	.LVL239:
 346:Middlewares/ST/STM32_USB_Device_Library/Core/Src/usbd_ctlreq.c ****                 }
 1993              		.loc 1 346 19 view .LVU560
 394:Middlewares/ST/STM32_USB_Device_Library/Core/Src/usbd_ctlreq.c **** }
 1994              		.loc 1 394 10 is_stmt 0 view .LVU561
ARM GAS  /tmp/ccOpGw6B.s 			page 61


 1995 01d8 3400     		movs	r4, r6
 346:Middlewares/ST/STM32_USB_Device_Library/Core/Src/usbd_ctlreq.c ****                 }
 1996              		.loc 1 346 19 view .LVU562
 1997 01da 2AE7     		b	.L119
 1998              	.LVL240:
 1999              	.L164:
 353:Middlewares/ST/STM32_USB_Device_Library/Core/Src/usbd_ctlreq.c ****                   break;
 2000              		.loc 1 353 19 is_stmt 1 view .LVU563
 2001 01dc 2800     		movs	r0, r5
 2002 01de FFF7FEFF 		bl	USBD_CtlError
 2003              	.LVL241:
 354:Middlewares/ST/STM32_USB_Device_Library/Core/Src/usbd_ctlreq.c ****                 }
 2004              		.loc 1 354 19 view .LVU564
 394:Middlewares/ST/STM32_USB_Device_Library/Core/Src/usbd_ctlreq.c **** }
 2005              		.loc 1 394 10 is_stmt 0 view .LVU565
 2006 01e2 3400     		movs	r4, r6
 354:Middlewares/ST/STM32_USB_Device_Library/Core/Src/usbd_ctlreq.c ****                 }
 2007              		.loc 1 354 19 view .LVU566
 2008 01e4 25E7     		b	.L119
 2009              	.LVL242:
 2010              	.L165:
 358:Middlewares/ST/STM32_USB_Device_Library/Core/Src/usbd_ctlreq.c ****                     &pdev->ep_out[ep_addr & 0x7FU];
 2011              		.loc 1 358 73 discriminator 1 view .LVU567
 2012 01e6 7F23     		movs	r3, #127
 2013 01e8 1340     		ands	r3, r2
 358:Middlewares/ST/STM32_USB_Device_Library/Core/Src/usbd_ctlreq.c ****                     &pdev->ep_out[ep_addr & 0x7FU];
 2014              		.loc 1 358 82 discriminator 1 view .LVU568
 2015 01ea 9C00     		lsls	r4, r3, #2
 2016 01ec E418     		adds	r4, r4, r3
 2017 01ee A400     		lsls	r4, r4, #2
 2018 01f0 1034     		adds	r4, r4, #16
 2019 01f2 2C19     		adds	r4, r5, r4
 2020 01f4 0434     		adds	r4, r4, #4
 2021 01f6 D6E7     		b	.L144
 2022              	.LVL243:
 2023              	.L146:
 365:Middlewares/ST/STM32_USB_Device_Library/Core/Src/usbd_ctlreq.c ****               {
 2024              		.loc 1 365 20 is_stmt 1 view .LVU569
 365:Middlewares/ST/STM32_USB_Device_Library/Core/Src/usbd_ctlreq.c ****               {
 2025              		.loc 1 365 24 is_stmt 0 view .LVU570
 2026 01f8 1100     		movs	r1, r2
 2027              	.LVL244:
 365:Middlewares/ST/STM32_USB_Device_Library/Core/Src/usbd_ctlreq.c ****               {
 2028              		.loc 1 365 24 view .LVU571
 2029 01fa 2800     		movs	r0, r5
 2030 01fc FFF7FEFF 		bl	USBD_LL_IsStallEP
 2031              	.LVL245:
 365:Middlewares/ST/STM32_USB_Device_Library/Core/Src/usbd_ctlreq.c ****               {
 2032              		.loc 1 365 23 view .LVU572
 2033 0200 0028     		cmp	r0, #0
 2034 0202 02D0     		beq	.L148
 367:Middlewares/ST/STM32_USB_Device_Library/Core/Src/usbd_ctlreq.c ****               }
 2035              		.loc 1 367 17 is_stmt 1 view .LVU573
 367:Middlewares/ST/STM32_USB_Device_Library/Core/Src/usbd_ctlreq.c ****               }
 2036              		.loc 1 367 29 is_stmt 0 view .LVU574
 2037 0204 0123     		movs	r3, #1
 2038 0206 2360     		str	r3, [r4]
ARM GAS  /tmp/ccOpGw6B.s 			page 62


 2039 0208 D3E7     		b	.L147
 2040              	.L148:
 371:Middlewares/ST/STM32_USB_Device_Library/Core/Src/usbd_ctlreq.c ****               }
 2041              		.loc 1 371 17 is_stmt 1 view .LVU575
 371:Middlewares/ST/STM32_USB_Device_Library/Core/Src/usbd_ctlreq.c ****               }
 2042              		.loc 1 371 29 is_stmt 0 view .LVU576
 2043 020a 0023     		movs	r3, #0
 2044 020c 2360     		str	r3, [r4]
 2045 020e D0E7     		b	.L147
 2046              		.cfi_endproc
 2047              	.LFE45:
 2049              		.section	.text.USBD_GetString,"ax",%progbits
 2050              		.align	1
 2051              		.global	USBD_GetString
 2052              		.syntax unified
 2053              		.code	16
 2054              		.thumb_func
 2055              		.fpu softvfp
 2057              	USBD_GetString:
 2058              	.LVL246:
 2059              	.LFB55:
 869:Middlewares/ST/STM32_USB_Device_Library/Core/Src/usbd_ctlreq.c ****   uint8_t idx = 0U;
 2060              		.loc 1 869 1 is_stmt 1 view -0
 2061              		.cfi_startproc
 2062              		@ args = 0, pretend = 0, frame = 0
 2063              		@ frame_needed = 0, uses_anonymous_args = 0
 869:Middlewares/ST/STM32_USB_Device_Library/Core/Src/usbd_ctlreq.c ****   uint8_t idx = 0U;
 2064              		.loc 1 869 1 is_stmt 0 view .LVU578
 2065 0000 70B5     		push	{r4, r5, r6, lr}
 2066              	.LCFI12:
 2067              		.cfi_def_cfa_offset 16
 2068              		.cfi_offset 4, -16
 2069              		.cfi_offset 5, -12
 2070              		.cfi_offset 6, -8
 2071              		.cfi_offset 14, -4
 2072 0002 0400     		movs	r4, r0
 2073 0004 0D00     		movs	r5, r1
 2074 0006 1600     		movs	r6, r2
 870:Middlewares/ST/STM32_USB_Device_Library/Core/Src/usbd_ctlreq.c **** 
 2075              		.loc 1 870 3 is_stmt 1 view .LVU579
 2076              	.LVL247:
 872:Middlewares/ST/STM32_USB_Device_Library/Core/Src/usbd_ctlreq.c ****   {
 2077              		.loc 1 872 3 view .LVU580
 872:Middlewares/ST/STM32_USB_Device_Library/Core/Src/usbd_ctlreq.c ****   {
 2078              		.loc 1 872 6 is_stmt 0 view .LVU581
 2079 0008 0028     		cmp	r0, #0
 2080 000a 15D0     		beq	.L166
 874:Middlewares/ST/STM32_USB_Device_Library/Core/Src/usbd_ctlreq.c ****     unicode[idx++] = *(uint8_t *)(void *)len;
 2081              		.loc 1 874 5 is_stmt 1 view .LVU582
 874:Middlewares/ST/STM32_USB_Device_Library/Core/Src/usbd_ctlreq.c ****     unicode[idx++] = *(uint8_t *)(void *)len;
 2082              		.loc 1 874 22 is_stmt 0 view .LVU583
 2083 000c FFF7FEFF 		bl	USBD_GetLen
 2084              	.LVL248:
 874:Middlewares/ST/STM32_USB_Device_Library/Core/Src/usbd_ctlreq.c ****     unicode[idx++] = *(uint8_t *)(void *)len;
 2085              		.loc 1 874 45 view .LVU584
 2086 0010 0130     		adds	r0, r0, #1
 874:Middlewares/ST/STM32_USB_Device_Library/Core/Src/usbd_ctlreq.c ****     unicode[idx++] = *(uint8_t *)(void *)len;
ARM GAS  /tmp/ccOpGw6B.s 			page 63


 2087              		.loc 1 874 10 view .LVU585
 2088 0012 4000     		lsls	r0, r0, #1
 2089 0014 3080     		strh	r0, [r6]
 875:Middlewares/ST/STM32_USB_Device_Library/Core/Src/usbd_ctlreq.c ****     unicode[idx++] = USB_DESC_TYPE_STRING;
 2090              		.loc 1 875 5 is_stmt 1 view .LVU586
 2091              	.LVL249:
 875:Middlewares/ST/STM32_USB_Device_Library/Core/Src/usbd_ctlreq.c ****     unicode[idx++] = USB_DESC_TYPE_STRING;
 2092              		.loc 1 875 20 is_stmt 0 view .LVU587
 2093 0016 2870     		strb	r0, [r5]
 876:Middlewares/ST/STM32_USB_Device_Library/Core/Src/usbd_ctlreq.c **** 
 2094              		.loc 1 876 5 is_stmt 1 view .LVU588
 2095              	.LVL250:
 876:Middlewares/ST/STM32_USB_Device_Library/Core/Src/usbd_ctlreq.c **** 
 2096              		.loc 1 876 20 is_stmt 0 view .LVU589
 2097 0018 0323     		movs	r3, #3
 2098 001a 6B70     		strb	r3, [r5, #1]
 878:Middlewares/ST/STM32_USB_Device_Library/Core/Src/usbd_ctlreq.c ****     {
 2099              		.loc 1 878 5 is_stmt 1 view .LVU590
 876:Middlewares/ST/STM32_USB_Device_Library/Core/Src/usbd_ctlreq.c **** 
 2100              		.loc 1 876 16 is_stmt 0 view .LVU591
 2101 001c 013B     		subs	r3, r3, #1
 878:Middlewares/ST/STM32_USB_Device_Library/Core/Src/usbd_ctlreq.c ****     {
 2102              		.loc 1 878 11 view .LVU592
 2103 001e 08E0     		b	.L168
 2104              	.LVL251:
 2105              	.L169:
 880:Middlewares/ST/STM32_USB_Device_Library/Core/Src/usbd_ctlreq.c ****       unicode[idx++] =  0U;
 2106              		.loc 1 880 7 is_stmt 1 view .LVU593
 880:Middlewares/ST/STM32_USB_Device_Library/Core/Src/usbd_ctlreq.c ****       unicode[idx++] =  0U;
 2107              		.loc 1 880 29 is_stmt 0 view .LVU594
 2108 0020 0134     		adds	r4, r4, #1
 2109              	.LVL252:
 880:Middlewares/ST/STM32_USB_Device_Library/Core/Src/usbd_ctlreq.c ****       unicode[idx++] =  0U;
 2110              		.loc 1 880 18 view .LVU595
 2111 0022 5A1C     		adds	r2, r3, #1
 2112 0024 D2B2     		uxtb	r2, r2
 2113              	.LVL253:
 880:Middlewares/ST/STM32_USB_Device_Library/Core/Src/usbd_ctlreq.c ****       unicode[idx++] =  0U;
 2114              		.loc 1 880 22 view .LVU596
 2115 0026 E854     		strb	r0, [r5, r3]
 881:Middlewares/ST/STM32_USB_Device_Library/Core/Src/usbd_ctlreq.c ****     }
 2116              		.loc 1 881 7 is_stmt 1 view .LVU597
 881:Middlewares/ST/STM32_USB_Device_Library/Core/Src/usbd_ctlreq.c ****     }
 2117              		.loc 1 881 18 is_stmt 0 view .LVU598
 2118 0028 0233     		adds	r3, r3, #2
 2119 002a DBB2     		uxtb	r3, r3
 2120              	.LVL254:
 881:Middlewares/ST/STM32_USB_Device_Library/Core/Src/usbd_ctlreq.c ****     }
 2121              		.loc 1 881 14 view .LVU599
 2122 002c AA18     		adds	r2, r5, r2
 881:Middlewares/ST/STM32_USB_Device_Library/Core/Src/usbd_ctlreq.c ****     }
 2123              		.loc 1 881 22 view .LVU600
 2124 002e 0021     		movs	r1, #0
 2125 0030 1170     		strb	r1, [r2]
 2126              	.LVL255:
 2127              	.L168:
 878:Middlewares/ST/STM32_USB_Device_Library/Core/Src/usbd_ctlreq.c ****     {
ARM GAS  /tmp/ccOpGw6B.s 			page 64


 2128              		.loc 1 878 11 is_stmt 1 view .LVU601
 878:Middlewares/ST/STM32_USB_Device_Library/Core/Src/usbd_ctlreq.c ****     {
 2129              		.loc 1 878 12 is_stmt 0 view .LVU602
 2130 0032 2078     		ldrb	r0, [r4]
 878:Middlewares/ST/STM32_USB_Device_Library/Core/Src/usbd_ctlreq.c ****     {
 2131              		.loc 1 878 11 view .LVU603
 2132 0034 0028     		cmp	r0, #0
 2133 0036 F3D1     		bne	.L169
 2134              	.LVL256:
 2135              	.L166:
 884:Middlewares/ST/STM32_USB_Device_Library/Core/Src/usbd_ctlreq.c **** 
 2136              		.loc 1 884 1 view .LVU604
 2137              		@ sp needed
 2138              	.LVL257:
 2139              	.LVL258:
 2140              	.LVL259:
 884:Middlewares/ST/STM32_USB_Device_Library/Core/Src/usbd_ctlreq.c **** 
 2141              		.loc 1 884 1 view .LVU605
 2142 0038 70BD     		pop	{r4, r5, r6, pc}
 2143              		.cfi_endproc
 2144              	.LFE55:
 2146              		.section	.bss.cfgidx.8527,"aw",%nobits
 2147              		.set	.LANCHOR0,. + 0
 2150              	cfgidx.8527:
 2151 0000 00       		.space	1
 2152              		.text
 2153              	.Letext0:
 2154              		.file 2 "/usr/include/newlib/machine/_default_types.h"
 2155              		.file 3 "/usr/lib/gcc/arm-none-eabi/9.2.1/include/stddef.h"
 2156              		.file 4 "/usr/include/newlib/sys/_types.h"
 2157              		.file 5 "/usr/include/newlib/sys/reent.h"
 2158              		.file 6 "/usr/include/newlib/sys/lock.h"
 2159              		.file 7 "/usr/include/newlib/sys/_stdint.h"
 2160              		.file 8 "/usr/include/newlib/stdlib.h"
 2161              		.file 9 "Drivers/CMSIS/Device/ST/STM32F0xx/Include/system_stm32f0xx.h"
 2162              		.file 10 "Drivers/STM32F0xx_HAL_Driver/Inc/stm32f0xx_hal.h"
 2163              		.file 11 "Middlewares/ST/STM32_USB_Device_Library/Core/Inc/usbd_def.h"
 2164              		.file 12 "Middlewares/ST/STM32_USB_Device_Library/Core/Inc/usbd_core.h"
 2165              		.file 13 "Middlewares/ST/STM32_USB_Device_Library/Core/Inc/usbd_ioreq.h"
ARM GAS  /tmp/ccOpGw6B.s 			page 65

