ARM GAS  /tmp/cczhRNl8.s 			page 1


   1              		.cpu cortex-m0
   2              		.eabi_attribute 20, 1
   3              		.eabi_attribute 21, 1
   4              		.eabi_attribute 23, 3
   5              		.eabi_attribute 24, 1
   6              		.eabi_attribute 25, 1
   7              		.eabi_attribute 26, 1
   8              		.eabi_attribute 30, 1
   9              		.eabi_attribute 34, 0
  10              		.eabi_attribute 18, 4
  11              		.file	"usbd_core.c"
  12              		.text
  13              	.Ltext0:
  14              		.cfi_sections	.debug_frame
  15              		.section	.text.USBD_Init,"ax",%progbits
  16              		.align	1
  17              		.global	USBD_Init
  18              		.arch armv6s-m
  19              		.syntax unified
  20              		.code	16
  21              		.thumb_func
  22              		.fpu softvfp
  24              	USBD_Init:
  25              	.LVL0:
  26              	.LFB43:
  27              		.file 1 "Middlewares/ST/STM32_USB_Device_Library/Core/Src/usbd_core.c"
   1:Middlewares/ST/STM32_USB_Device_Library/Core/Src/usbd_core.c **** /**
   2:Middlewares/ST/STM32_USB_Device_Library/Core/Src/usbd_core.c ****   ******************************************************************************
   3:Middlewares/ST/STM32_USB_Device_Library/Core/Src/usbd_core.c ****   * @file    usbd_core.c
   4:Middlewares/ST/STM32_USB_Device_Library/Core/Src/usbd_core.c ****   * @author  MCD Application Team
   5:Middlewares/ST/STM32_USB_Device_Library/Core/Src/usbd_core.c ****   * @brief   This file provides all the USBD core functions.
   6:Middlewares/ST/STM32_USB_Device_Library/Core/Src/usbd_core.c ****   ******************************************************************************
   7:Middlewares/ST/STM32_USB_Device_Library/Core/Src/usbd_core.c ****   * @attention
   8:Middlewares/ST/STM32_USB_Device_Library/Core/Src/usbd_core.c ****   *
   9:Middlewares/ST/STM32_USB_Device_Library/Core/Src/usbd_core.c ****   * <h2><center>&copy; Copyright (c) 2015 STMicroelectronics.
  10:Middlewares/ST/STM32_USB_Device_Library/Core/Src/usbd_core.c ****   * All rights reserved.</center></h2>
  11:Middlewares/ST/STM32_USB_Device_Library/Core/Src/usbd_core.c ****   *
  12:Middlewares/ST/STM32_USB_Device_Library/Core/Src/usbd_core.c ****   * This software component is licensed by ST under Ultimate Liberty license
  13:Middlewares/ST/STM32_USB_Device_Library/Core/Src/usbd_core.c ****   * SLA0044, the "License"; You may not use this file except in compliance with
  14:Middlewares/ST/STM32_USB_Device_Library/Core/Src/usbd_core.c ****   * the License. You may obtain a copy of the License at:
  15:Middlewares/ST/STM32_USB_Device_Library/Core/Src/usbd_core.c ****   *                      www.st.com/SLA0044
  16:Middlewares/ST/STM32_USB_Device_Library/Core/Src/usbd_core.c ****   *
  17:Middlewares/ST/STM32_USB_Device_Library/Core/Src/usbd_core.c ****   ******************************************************************************
  18:Middlewares/ST/STM32_USB_Device_Library/Core/Src/usbd_core.c ****   */
  19:Middlewares/ST/STM32_USB_Device_Library/Core/Src/usbd_core.c **** 
  20:Middlewares/ST/STM32_USB_Device_Library/Core/Src/usbd_core.c **** /* Includes ------------------------------------------------------------------*/
  21:Middlewares/ST/STM32_USB_Device_Library/Core/Src/usbd_core.c **** #include "usbd_core.h"
  22:Middlewares/ST/STM32_USB_Device_Library/Core/Src/usbd_core.c **** 
  23:Middlewares/ST/STM32_USB_Device_Library/Core/Src/usbd_core.c **** /** @addtogroup STM32_USBD_DEVICE_LIBRARY
  24:Middlewares/ST/STM32_USB_Device_Library/Core/Src/usbd_core.c **** * @{
  25:Middlewares/ST/STM32_USB_Device_Library/Core/Src/usbd_core.c **** */
  26:Middlewares/ST/STM32_USB_Device_Library/Core/Src/usbd_core.c **** 
  27:Middlewares/ST/STM32_USB_Device_Library/Core/Src/usbd_core.c **** 
  28:Middlewares/ST/STM32_USB_Device_Library/Core/Src/usbd_core.c **** /** @defgroup USBD_CORE
  29:Middlewares/ST/STM32_USB_Device_Library/Core/Src/usbd_core.c **** * @brief usbd core module
  30:Middlewares/ST/STM32_USB_Device_Library/Core/Src/usbd_core.c **** * @{
  31:Middlewares/ST/STM32_USB_Device_Library/Core/Src/usbd_core.c **** */
ARM GAS  /tmp/cczhRNl8.s 			page 2


  32:Middlewares/ST/STM32_USB_Device_Library/Core/Src/usbd_core.c **** 
  33:Middlewares/ST/STM32_USB_Device_Library/Core/Src/usbd_core.c **** /** @defgroup USBD_CORE_Private_TypesDefinitions
  34:Middlewares/ST/STM32_USB_Device_Library/Core/Src/usbd_core.c **** * @{
  35:Middlewares/ST/STM32_USB_Device_Library/Core/Src/usbd_core.c **** */
  36:Middlewares/ST/STM32_USB_Device_Library/Core/Src/usbd_core.c **** 
  37:Middlewares/ST/STM32_USB_Device_Library/Core/Src/usbd_core.c **** /**
  38:Middlewares/ST/STM32_USB_Device_Library/Core/Src/usbd_core.c **** * @}
  39:Middlewares/ST/STM32_USB_Device_Library/Core/Src/usbd_core.c **** */
  40:Middlewares/ST/STM32_USB_Device_Library/Core/Src/usbd_core.c **** 
  41:Middlewares/ST/STM32_USB_Device_Library/Core/Src/usbd_core.c **** 
  42:Middlewares/ST/STM32_USB_Device_Library/Core/Src/usbd_core.c **** /** @defgroup USBD_CORE_Private_Defines
  43:Middlewares/ST/STM32_USB_Device_Library/Core/Src/usbd_core.c **** * @{
  44:Middlewares/ST/STM32_USB_Device_Library/Core/Src/usbd_core.c **** */
  45:Middlewares/ST/STM32_USB_Device_Library/Core/Src/usbd_core.c **** 
  46:Middlewares/ST/STM32_USB_Device_Library/Core/Src/usbd_core.c **** /**
  47:Middlewares/ST/STM32_USB_Device_Library/Core/Src/usbd_core.c **** * @}
  48:Middlewares/ST/STM32_USB_Device_Library/Core/Src/usbd_core.c **** */
  49:Middlewares/ST/STM32_USB_Device_Library/Core/Src/usbd_core.c **** 
  50:Middlewares/ST/STM32_USB_Device_Library/Core/Src/usbd_core.c **** 
  51:Middlewares/ST/STM32_USB_Device_Library/Core/Src/usbd_core.c **** /** @defgroup USBD_CORE_Private_Macros
  52:Middlewares/ST/STM32_USB_Device_Library/Core/Src/usbd_core.c **** * @{
  53:Middlewares/ST/STM32_USB_Device_Library/Core/Src/usbd_core.c **** */
  54:Middlewares/ST/STM32_USB_Device_Library/Core/Src/usbd_core.c **** 
  55:Middlewares/ST/STM32_USB_Device_Library/Core/Src/usbd_core.c **** /**
  56:Middlewares/ST/STM32_USB_Device_Library/Core/Src/usbd_core.c **** * @}
  57:Middlewares/ST/STM32_USB_Device_Library/Core/Src/usbd_core.c **** */
  58:Middlewares/ST/STM32_USB_Device_Library/Core/Src/usbd_core.c **** 
  59:Middlewares/ST/STM32_USB_Device_Library/Core/Src/usbd_core.c **** 
  60:Middlewares/ST/STM32_USB_Device_Library/Core/Src/usbd_core.c **** /** @defgroup USBD_CORE_Private_FunctionPrototypes
  61:Middlewares/ST/STM32_USB_Device_Library/Core/Src/usbd_core.c **** * @{
  62:Middlewares/ST/STM32_USB_Device_Library/Core/Src/usbd_core.c **** */
  63:Middlewares/ST/STM32_USB_Device_Library/Core/Src/usbd_core.c **** 
  64:Middlewares/ST/STM32_USB_Device_Library/Core/Src/usbd_core.c **** /**
  65:Middlewares/ST/STM32_USB_Device_Library/Core/Src/usbd_core.c **** * @}
  66:Middlewares/ST/STM32_USB_Device_Library/Core/Src/usbd_core.c **** */
  67:Middlewares/ST/STM32_USB_Device_Library/Core/Src/usbd_core.c **** 
  68:Middlewares/ST/STM32_USB_Device_Library/Core/Src/usbd_core.c **** /** @defgroup USBD_CORE_Private_Variables
  69:Middlewares/ST/STM32_USB_Device_Library/Core/Src/usbd_core.c **** * @{
  70:Middlewares/ST/STM32_USB_Device_Library/Core/Src/usbd_core.c **** */
  71:Middlewares/ST/STM32_USB_Device_Library/Core/Src/usbd_core.c **** 
  72:Middlewares/ST/STM32_USB_Device_Library/Core/Src/usbd_core.c **** /**
  73:Middlewares/ST/STM32_USB_Device_Library/Core/Src/usbd_core.c **** * @}
  74:Middlewares/ST/STM32_USB_Device_Library/Core/Src/usbd_core.c **** */
  75:Middlewares/ST/STM32_USB_Device_Library/Core/Src/usbd_core.c **** 
  76:Middlewares/ST/STM32_USB_Device_Library/Core/Src/usbd_core.c **** 
  77:Middlewares/ST/STM32_USB_Device_Library/Core/Src/usbd_core.c **** /** @defgroup USBD_CORE_Private_Functions
  78:Middlewares/ST/STM32_USB_Device_Library/Core/Src/usbd_core.c **** * @{
  79:Middlewares/ST/STM32_USB_Device_Library/Core/Src/usbd_core.c **** */
  80:Middlewares/ST/STM32_USB_Device_Library/Core/Src/usbd_core.c **** 
  81:Middlewares/ST/STM32_USB_Device_Library/Core/Src/usbd_core.c **** /**
  82:Middlewares/ST/STM32_USB_Device_Library/Core/Src/usbd_core.c **** * @brief  USBD_Init
  83:Middlewares/ST/STM32_USB_Device_Library/Core/Src/usbd_core.c **** *         Initializes the device stack and load the class driver
  84:Middlewares/ST/STM32_USB_Device_Library/Core/Src/usbd_core.c **** * @param  pdev: device instance
  85:Middlewares/ST/STM32_USB_Device_Library/Core/Src/usbd_core.c **** * @param  pdesc: Descriptor structure address
  86:Middlewares/ST/STM32_USB_Device_Library/Core/Src/usbd_core.c **** * @param  id: Low level core index
  87:Middlewares/ST/STM32_USB_Device_Library/Core/Src/usbd_core.c **** * @retval None
  88:Middlewares/ST/STM32_USB_Device_Library/Core/Src/usbd_core.c **** */
ARM GAS  /tmp/cczhRNl8.s 			page 3


  89:Middlewares/ST/STM32_USB_Device_Library/Core/Src/usbd_core.c **** USBD_StatusTypeDef USBD_Init(USBD_HandleTypeDef *pdev,
  90:Middlewares/ST/STM32_USB_Device_Library/Core/Src/usbd_core.c ****                              USBD_DescriptorsTypeDef *pdesc, uint8_t id)
  91:Middlewares/ST/STM32_USB_Device_Library/Core/Src/usbd_core.c **** {
  28              		.loc 1 91 1 view -0
  29              		.cfi_startproc
  30              		@ args = 0, pretend = 0, frame = 0
  31              		@ frame_needed = 0, uses_anonymous_args = 0
  32              		.loc 1 91 1 is_stmt 0 view .LVU1
  33 0000 10B5     		push	{r4, lr}
  34              	.LCFI0:
  35              		.cfi_def_cfa_offset 8
  36              		.cfi_offset 4, -8
  37              		.cfi_offset 14, -4
  92:Middlewares/ST/STM32_USB_Device_Library/Core/Src/usbd_core.c ****   /* Check whether the USB Host handle is valid */
  93:Middlewares/ST/STM32_USB_Device_Library/Core/Src/usbd_core.c ****   if (pdev == NULL)
  38              		.loc 1 93 3 is_stmt 1 view .LVU2
  39              		.loc 1 93 6 is_stmt 0 view .LVU3
  40 0002 0028     		cmp	r0, #0
  41 0004 16D0     		beq	.L5
  94:Middlewares/ST/STM32_USB_Device_Library/Core/Src/usbd_core.c ****   {
  95:Middlewares/ST/STM32_USB_Device_Library/Core/Src/usbd_core.c **** #if (USBD_DEBUG_LEVEL > 1U)
  96:Middlewares/ST/STM32_USB_Device_Library/Core/Src/usbd_core.c ****     USBD_ErrLog("Invalid Device handle");
  97:Middlewares/ST/STM32_USB_Device_Library/Core/Src/usbd_core.c **** #endif
  98:Middlewares/ST/STM32_USB_Device_Library/Core/Src/usbd_core.c ****     return USBD_FAIL;
  99:Middlewares/ST/STM32_USB_Device_Library/Core/Src/usbd_core.c ****   }
 100:Middlewares/ST/STM32_USB_Device_Library/Core/Src/usbd_core.c **** 
 101:Middlewares/ST/STM32_USB_Device_Library/Core/Src/usbd_core.c ****   /* Unlink previous class*/
 102:Middlewares/ST/STM32_USB_Device_Library/Core/Src/usbd_core.c ****   if (pdev->pClass != NULL)
  42              		.loc 1 102 3 is_stmt 1 view .LVU4
  43              		.loc 1 102 11 is_stmt 0 view .LVU5
  44 0006 AD23     		movs	r3, #173
  45 0008 9B00     		lsls	r3, r3, #2
  46 000a C358     		ldr	r3, [r0, r3]
  47              		.loc 1 102 6 view .LVU6
  48 000c 002B     		cmp	r3, #0
  49 000e 03D0     		beq	.L3
 103:Middlewares/ST/STM32_USB_Device_Library/Core/Src/usbd_core.c ****   {
 104:Middlewares/ST/STM32_USB_Device_Library/Core/Src/usbd_core.c ****     pdev->pClass = NULL;
  50              		.loc 1 104 5 is_stmt 1 view .LVU7
  51              		.loc 1 104 18 is_stmt 0 view .LVU8
  52 0010 AD23     		movs	r3, #173
  53 0012 9B00     		lsls	r3, r3, #2
  54 0014 0024     		movs	r4, #0
  55 0016 C450     		str	r4, [r0, r3]
  56              	.L3:
 105:Middlewares/ST/STM32_USB_Device_Library/Core/Src/usbd_core.c ****   }
 106:Middlewares/ST/STM32_USB_Device_Library/Core/Src/usbd_core.c **** 
 107:Middlewares/ST/STM32_USB_Device_Library/Core/Src/usbd_core.c ****   /* Assign USBD Descriptors */
 108:Middlewares/ST/STM32_USB_Device_Library/Core/Src/usbd_core.c ****   if (pdesc != NULL)
  57              		.loc 1 108 3 is_stmt 1 view .LVU9
  58              		.loc 1 108 6 is_stmt 0 view .LVU10
  59 0018 0029     		cmp	r1, #0
  60 001a 02D0     		beq	.L4
 109:Middlewares/ST/STM32_USB_Device_Library/Core/Src/usbd_core.c ****   {
 110:Middlewares/ST/STM32_USB_Device_Library/Core/Src/usbd_core.c ****     pdev->pDesc = pdesc;
  61              		.loc 1 110 5 is_stmt 1 view .LVU11
  62              		.loc 1 110 17 is_stmt 0 view .LVU12
ARM GAS  /tmp/cczhRNl8.s 			page 4


  63 001c AC23     		movs	r3, #172
  64 001e 9B00     		lsls	r3, r3, #2
  65 0020 C150     		str	r1, [r0, r3]
  66              	.L4:
 111:Middlewares/ST/STM32_USB_Device_Library/Core/Src/usbd_core.c ****   }
 112:Middlewares/ST/STM32_USB_Device_Library/Core/Src/usbd_core.c **** 
 113:Middlewares/ST/STM32_USB_Device_Library/Core/Src/usbd_core.c ****   /* Set Device initial State */
 114:Middlewares/ST/STM32_USB_Device_Library/Core/Src/usbd_core.c ****   pdev->dev_state = USBD_STATE_DEFAULT;
  67              		.loc 1 114 3 is_stmt 1 view .LVU13
  68              		.loc 1 114 19 is_stmt 0 view .LVU14
  69 0022 A723     		movs	r3, #167
  70 0024 9B00     		lsls	r3, r3, #2
  71 0026 0121     		movs	r1, #1
  72              	.LVL1:
  73              		.loc 1 114 19 view .LVU15
  74 0028 C154     		strb	r1, [r0, r3]
 115:Middlewares/ST/STM32_USB_Device_Library/Core/Src/usbd_core.c ****   pdev->id = id;
  75              		.loc 1 115 3 is_stmt 1 view .LVU16
  76              		.loc 1 115 12 is_stmt 0 view .LVU17
  77 002a 0270     		strb	r2, [r0]
 116:Middlewares/ST/STM32_USB_Device_Library/Core/Src/usbd_core.c ****   /* Initialize low level driver */
 117:Middlewares/ST/STM32_USB_Device_Library/Core/Src/usbd_core.c ****   USBD_LL_Init(pdev);
  78              		.loc 1 117 3 is_stmt 1 view .LVU18
  79 002c FFF7FEFF 		bl	USBD_LL_Init
  80              	.LVL2:
 118:Middlewares/ST/STM32_USB_Device_Library/Core/Src/usbd_core.c **** 
 119:Middlewares/ST/STM32_USB_Device_Library/Core/Src/usbd_core.c ****   return USBD_OK;
  81              		.loc 1 119 3 view .LVU19
  82              		.loc 1 119 10 is_stmt 0 view .LVU20
  83 0030 0020     		movs	r0, #0
  84              	.L2:
 120:Middlewares/ST/STM32_USB_Device_Library/Core/Src/usbd_core.c **** }
  85              		.loc 1 120 1 view .LVU21
  86              		@ sp needed
  87 0032 10BD     		pop	{r4, pc}
  88              	.LVL3:
  89              	.L5:
  98:Middlewares/ST/STM32_USB_Device_Library/Core/Src/usbd_core.c ****   }
  90              		.loc 1 98 12 view .LVU22
  91 0034 0220     		movs	r0, #2
  92              	.LVL4:
  98:Middlewares/ST/STM32_USB_Device_Library/Core/Src/usbd_core.c ****   }
  93              		.loc 1 98 12 view .LVU23
  94 0036 FCE7     		b	.L2
  95              		.cfi_endproc
  96              	.LFE43:
  98              		.section	.text.USBD_DeInit,"ax",%progbits
  99              		.align	1
 100              		.global	USBD_DeInit
 101              		.syntax unified
 102              		.code	16
 103              		.thumb_func
 104              		.fpu softvfp
 106              	USBD_DeInit:
 107              	.LVL5:
 108              	.LFB44:
 121:Middlewares/ST/STM32_USB_Device_Library/Core/Src/usbd_core.c **** 
ARM GAS  /tmp/cczhRNl8.s 			page 5


 122:Middlewares/ST/STM32_USB_Device_Library/Core/Src/usbd_core.c **** /**
 123:Middlewares/ST/STM32_USB_Device_Library/Core/Src/usbd_core.c **** * @brief  USBD_DeInit
 124:Middlewares/ST/STM32_USB_Device_Library/Core/Src/usbd_core.c **** *         Re-Initialize th device library
 125:Middlewares/ST/STM32_USB_Device_Library/Core/Src/usbd_core.c **** * @param  pdev: device instance
 126:Middlewares/ST/STM32_USB_Device_Library/Core/Src/usbd_core.c **** * @retval status: status
 127:Middlewares/ST/STM32_USB_Device_Library/Core/Src/usbd_core.c **** */
 128:Middlewares/ST/STM32_USB_Device_Library/Core/Src/usbd_core.c **** USBD_StatusTypeDef USBD_DeInit(USBD_HandleTypeDef *pdev)
 129:Middlewares/ST/STM32_USB_Device_Library/Core/Src/usbd_core.c **** {
 109              		.loc 1 129 1 is_stmt 1 view -0
 110              		.cfi_startproc
 111              		@ args = 0, pretend = 0, frame = 0
 112              		@ frame_needed = 0, uses_anonymous_args = 0
 113              		.loc 1 129 1 is_stmt 0 view .LVU25
 114 0000 10B5     		push	{r4, lr}
 115              	.LCFI1:
 116              		.cfi_def_cfa_offset 8
 117              		.cfi_offset 4, -8
 118              		.cfi_offset 14, -4
 119 0002 0400     		movs	r4, r0
 130:Middlewares/ST/STM32_USB_Device_Library/Core/Src/usbd_core.c ****   /* Set Default State */
 131:Middlewares/ST/STM32_USB_Device_Library/Core/Src/usbd_core.c ****   pdev->dev_state = USBD_STATE_DEFAULT;
 120              		.loc 1 131 3 is_stmt 1 view .LVU26
 121              		.loc 1 131 19 is_stmt 0 view .LVU27
 122 0004 A723     		movs	r3, #167
 123 0006 9B00     		lsls	r3, r3, #2
 124 0008 0122     		movs	r2, #1
 125 000a C254     		strb	r2, [r0, r3]
 132:Middlewares/ST/STM32_USB_Device_Library/Core/Src/usbd_core.c **** 
 133:Middlewares/ST/STM32_USB_Device_Library/Core/Src/usbd_core.c ****   /* Free Class Resources */
 134:Middlewares/ST/STM32_USB_Device_Library/Core/Src/usbd_core.c ****   pdev->pClass->DeInit(pdev, (uint8_t)pdev->dev_config);
 126              		.loc 1 134 3 is_stmt 1 view .LVU28
 127              		.loc 1 134 7 is_stmt 0 view .LVU29
 128 000c 1833     		adds	r3, r3, #24
 129 000e C358     		ldr	r3, [r0, r3]
 130              		.loc 1 134 15 view .LVU30
 131 0010 5B68     		ldr	r3, [r3, #4]
 132              		.loc 1 134 3 view .LVU31
 133 0012 0179     		ldrb	r1, [r0, #4]
 134 0014 9847     		blx	r3
 135              	.LVL6:
 135:Middlewares/ST/STM32_USB_Device_Library/Core/Src/usbd_core.c **** 
 136:Middlewares/ST/STM32_USB_Device_Library/Core/Src/usbd_core.c ****   /* Stop the low level driver  */
 137:Middlewares/ST/STM32_USB_Device_Library/Core/Src/usbd_core.c ****   USBD_LL_Stop(pdev);
 136              		.loc 1 137 3 is_stmt 1 view .LVU32
 137 0016 2000     		movs	r0, r4
 138 0018 FFF7FEFF 		bl	USBD_LL_Stop
 139              	.LVL7:
 138:Middlewares/ST/STM32_USB_Device_Library/Core/Src/usbd_core.c **** 
 139:Middlewares/ST/STM32_USB_Device_Library/Core/Src/usbd_core.c ****   /* Initialize low level driver */
 140:Middlewares/ST/STM32_USB_Device_Library/Core/Src/usbd_core.c ****   USBD_LL_DeInit(pdev);
 140              		.loc 1 140 3 view .LVU33
 141 001c 2000     		movs	r0, r4
 142 001e FFF7FEFF 		bl	USBD_LL_DeInit
 143              	.LVL8:
 141:Middlewares/ST/STM32_USB_Device_Library/Core/Src/usbd_core.c **** 
 142:Middlewares/ST/STM32_USB_Device_Library/Core/Src/usbd_core.c ****   return USBD_OK;
 144              		.loc 1 142 3 view .LVU34
ARM GAS  /tmp/cczhRNl8.s 			page 6


 143:Middlewares/ST/STM32_USB_Device_Library/Core/Src/usbd_core.c **** }
 145              		.loc 1 143 1 is_stmt 0 view .LVU35
 146 0022 0020     		movs	r0, #0
 147              		@ sp needed
 148              	.LVL9:
 149              		.loc 1 143 1 view .LVU36
 150 0024 10BD     		pop	{r4, pc}
 151              		.cfi_endproc
 152              	.LFE44:
 154              		.section	.text.USBD_RegisterClass,"ax",%progbits
 155              		.align	1
 156              		.global	USBD_RegisterClass
 157              		.syntax unified
 158              		.code	16
 159              		.thumb_func
 160              		.fpu softvfp
 162              	USBD_RegisterClass:
 163              	.LVL10:
 164              	.LFB45:
 144:Middlewares/ST/STM32_USB_Device_Library/Core/Src/usbd_core.c **** 
 145:Middlewares/ST/STM32_USB_Device_Library/Core/Src/usbd_core.c **** /**
 146:Middlewares/ST/STM32_USB_Device_Library/Core/Src/usbd_core.c ****   * @brief  USBD_RegisterClass
 147:Middlewares/ST/STM32_USB_Device_Library/Core/Src/usbd_core.c ****   *         Link class driver to Device Core.
 148:Middlewares/ST/STM32_USB_Device_Library/Core/Src/usbd_core.c ****   * @param  pDevice : Device Handle
 149:Middlewares/ST/STM32_USB_Device_Library/Core/Src/usbd_core.c ****   * @param  pclass: Class handle
 150:Middlewares/ST/STM32_USB_Device_Library/Core/Src/usbd_core.c ****   * @retval USBD Status
 151:Middlewares/ST/STM32_USB_Device_Library/Core/Src/usbd_core.c ****   */
 152:Middlewares/ST/STM32_USB_Device_Library/Core/Src/usbd_core.c **** USBD_StatusTypeDef  USBD_RegisterClass(USBD_HandleTypeDef *pdev, USBD_ClassTypeDef *pclass)
 153:Middlewares/ST/STM32_USB_Device_Library/Core/Src/usbd_core.c **** {
 165              		.loc 1 153 1 is_stmt 1 view -0
 166              		.cfi_startproc
 167              		@ args = 0, pretend = 0, frame = 0
 168              		@ frame_needed = 0, uses_anonymous_args = 0
 169              		@ link register save eliminated.
 154:Middlewares/ST/STM32_USB_Device_Library/Core/Src/usbd_core.c ****   USBD_StatusTypeDef status = USBD_OK;
 170              		.loc 1 154 3 view .LVU38
 155:Middlewares/ST/STM32_USB_Device_Library/Core/Src/usbd_core.c ****   if (pclass != NULL)
 171              		.loc 1 155 3 view .LVU39
 172              		.loc 1 155 6 is_stmt 0 view .LVU40
 173 0000 0029     		cmp	r1, #0
 174 0002 04D0     		beq	.L9
 156:Middlewares/ST/STM32_USB_Device_Library/Core/Src/usbd_core.c ****   {
 157:Middlewares/ST/STM32_USB_Device_Library/Core/Src/usbd_core.c ****     /* link the class to the USB Device handle */
 158:Middlewares/ST/STM32_USB_Device_Library/Core/Src/usbd_core.c ****     pdev->pClass = pclass;
 175              		.loc 1 158 5 is_stmt 1 view .LVU41
 176              		.loc 1 158 18 is_stmt 0 view .LVU42
 177 0004 AD23     		movs	r3, #173
 178 0006 9B00     		lsls	r3, r3, #2
 179 0008 C150     		str	r1, [r0, r3]
 159:Middlewares/ST/STM32_USB_Device_Library/Core/Src/usbd_core.c ****     status = USBD_OK;
 180              		.loc 1 159 5 is_stmt 1 view .LVU43
 181              		.loc 1 159 12 is_stmt 0 view .LVU44
 182 000a 0020     		movs	r0, #0
 183              	.LVL11:
 184              	.L8:
 160:Middlewares/ST/STM32_USB_Device_Library/Core/Src/usbd_core.c ****   }
 161:Middlewares/ST/STM32_USB_Device_Library/Core/Src/usbd_core.c ****   else
ARM GAS  /tmp/cczhRNl8.s 			page 7


 162:Middlewares/ST/STM32_USB_Device_Library/Core/Src/usbd_core.c ****   {
 163:Middlewares/ST/STM32_USB_Device_Library/Core/Src/usbd_core.c **** #if (USBD_DEBUG_LEVEL > 1U)
 164:Middlewares/ST/STM32_USB_Device_Library/Core/Src/usbd_core.c ****     USBD_ErrLog("Invalid Class handle");
 165:Middlewares/ST/STM32_USB_Device_Library/Core/Src/usbd_core.c **** #endif
 166:Middlewares/ST/STM32_USB_Device_Library/Core/Src/usbd_core.c ****     status = USBD_FAIL;
 167:Middlewares/ST/STM32_USB_Device_Library/Core/Src/usbd_core.c ****   }
 168:Middlewares/ST/STM32_USB_Device_Library/Core/Src/usbd_core.c **** 
 169:Middlewares/ST/STM32_USB_Device_Library/Core/Src/usbd_core.c ****   return status;
 185              		.loc 1 169 3 is_stmt 1 view .LVU45
 170:Middlewares/ST/STM32_USB_Device_Library/Core/Src/usbd_core.c **** }
 186              		.loc 1 170 1 is_stmt 0 view .LVU46
 187              		@ sp needed
 188 000c 7047     		bx	lr
 189              	.LVL12:
 190              	.L9:
 166:Middlewares/ST/STM32_USB_Device_Library/Core/Src/usbd_core.c ****   }
 191              		.loc 1 166 12 view .LVU47
 192 000e 0220     		movs	r0, #2
 193              	.LVL13:
 166:Middlewares/ST/STM32_USB_Device_Library/Core/Src/usbd_core.c ****   }
 194              		.loc 1 166 12 view .LVU48
 195 0010 FCE7     		b	.L8
 196              		.cfi_endproc
 197              	.LFE45:
 199              		.section	.text.USBD_Start,"ax",%progbits
 200              		.align	1
 201              		.global	USBD_Start
 202              		.syntax unified
 203              		.code	16
 204              		.thumb_func
 205              		.fpu softvfp
 207              	USBD_Start:
 208              	.LVL14:
 209              	.LFB46:
 171:Middlewares/ST/STM32_USB_Device_Library/Core/Src/usbd_core.c **** 
 172:Middlewares/ST/STM32_USB_Device_Library/Core/Src/usbd_core.c **** /**
 173:Middlewares/ST/STM32_USB_Device_Library/Core/Src/usbd_core.c ****   * @brief  USBD_Start
 174:Middlewares/ST/STM32_USB_Device_Library/Core/Src/usbd_core.c ****   *         Start the USB Device Core.
 175:Middlewares/ST/STM32_USB_Device_Library/Core/Src/usbd_core.c ****   * @param  pdev: Device Handle
 176:Middlewares/ST/STM32_USB_Device_Library/Core/Src/usbd_core.c ****   * @retval USBD Status
 177:Middlewares/ST/STM32_USB_Device_Library/Core/Src/usbd_core.c ****   */
 178:Middlewares/ST/STM32_USB_Device_Library/Core/Src/usbd_core.c **** USBD_StatusTypeDef  USBD_Start(USBD_HandleTypeDef *pdev)
 179:Middlewares/ST/STM32_USB_Device_Library/Core/Src/usbd_core.c **** {
 210              		.loc 1 179 1 is_stmt 1 view -0
 211              		.cfi_startproc
 212              		@ args = 0, pretend = 0, frame = 0
 213              		@ frame_needed = 0, uses_anonymous_args = 0
 214              		.loc 1 179 1 is_stmt 0 view .LVU50
 215 0000 10B5     		push	{r4, lr}
 216              	.LCFI2:
 217              		.cfi_def_cfa_offset 8
 218              		.cfi_offset 4, -8
 219              		.cfi_offset 14, -4
 180:Middlewares/ST/STM32_USB_Device_Library/Core/Src/usbd_core.c ****   /* Start the low level driver  */
 181:Middlewares/ST/STM32_USB_Device_Library/Core/Src/usbd_core.c ****   USBD_LL_Start(pdev);
 220              		.loc 1 181 3 is_stmt 1 view .LVU51
 221 0002 FFF7FEFF 		bl	USBD_LL_Start
ARM GAS  /tmp/cczhRNl8.s 			page 8


 222              	.LVL15:
 182:Middlewares/ST/STM32_USB_Device_Library/Core/Src/usbd_core.c **** 
 183:Middlewares/ST/STM32_USB_Device_Library/Core/Src/usbd_core.c ****   return USBD_OK;
 223              		.loc 1 183 3 view .LVU52
 184:Middlewares/ST/STM32_USB_Device_Library/Core/Src/usbd_core.c **** }
 224              		.loc 1 184 1 is_stmt 0 view .LVU53
 225 0006 0020     		movs	r0, #0
 226              		@ sp needed
 227 0008 10BD     		pop	{r4, pc}
 228              		.cfi_endproc
 229              	.LFE46:
 231              		.section	.text.USBD_Stop,"ax",%progbits
 232              		.align	1
 233              		.global	USBD_Stop
 234              		.syntax unified
 235              		.code	16
 236              		.thumb_func
 237              		.fpu softvfp
 239              	USBD_Stop:
 240              	.LVL16:
 241              	.LFB47:
 185:Middlewares/ST/STM32_USB_Device_Library/Core/Src/usbd_core.c **** 
 186:Middlewares/ST/STM32_USB_Device_Library/Core/Src/usbd_core.c **** /**
 187:Middlewares/ST/STM32_USB_Device_Library/Core/Src/usbd_core.c ****   * @brief  USBD_Stop
 188:Middlewares/ST/STM32_USB_Device_Library/Core/Src/usbd_core.c ****   *         Stop the USB Device Core.
 189:Middlewares/ST/STM32_USB_Device_Library/Core/Src/usbd_core.c ****   * @param  pdev: Device Handle
 190:Middlewares/ST/STM32_USB_Device_Library/Core/Src/usbd_core.c ****   * @retval USBD Status
 191:Middlewares/ST/STM32_USB_Device_Library/Core/Src/usbd_core.c ****   */
 192:Middlewares/ST/STM32_USB_Device_Library/Core/Src/usbd_core.c **** USBD_StatusTypeDef  USBD_Stop(USBD_HandleTypeDef *pdev)
 193:Middlewares/ST/STM32_USB_Device_Library/Core/Src/usbd_core.c **** {
 242              		.loc 1 193 1 is_stmt 1 view -0
 243              		.cfi_startproc
 244              		@ args = 0, pretend = 0, frame = 0
 245              		@ frame_needed = 0, uses_anonymous_args = 0
 246              		.loc 1 193 1 is_stmt 0 view .LVU55
 247 0000 10B5     		push	{r4, lr}
 248              	.LCFI3:
 249              		.cfi_def_cfa_offset 8
 250              		.cfi_offset 4, -8
 251              		.cfi_offset 14, -4
 252 0002 0400     		movs	r4, r0
 194:Middlewares/ST/STM32_USB_Device_Library/Core/Src/usbd_core.c ****   /* Free Class Resources */
 195:Middlewares/ST/STM32_USB_Device_Library/Core/Src/usbd_core.c ****   pdev->pClass->DeInit(pdev, (uint8_t)pdev->dev_config);
 253              		.loc 1 195 3 is_stmt 1 view .LVU56
 254              		.loc 1 195 7 is_stmt 0 view .LVU57
 255 0004 AD23     		movs	r3, #173
 256 0006 9B00     		lsls	r3, r3, #2
 257 0008 C358     		ldr	r3, [r0, r3]
 258              		.loc 1 195 15 view .LVU58
 259 000a 5B68     		ldr	r3, [r3, #4]
 260              		.loc 1 195 3 view .LVU59
 261 000c 0179     		ldrb	r1, [r0, #4]
 262 000e 9847     		blx	r3
 263              	.LVL17:
 196:Middlewares/ST/STM32_USB_Device_Library/Core/Src/usbd_core.c **** 
 197:Middlewares/ST/STM32_USB_Device_Library/Core/Src/usbd_core.c ****   /* Stop the low level driver */
 198:Middlewares/ST/STM32_USB_Device_Library/Core/Src/usbd_core.c ****   USBD_LL_Stop(pdev);
ARM GAS  /tmp/cczhRNl8.s 			page 9


 264              		.loc 1 198 3 is_stmt 1 view .LVU60
 265 0010 2000     		movs	r0, r4
 266 0012 FFF7FEFF 		bl	USBD_LL_Stop
 267              	.LVL18:
 199:Middlewares/ST/STM32_USB_Device_Library/Core/Src/usbd_core.c **** 
 200:Middlewares/ST/STM32_USB_Device_Library/Core/Src/usbd_core.c ****   return USBD_OK;
 268              		.loc 1 200 3 view .LVU61
 201:Middlewares/ST/STM32_USB_Device_Library/Core/Src/usbd_core.c **** }
 269              		.loc 1 201 1 is_stmt 0 view .LVU62
 270 0016 0020     		movs	r0, #0
 271              		@ sp needed
 272              	.LVL19:
 273              		.loc 1 201 1 view .LVU63
 274 0018 10BD     		pop	{r4, pc}
 275              		.cfi_endproc
 276              	.LFE47:
 278              		.section	.text.USBD_RunTestMode,"ax",%progbits
 279              		.align	1
 280              		.global	USBD_RunTestMode
 281              		.syntax unified
 282              		.code	16
 283              		.thumb_func
 284              		.fpu softvfp
 286              	USBD_RunTestMode:
 287              	.LVL20:
 288              	.LFB48:
 202:Middlewares/ST/STM32_USB_Device_Library/Core/Src/usbd_core.c **** 
 203:Middlewares/ST/STM32_USB_Device_Library/Core/Src/usbd_core.c **** /**
 204:Middlewares/ST/STM32_USB_Device_Library/Core/Src/usbd_core.c **** * @brief  USBD_RunTestMode
 205:Middlewares/ST/STM32_USB_Device_Library/Core/Src/usbd_core.c **** *         Launch test mode process
 206:Middlewares/ST/STM32_USB_Device_Library/Core/Src/usbd_core.c **** * @param  pdev: device instance
 207:Middlewares/ST/STM32_USB_Device_Library/Core/Src/usbd_core.c **** * @retval status
 208:Middlewares/ST/STM32_USB_Device_Library/Core/Src/usbd_core.c **** */
 209:Middlewares/ST/STM32_USB_Device_Library/Core/Src/usbd_core.c **** USBD_StatusTypeDef  USBD_RunTestMode(USBD_HandleTypeDef  *pdev)
 210:Middlewares/ST/STM32_USB_Device_Library/Core/Src/usbd_core.c **** {
 289              		.loc 1 210 1 is_stmt 1 view -0
 290              		.cfi_startproc
 291              		@ args = 0, pretend = 0, frame = 0
 292              		@ frame_needed = 0, uses_anonymous_args = 0
 293              		@ link register save eliminated.
 211:Middlewares/ST/STM32_USB_Device_Library/Core/Src/usbd_core.c ****   /* Prevent unused argument compilation warning */
 212:Middlewares/ST/STM32_USB_Device_Library/Core/Src/usbd_core.c ****   UNUSED(pdev);
 294              		.loc 1 212 3 view .LVU65
 213:Middlewares/ST/STM32_USB_Device_Library/Core/Src/usbd_core.c **** 
 214:Middlewares/ST/STM32_USB_Device_Library/Core/Src/usbd_core.c ****   return USBD_OK;
 295              		.loc 1 214 3 view .LVU66
 215:Middlewares/ST/STM32_USB_Device_Library/Core/Src/usbd_core.c **** }
 296              		.loc 1 215 1 is_stmt 0 view .LVU67
 297 0000 0020     		movs	r0, #0
 298              	.LVL21:
 299              		.loc 1 215 1 view .LVU68
 300              		@ sp needed
 301 0002 7047     		bx	lr
 302              		.cfi_endproc
 303              	.LFE48:
 305              		.section	.text.USBD_SetClassConfig,"ax",%progbits
 306              		.align	1
ARM GAS  /tmp/cczhRNl8.s 			page 10


 307              		.global	USBD_SetClassConfig
 308              		.syntax unified
 309              		.code	16
 310              		.thumb_func
 311              		.fpu softvfp
 313              	USBD_SetClassConfig:
 314              	.LVL22:
 315              	.LFB49:
 216:Middlewares/ST/STM32_USB_Device_Library/Core/Src/usbd_core.c **** 
 217:Middlewares/ST/STM32_USB_Device_Library/Core/Src/usbd_core.c **** /**
 218:Middlewares/ST/STM32_USB_Device_Library/Core/Src/usbd_core.c **** * @brief  USBD_SetClassConfig
 219:Middlewares/ST/STM32_USB_Device_Library/Core/Src/usbd_core.c **** *        Configure device and start the interface
 220:Middlewares/ST/STM32_USB_Device_Library/Core/Src/usbd_core.c **** * @param  pdev: device instance
 221:Middlewares/ST/STM32_USB_Device_Library/Core/Src/usbd_core.c **** * @param  cfgidx: configuration index
 222:Middlewares/ST/STM32_USB_Device_Library/Core/Src/usbd_core.c **** * @retval status
 223:Middlewares/ST/STM32_USB_Device_Library/Core/Src/usbd_core.c **** */
 224:Middlewares/ST/STM32_USB_Device_Library/Core/Src/usbd_core.c **** 
 225:Middlewares/ST/STM32_USB_Device_Library/Core/Src/usbd_core.c **** USBD_StatusTypeDef USBD_SetClassConfig(USBD_HandleTypeDef  *pdev, uint8_t cfgidx)
 226:Middlewares/ST/STM32_USB_Device_Library/Core/Src/usbd_core.c **** {
 316              		.loc 1 226 1 is_stmt 1 view -0
 317              		.cfi_startproc
 318              		@ args = 0, pretend = 0, frame = 0
 319              		@ frame_needed = 0, uses_anonymous_args = 0
 320              		.loc 1 226 1 is_stmt 0 view .LVU70
 321 0000 10B5     		push	{r4, lr}
 322              	.LCFI4:
 323              		.cfi_def_cfa_offset 8
 324              		.cfi_offset 4, -8
 325              		.cfi_offset 14, -4
 227:Middlewares/ST/STM32_USB_Device_Library/Core/Src/usbd_core.c ****   USBD_StatusTypeDef ret = USBD_FAIL;
 326              		.loc 1 227 3 is_stmt 1 view .LVU71
 327              	.LVL23:
 228:Middlewares/ST/STM32_USB_Device_Library/Core/Src/usbd_core.c **** 
 229:Middlewares/ST/STM32_USB_Device_Library/Core/Src/usbd_core.c ****   if (pdev->pClass != NULL)
 328              		.loc 1 229 3 view .LVU72
 329              		.loc 1 229 11 is_stmt 0 view .LVU73
 330 0002 AD23     		movs	r3, #173
 331 0004 9B00     		lsls	r3, r3, #2
 332 0006 C358     		ldr	r3, [r0, r3]
 333              		.loc 1 229 6 view .LVU74
 334 0008 002B     		cmp	r3, #0
 335 000a 06D0     		beq	.L15
 230:Middlewares/ST/STM32_USB_Device_Library/Core/Src/usbd_core.c ****   {
 231:Middlewares/ST/STM32_USB_Device_Library/Core/Src/usbd_core.c ****     /* Set configuration  and Start the Class*/
 232:Middlewares/ST/STM32_USB_Device_Library/Core/Src/usbd_core.c ****     if (pdev->pClass->Init(pdev, cfgidx) == 0U)
 336              		.loc 1 232 5 is_stmt 1 view .LVU75
 337              		.loc 1 232 21 is_stmt 0 view .LVU76
 338 000c 1B68     		ldr	r3, [r3]
 339              		.loc 1 232 9 view .LVU77
 340 000e 9847     		blx	r3
 341              	.LVL24:
 342              		.loc 1 232 8 view .LVU78
 343 0010 0028     		cmp	r0, #0
 344 0012 00D1     		bne	.L16
 345              	.L14:
 346              	.LVL25:
 233:Middlewares/ST/STM32_USB_Device_Library/Core/Src/usbd_core.c ****     {
ARM GAS  /tmp/cczhRNl8.s 			page 11


 234:Middlewares/ST/STM32_USB_Device_Library/Core/Src/usbd_core.c ****       ret = USBD_OK;
 235:Middlewares/ST/STM32_USB_Device_Library/Core/Src/usbd_core.c ****     }
 236:Middlewares/ST/STM32_USB_Device_Library/Core/Src/usbd_core.c ****   }
 237:Middlewares/ST/STM32_USB_Device_Library/Core/Src/usbd_core.c **** 
 238:Middlewares/ST/STM32_USB_Device_Library/Core/Src/usbd_core.c ****   return ret;
 347              		.loc 1 238 3 is_stmt 1 view .LVU79
 239:Middlewares/ST/STM32_USB_Device_Library/Core/Src/usbd_core.c **** }
 348              		.loc 1 239 1 is_stmt 0 view .LVU80
 349              		@ sp needed
 350 0014 10BD     		pop	{r4, pc}
 351              	.LVL26:
 352              	.L16:
 227:Middlewares/ST/STM32_USB_Device_Library/Core/Src/usbd_core.c **** 
 353              		.loc 1 227 22 view .LVU81
 354 0016 0220     		movs	r0, #2
 355 0018 FCE7     		b	.L14
 356              	.LVL27:
 357              	.L15:
 227:Middlewares/ST/STM32_USB_Device_Library/Core/Src/usbd_core.c **** 
 358              		.loc 1 227 22 view .LVU82
 359 001a 0220     		movs	r0, #2
 360              	.LVL28:
 227:Middlewares/ST/STM32_USB_Device_Library/Core/Src/usbd_core.c **** 
 361              		.loc 1 227 22 view .LVU83
 362 001c FAE7     		b	.L14
 363              		.cfi_endproc
 364              	.LFE49:
 366              		.section	.text.USBD_ClrClassConfig,"ax",%progbits
 367              		.align	1
 368              		.global	USBD_ClrClassConfig
 369              		.syntax unified
 370              		.code	16
 371              		.thumb_func
 372              		.fpu softvfp
 374              	USBD_ClrClassConfig:
 375              	.LVL29:
 376              	.LFB50:
 240:Middlewares/ST/STM32_USB_Device_Library/Core/Src/usbd_core.c **** 
 241:Middlewares/ST/STM32_USB_Device_Library/Core/Src/usbd_core.c **** /**
 242:Middlewares/ST/STM32_USB_Device_Library/Core/Src/usbd_core.c **** * @brief  USBD_ClrClassConfig
 243:Middlewares/ST/STM32_USB_Device_Library/Core/Src/usbd_core.c **** *         Clear current configuration
 244:Middlewares/ST/STM32_USB_Device_Library/Core/Src/usbd_core.c **** * @param  pdev: device instance
 245:Middlewares/ST/STM32_USB_Device_Library/Core/Src/usbd_core.c **** * @param  cfgidx: configuration index
 246:Middlewares/ST/STM32_USB_Device_Library/Core/Src/usbd_core.c **** * @retval status: USBD_StatusTypeDef
 247:Middlewares/ST/STM32_USB_Device_Library/Core/Src/usbd_core.c **** */
 248:Middlewares/ST/STM32_USB_Device_Library/Core/Src/usbd_core.c **** USBD_StatusTypeDef USBD_ClrClassConfig(USBD_HandleTypeDef  *pdev, uint8_t cfgidx)
 249:Middlewares/ST/STM32_USB_Device_Library/Core/Src/usbd_core.c **** {
 377              		.loc 1 249 1 is_stmt 1 view -0
 378              		.cfi_startproc
 379              		@ args = 0, pretend = 0, frame = 0
 380              		@ frame_needed = 0, uses_anonymous_args = 0
 381              		.loc 1 249 1 is_stmt 0 view .LVU85
 382 0000 10B5     		push	{r4, lr}
 383              	.LCFI5:
 384              		.cfi_def_cfa_offset 8
 385              		.cfi_offset 4, -8
 386              		.cfi_offset 14, -4
ARM GAS  /tmp/cczhRNl8.s 			page 12


 250:Middlewares/ST/STM32_USB_Device_Library/Core/Src/usbd_core.c ****   /* Clear configuration  and De-initialize the Class process*/
 251:Middlewares/ST/STM32_USB_Device_Library/Core/Src/usbd_core.c ****   pdev->pClass->DeInit(pdev, cfgidx);
 387              		.loc 1 251 3 is_stmt 1 view .LVU86
 388              		.loc 1 251 7 is_stmt 0 view .LVU87
 389 0002 AD23     		movs	r3, #173
 390 0004 9B00     		lsls	r3, r3, #2
 391 0006 C358     		ldr	r3, [r0, r3]
 392              		.loc 1 251 15 view .LVU88
 393 0008 5B68     		ldr	r3, [r3, #4]
 394              		.loc 1 251 3 view .LVU89
 395 000a 9847     		blx	r3
 396              	.LVL30:
 252:Middlewares/ST/STM32_USB_Device_Library/Core/Src/usbd_core.c **** 
 253:Middlewares/ST/STM32_USB_Device_Library/Core/Src/usbd_core.c ****   return USBD_OK;
 397              		.loc 1 253 3 is_stmt 1 view .LVU90
 254:Middlewares/ST/STM32_USB_Device_Library/Core/Src/usbd_core.c **** }
 398              		.loc 1 254 1 is_stmt 0 view .LVU91
 399 000c 0020     		movs	r0, #0
 400              		@ sp needed
 401 000e 10BD     		pop	{r4, pc}
 402              		.cfi_endproc
 403              	.LFE50:
 405              		.section	.text.USBD_LL_SetupStage,"ax",%progbits
 406              		.align	1
 407              		.global	USBD_LL_SetupStage
 408              		.syntax unified
 409              		.code	16
 410              		.thumb_func
 411              		.fpu softvfp
 413              	USBD_LL_SetupStage:
 414              	.LVL31:
 415              	.LFB51:
 255:Middlewares/ST/STM32_USB_Device_Library/Core/Src/usbd_core.c **** 
 256:Middlewares/ST/STM32_USB_Device_Library/Core/Src/usbd_core.c **** 
 257:Middlewares/ST/STM32_USB_Device_Library/Core/Src/usbd_core.c **** /**
 258:Middlewares/ST/STM32_USB_Device_Library/Core/Src/usbd_core.c **** * @brief  USBD_SetupStage
 259:Middlewares/ST/STM32_USB_Device_Library/Core/Src/usbd_core.c **** *         Handle the setup stage
 260:Middlewares/ST/STM32_USB_Device_Library/Core/Src/usbd_core.c **** * @param  pdev: device instance
 261:Middlewares/ST/STM32_USB_Device_Library/Core/Src/usbd_core.c **** * @retval status
 262:Middlewares/ST/STM32_USB_Device_Library/Core/Src/usbd_core.c **** */
 263:Middlewares/ST/STM32_USB_Device_Library/Core/Src/usbd_core.c **** USBD_StatusTypeDef USBD_LL_SetupStage(USBD_HandleTypeDef *pdev, uint8_t *psetup)
 264:Middlewares/ST/STM32_USB_Device_Library/Core/Src/usbd_core.c **** {
 416              		.loc 1 264 1 is_stmt 1 view -0
 417              		.cfi_startproc
 418              		@ args = 0, pretend = 0, frame = 0
 419              		@ frame_needed = 0, uses_anonymous_args = 0
 420              		.loc 1 264 1 is_stmt 0 view .LVU93
 421 0000 70B5     		push	{r4, r5, r6, lr}
 422              	.LCFI6:
 423              		.cfi_def_cfa_offset 16
 424              		.cfi_offset 4, -16
 425              		.cfi_offset 5, -12
 426              		.cfi_offset 6, -8
 427              		.cfi_offset 14, -4
 428 0002 0400     		movs	r4, r0
 265:Middlewares/ST/STM32_USB_Device_Library/Core/Src/usbd_core.c ****   USBD_ParseSetupRequest(&pdev->request, psetup);
 429              		.loc 1 265 3 is_stmt 1 view .LVU94
ARM GAS  /tmp/cczhRNl8.s 			page 13


 430 0004 AA23     		movs	r3, #170
 431 0006 9B00     		lsls	r3, r3, #2
 432 0008 C518     		adds	r5, r0, r3
 433 000a 2800     		movs	r0, r5
 434              	.LVL32:
 435              		.loc 1 265 3 is_stmt 0 view .LVU95
 436 000c FFF7FEFF 		bl	USBD_ParseSetupRequest
 437              	.LVL33:
 266:Middlewares/ST/STM32_USB_Device_Library/Core/Src/usbd_core.c **** 
 267:Middlewares/ST/STM32_USB_Device_Library/Core/Src/usbd_core.c ****   pdev->ep0_state = USBD_EP0_SETUP;
 438              		.loc 1 267 3 is_stmt 1 view .LVU96
 439              		.loc 1 267 19 is_stmt 0 view .LVU97
 440 0010 A523     		movs	r3, #165
 441 0012 9B00     		lsls	r3, r3, #2
 442 0014 0122     		movs	r2, #1
 443 0016 E250     		str	r2, [r4, r3]
 268:Middlewares/ST/STM32_USB_Device_Library/Core/Src/usbd_core.c **** 
 269:Middlewares/ST/STM32_USB_Device_Library/Core/Src/usbd_core.c ****   pdev->ep0_data_len = pdev->request.wLength;
 444              		.loc 1 269 3 is_stmt 1 view .LVU98
 445              		.loc 1 269 37 is_stmt 0 view .LVU99
 446 0018 114B     		ldr	r3, .L24
 447 001a E25A     		ldrh	r2, [r4, r3]
 448              		.loc 1 269 22 view .LVU100
 449 001c 163B     		subs	r3, r3, #22
 450 001e E250     		str	r2, [r4, r3]
 270:Middlewares/ST/STM32_USB_Device_Library/Core/Src/usbd_core.c **** 
 271:Middlewares/ST/STM32_USB_Device_Library/Core/Src/usbd_core.c ****   switch (pdev->request.bmRequest & 0x1FU)
 451              		.loc 1 271 3 is_stmt 1 view .LVU101
 452              		.loc 1 271 24 is_stmt 0 view .LVU102
 453 0020 1033     		adds	r3, r3, #16
 454 0022 E15C     		ldrb	r1, [r4, r3]
 455 0024 1F23     		movs	r3, #31
 456 0026 0B40     		ands	r3, r1
 457              		.loc 1 271 3 view .LVU103
 458 0028 012B     		cmp	r3, #1
 459 002a 0FD0     		beq	.L19
 460 002c 022B     		cmp	r3, #2
 461 002e 12D0     		beq	.L20
 462 0030 002B     		cmp	r3, #0
 463 0032 05D0     		beq	.L23
 272:Middlewares/ST/STM32_USB_Device_Library/Core/Src/usbd_core.c ****   {
 273:Middlewares/ST/STM32_USB_Device_Library/Core/Src/usbd_core.c ****     case USB_REQ_RECIPIENT_DEVICE:
 274:Middlewares/ST/STM32_USB_Device_Library/Core/Src/usbd_core.c ****       USBD_StdDevReq(pdev, &pdev->request);
 275:Middlewares/ST/STM32_USB_Device_Library/Core/Src/usbd_core.c ****       break;
 276:Middlewares/ST/STM32_USB_Device_Library/Core/Src/usbd_core.c **** 
 277:Middlewares/ST/STM32_USB_Device_Library/Core/Src/usbd_core.c ****     case USB_REQ_RECIPIENT_INTERFACE:
 278:Middlewares/ST/STM32_USB_Device_Library/Core/Src/usbd_core.c ****       USBD_StdItfReq(pdev, &pdev->request);
 279:Middlewares/ST/STM32_USB_Device_Library/Core/Src/usbd_core.c ****       break;
 280:Middlewares/ST/STM32_USB_Device_Library/Core/Src/usbd_core.c **** 
 281:Middlewares/ST/STM32_USB_Device_Library/Core/Src/usbd_core.c ****     case USB_REQ_RECIPIENT_ENDPOINT:
 282:Middlewares/ST/STM32_USB_Device_Library/Core/Src/usbd_core.c ****       USBD_StdEPReq(pdev, &pdev->request);
 283:Middlewares/ST/STM32_USB_Device_Library/Core/Src/usbd_core.c ****       break;
 284:Middlewares/ST/STM32_USB_Device_Library/Core/Src/usbd_core.c **** 
 285:Middlewares/ST/STM32_USB_Device_Library/Core/Src/usbd_core.c ****     default:
 286:Middlewares/ST/STM32_USB_Device_Library/Core/Src/usbd_core.c ****       USBD_LL_StallEP(pdev, (pdev->request.bmRequest & 0x80U));
 464              		.loc 1 286 7 is_stmt 1 view .LVU104
 465 0034 7F23     		movs	r3, #127
ARM GAS  /tmp/cczhRNl8.s 			page 14


 466 0036 9943     		bics	r1, r3
 467 0038 2000     		movs	r0, r4
 468 003a FFF7FEFF 		bl	USBD_LL_StallEP
 469              	.LVL34:
 287:Middlewares/ST/STM32_USB_Device_Library/Core/Src/usbd_core.c ****       break;
 470              		.loc 1 287 7 view .LVU105
 471 003e 03E0     		b	.L22
 472              	.L23:
 274:Middlewares/ST/STM32_USB_Device_Library/Core/Src/usbd_core.c ****       break;
 473              		.loc 1 274 7 view .LVU106
 474 0040 2900     		movs	r1, r5
 475 0042 2000     		movs	r0, r4
 476 0044 FFF7FEFF 		bl	USBD_StdDevReq
 477              	.LVL35:
 275:Middlewares/ST/STM32_USB_Device_Library/Core/Src/usbd_core.c **** 
 478              		.loc 1 275 7 view .LVU107
 479              	.L22:
 288:Middlewares/ST/STM32_USB_Device_Library/Core/Src/usbd_core.c ****   }
 289:Middlewares/ST/STM32_USB_Device_Library/Core/Src/usbd_core.c **** 
 290:Middlewares/ST/STM32_USB_Device_Library/Core/Src/usbd_core.c ****   return USBD_OK;
 480              		.loc 1 290 3 view .LVU108
 291:Middlewares/ST/STM32_USB_Device_Library/Core/Src/usbd_core.c **** }
 481              		.loc 1 291 1 is_stmt 0 view .LVU109
 482 0048 0020     		movs	r0, #0
 483              		@ sp needed
 484              	.LVL36:
 485              	.LVL37:
 486              		.loc 1 291 1 view .LVU110
 487 004a 70BD     		pop	{r4, r5, r6, pc}
 488              	.LVL38:
 489              	.L19:
 278:Middlewares/ST/STM32_USB_Device_Library/Core/Src/usbd_core.c ****       break;
 490              		.loc 1 278 7 is_stmt 1 view .LVU111
 491 004c 2900     		movs	r1, r5
 492 004e 2000     		movs	r0, r4
 493 0050 FFF7FEFF 		bl	USBD_StdItfReq
 494              	.LVL39:
 279:Middlewares/ST/STM32_USB_Device_Library/Core/Src/usbd_core.c **** 
 495              		.loc 1 279 7 view .LVU112
 496 0054 F8E7     		b	.L22
 497              	.L20:
 282:Middlewares/ST/STM32_USB_Device_Library/Core/Src/usbd_core.c ****       break;
 498              		.loc 1 282 7 view .LVU113
 499 0056 2900     		movs	r1, r5
 500 0058 2000     		movs	r0, r4
 501 005a FFF7FEFF 		bl	USBD_StdEPReq
 502              	.LVL40:
 283:Middlewares/ST/STM32_USB_Device_Library/Core/Src/usbd_core.c **** 
 503              		.loc 1 283 7 view .LVU114
 504 005e F3E7     		b	.L22
 505              	.L25:
 506              		.align	2
 507              	.L24:
 508 0060 AE020000 		.word	686
 509              		.cfi_endproc
 510              	.LFE51:
 512              		.section	.text.USBD_LL_DataOutStage,"ax",%progbits
ARM GAS  /tmp/cczhRNl8.s 			page 15


 513              		.align	1
 514              		.global	USBD_LL_DataOutStage
 515              		.syntax unified
 516              		.code	16
 517              		.thumb_func
 518              		.fpu softvfp
 520              	USBD_LL_DataOutStage:
 521              	.LVL41:
 522              	.LFB52:
 292:Middlewares/ST/STM32_USB_Device_Library/Core/Src/usbd_core.c **** 
 293:Middlewares/ST/STM32_USB_Device_Library/Core/Src/usbd_core.c **** /**
 294:Middlewares/ST/STM32_USB_Device_Library/Core/Src/usbd_core.c **** * @brief  USBD_DataOutStage
 295:Middlewares/ST/STM32_USB_Device_Library/Core/Src/usbd_core.c **** *         Handle data OUT stage
 296:Middlewares/ST/STM32_USB_Device_Library/Core/Src/usbd_core.c **** * @param  pdev: device instance
 297:Middlewares/ST/STM32_USB_Device_Library/Core/Src/usbd_core.c **** * @param  epnum: endpoint index
 298:Middlewares/ST/STM32_USB_Device_Library/Core/Src/usbd_core.c **** * @retval status
 299:Middlewares/ST/STM32_USB_Device_Library/Core/Src/usbd_core.c **** */
 300:Middlewares/ST/STM32_USB_Device_Library/Core/Src/usbd_core.c **** USBD_StatusTypeDef USBD_LL_DataOutStage(USBD_HandleTypeDef *pdev,
 301:Middlewares/ST/STM32_USB_Device_Library/Core/Src/usbd_core.c ****                                         uint8_t epnum, uint8_t *pdata)
 302:Middlewares/ST/STM32_USB_Device_Library/Core/Src/usbd_core.c **** {
 523              		.loc 1 302 1 view -0
 524              		.cfi_startproc
 525              		@ args = 0, pretend = 0, frame = 0
 526              		@ frame_needed = 0, uses_anonymous_args = 0
 527              		.loc 1 302 1 is_stmt 0 view .LVU116
 528 0000 70B5     		push	{r4, r5, r6, lr}
 529              	.LCFI7:
 530              		.cfi_def_cfa_offset 16
 531              		.cfi_offset 4, -16
 532              		.cfi_offset 5, -12
 533              		.cfi_offset 6, -8
 534              		.cfi_offset 14, -4
 535 0002 0500     		movs	r5, r0
 536 0004 0C00     		movs	r4, r1
 537 0006 1100     		movs	r1, r2
 538              	.LVL42:
 303:Middlewares/ST/STM32_USB_Device_Library/Core/Src/usbd_core.c ****   USBD_EndpointTypeDef *pep;
 539              		.loc 1 303 3 is_stmt 1 view .LVU117
 304:Middlewares/ST/STM32_USB_Device_Library/Core/Src/usbd_core.c **** 
 305:Middlewares/ST/STM32_USB_Device_Library/Core/Src/usbd_core.c ****   if (epnum == 0U)
 540              		.loc 1 305 3 view .LVU118
 541              		.loc 1 305 6 is_stmt 0 view .LVU119
 542 0008 002C     		cmp	r4, #0
 543 000a 38D1     		bne	.L27
 306:Middlewares/ST/STM32_USB_Device_Library/Core/Src/usbd_core.c ****   {
 307:Middlewares/ST/STM32_USB_Device_Library/Core/Src/usbd_core.c ****     pep = &pdev->ep_out[0];
 544              		.loc 1 307 5 is_stmt 1 view .LVU120
 545              	.LVL43:
 308:Middlewares/ST/STM32_USB_Device_Library/Core/Src/usbd_core.c **** 
 309:Middlewares/ST/STM32_USB_Device_Library/Core/Src/usbd_core.c ****     if (pdev->ep0_state == USBD_EP0_DATA_OUT)
 546              		.loc 1 309 5 view .LVU121
 547              		.loc 1 309 13 is_stmt 0 view .LVU122
 548 000c A523     		movs	r3, #165
 549 000e 9B00     		lsls	r3, r3, #2
 550 0010 C358     		ldr	r3, [r0, r3]
 551              		.loc 1 309 8 view .LVU123
 552 0012 032B     		cmp	r3, #3
ARM GAS  /tmp/cczhRNl8.s 			page 16


 553 0014 03D0     		beq	.L37
 310:Middlewares/ST/STM32_USB_Device_Library/Core/Src/usbd_core.c ****     {
 311:Middlewares/ST/STM32_USB_Device_Library/Core/Src/usbd_core.c ****       if (pep->rem_length > pep->maxpacket)
 312:Middlewares/ST/STM32_USB_Device_Library/Core/Src/usbd_core.c ****       {
 313:Middlewares/ST/STM32_USB_Device_Library/Core/Src/usbd_core.c ****         pep->rem_length -= pep->maxpacket;
 314:Middlewares/ST/STM32_USB_Device_Library/Core/Src/usbd_core.c **** 
 315:Middlewares/ST/STM32_USB_Device_Library/Core/Src/usbd_core.c ****         USBD_CtlContinueRx(pdev, pdata,
 316:Middlewares/ST/STM32_USB_Device_Library/Core/Src/usbd_core.c ****                            (uint16_t)MIN(pep->rem_length, pep->maxpacket));
 317:Middlewares/ST/STM32_USB_Device_Library/Core/Src/usbd_core.c ****       }
 318:Middlewares/ST/STM32_USB_Device_Library/Core/Src/usbd_core.c ****       else
 319:Middlewares/ST/STM32_USB_Device_Library/Core/Src/usbd_core.c ****       {
 320:Middlewares/ST/STM32_USB_Device_Library/Core/Src/usbd_core.c ****         if ((pdev->pClass->EP0_RxReady != NULL) &&
 321:Middlewares/ST/STM32_USB_Device_Library/Core/Src/usbd_core.c ****             (pdev->dev_state == USBD_STATE_CONFIGURED))
 322:Middlewares/ST/STM32_USB_Device_Library/Core/Src/usbd_core.c ****         {
 323:Middlewares/ST/STM32_USB_Device_Library/Core/Src/usbd_core.c ****           pdev->pClass->EP0_RxReady(pdev);
 324:Middlewares/ST/STM32_USB_Device_Library/Core/Src/usbd_core.c ****         }
 325:Middlewares/ST/STM32_USB_Device_Library/Core/Src/usbd_core.c ****         USBD_CtlSendStatus(pdev);
 326:Middlewares/ST/STM32_USB_Device_Library/Core/Src/usbd_core.c ****       }
 327:Middlewares/ST/STM32_USB_Device_Library/Core/Src/usbd_core.c ****     }
 328:Middlewares/ST/STM32_USB_Device_Library/Core/Src/usbd_core.c ****     else
 329:Middlewares/ST/STM32_USB_Device_Library/Core/Src/usbd_core.c ****     {
 330:Middlewares/ST/STM32_USB_Device_Library/Core/Src/usbd_core.c ****       if (pdev->ep0_state == USBD_EP0_STATUS_OUT)
 554              		.loc 1 330 7 is_stmt 1 view .LVU124
 555              		.loc 1 330 10 is_stmt 0 view .LVU125
 556 0016 052B     		cmp	r3, #5
 557 0018 28D0     		beq	.L38
 331:Middlewares/ST/STM32_USB_Device_Library/Core/Src/usbd_core.c ****       {
 332:Middlewares/ST/STM32_USB_Device_Library/Core/Src/usbd_core.c ****         /*
 333:Middlewares/ST/STM32_USB_Device_Library/Core/Src/usbd_core.c ****          * STATUS PHASE completed, update ep0_state to idle
 334:Middlewares/ST/STM32_USB_Device_Library/Core/Src/usbd_core.c ****          */
 335:Middlewares/ST/STM32_USB_Device_Library/Core/Src/usbd_core.c ****         pdev->ep0_state = USBD_EP0_IDLE;
 336:Middlewares/ST/STM32_USB_Device_Library/Core/Src/usbd_core.c ****         USBD_LL_StallEP(pdev, 0U);
 337:Middlewares/ST/STM32_USB_Device_Library/Core/Src/usbd_core.c ****       }
 338:Middlewares/ST/STM32_USB_Device_Library/Core/Src/usbd_core.c ****     }
 339:Middlewares/ST/STM32_USB_Device_Library/Core/Src/usbd_core.c ****   }
 340:Middlewares/ST/STM32_USB_Device_Library/Core/Src/usbd_core.c ****   else if ((pdev->pClass->DataOut != NULL) &&
 341:Middlewares/ST/STM32_USB_Device_Library/Core/Src/usbd_core.c ****            (pdev->dev_state == USBD_STATE_CONFIGURED))
 342:Middlewares/ST/STM32_USB_Device_Library/Core/Src/usbd_core.c ****   {
 343:Middlewares/ST/STM32_USB_Device_Library/Core/Src/usbd_core.c ****     pdev->pClass->DataOut(pdev, epnum);
 344:Middlewares/ST/STM32_USB_Device_Library/Core/Src/usbd_core.c ****   }
 345:Middlewares/ST/STM32_USB_Device_Library/Core/Src/usbd_core.c ****   else
 346:Middlewares/ST/STM32_USB_Device_Library/Core/Src/usbd_core.c ****   {
 347:Middlewares/ST/STM32_USB_Device_Library/Core/Src/usbd_core.c ****     /* should never be in this condition */
 348:Middlewares/ST/STM32_USB_Device_Library/Core/Src/usbd_core.c ****     return USBD_FAIL;
 349:Middlewares/ST/STM32_USB_Device_Library/Core/Src/usbd_core.c ****   }
 350:Middlewares/ST/STM32_USB_Device_Library/Core/Src/usbd_core.c **** 
 351:Middlewares/ST/STM32_USB_Device_Library/Core/Src/usbd_core.c ****   return USBD_OK;
 558              		.loc 1 351 10 view .LVU126
 559 001a 2000     		movs	r0, r4
 560              	.LVL44:
 561              		.loc 1 351 10 view .LVU127
 562 001c 3DE0     		b	.L32
 563              	.LVL45:
 564              	.L37:
 311:Middlewares/ST/STM32_USB_Device_Library/Core/Src/usbd_core.c ****       {
 565              		.loc 1 311 7 is_stmt 1 view .LVU128
 311:Middlewares/ST/STM32_USB_Device_Library/Core/Src/usbd_core.c ****       {
ARM GAS  /tmp/cczhRNl8.s 			page 17


 566              		.loc 1 311 14 is_stmt 0 view .LVU129
 567 001e 0200     		movs	r2, r0
 568              	.LVL46:
 311:Middlewares/ST/STM32_USB_Device_Library/Core/Src/usbd_core.c ****       {
 569              		.loc 1 311 14 view .LVU130
 570 0020 5532     		adds	r2, r2, #85
 571 0022 FF32     		adds	r2, r2, #255
 572 0024 D368     		ldr	r3, [r2, #12]
 311:Middlewares/ST/STM32_USB_Device_Library/Core/Src/usbd_core.c ****       {
 573              		.loc 1 311 32 view .LVU131
 574 0026 1269     		ldr	r2, [r2, #16]
 311:Middlewares/ST/STM32_USB_Device_Library/Core/Src/usbd_core.c ****       {
 575              		.loc 1 311 10 view .LVU132
 576 0028 9342     		cmp	r3, r2
 577 002a 0DD9     		bls	.L29
 313:Middlewares/ST/STM32_USB_Device_Library/Core/Src/usbd_core.c **** 
 578              		.loc 1 313 9 is_stmt 1 view .LVU133
 313:Middlewares/ST/STM32_USB_Device_Library/Core/Src/usbd_core.c **** 
 579              		.loc 1 313 25 is_stmt 0 view .LVU134
 580 002c 9B1A     		subs	r3, r3, r2
 581 002e 5530     		adds	r0, r0, #85
 582              	.LVL47:
 313:Middlewares/ST/STM32_USB_Device_Library/Core/Src/usbd_core.c **** 
 583              		.loc 1 313 25 view .LVU135
 584 0030 FF30     		adds	r0, r0, #255
 585 0032 C360     		str	r3, [r0, #12]
 315:Middlewares/ST/STM32_USB_Device_Library/Core/Src/usbd_core.c ****                            (uint16_t)MIN(pep->rem_length, pep->maxpacket));
 586              		.loc 1 315 9 is_stmt 1 view .LVU136
 587 0034 9A42     		cmp	r2, r3
 588 0036 05D9     		bls	.L30
 315:Middlewares/ST/STM32_USB_Device_Library/Core/Src/usbd_core.c ****                            (uint16_t)MIN(pep->rem_length, pep->maxpacket));
 589              		.loc 1 315 9 is_stmt 0 discriminator 1 view .LVU137
 590 0038 9AB2     		uxth	r2, r3
 591              	.L31:
 315:Middlewares/ST/STM32_USB_Device_Library/Core/Src/usbd_core.c ****                            (uint16_t)MIN(pep->rem_length, pep->maxpacket));
 592              		.loc 1 315 9 discriminator 4 view .LVU138
 593 003a 2800     		movs	r0, r5
 594 003c FFF7FEFF 		bl	USBD_CtlContinueRx
 595              	.LVL48:
 596              		.loc 1 351 10 discriminator 4 view .LVU139
 597 0040 2000     		movs	r0, r4
 598 0042 2AE0     		b	.L32
 599              	.LVL49:
 600              	.L30:
 315:Middlewares/ST/STM32_USB_Device_Library/Core/Src/usbd_core.c ****                            (uint16_t)MIN(pep->rem_length, pep->maxpacket));
 601              		.loc 1 315 9 discriminator 2 view .LVU140
 602 0044 92B2     		uxth	r2, r2
 603 0046 F8E7     		b	.L31
 604              	.LVL50:
 605              	.L29:
 320:Middlewares/ST/STM32_USB_Device_Library/Core/Src/usbd_core.c ****             (pdev->dev_state == USBD_STATE_CONFIGURED))
 606              		.loc 1 320 9 is_stmt 1 view .LVU141
 320:Middlewares/ST/STM32_USB_Device_Library/Core/Src/usbd_core.c ****             (pdev->dev_state == USBD_STATE_CONFIGURED))
 607              		.loc 1 320 18 is_stmt 0 view .LVU142
 608 0048 AD23     		movs	r3, #173
 609 004a 9B00     		lsls	r3, r3, #2
 610 004c C358     		ldr	r3, [r0, r3]
ARM GAS  /tmp/cczhRNl8.s 			page 18


 320:Middlewares/ST/STM32_USB_Device_Library/Core/Src/usbd_core.c ****             (pdev->dev_state == USBD_STATE_CONFIGURED))
 611              		.loc 1 320 26 view .LVU143
 612 004e 1B69     		ldr	r3, [r3, #16]
 320:Middlewares/ST/STM32_USB_Device_Library/Core/Src/usbd_core.c ****             (pdev->dev_state == USBD_STATE_CONFIGURED))
 613              		.loc 1 320 12 view .LVU144
 614 0050 002B     		cmp	r3, #0
 615 0052 04D0     		beq	.L33
 321:Middlewares/ST/STM32_USB_Device_Library/Core/Src/usbd_core.c ****         {
 616              		.loc 1 321 18 discriminator 1 view .LVU145
 617 0054 A722     		movs	r2, #167
 618 0056 9200     		lsls	r2, r2, #2
 619 0058 825C     		ldrb	r2, [r0, r2]
 320:Middlewares/ST/STM32_USB_Device_Library/Core/Src/usbd_core.c ****             (pdev->dev_state == USBD_STATE_CONFIGURED))
 620              		.loc 1 320 49 discriminator 1 view .LVU146
 621 005a 032A     		cmp	r2, #3
 622 005c 04D0     		beq	.L39
 623              	.LVL51:
 624              	.L33:
 325:Middlewares/ST/STM32_USB_Device_Library/Core/Src/usbd_core.c ****       }
 625              		.loc 1 325 9 is_stmt 1 view .LVU147
 626 005e 2800     		movs	r0, r5
 627 0060 FFF7FEFF 		bl	USBD_CtlSendStatus
 628              	.LVL52:
 629              		.loc 1 351 10 is_stmt 0 view .LVU148
 630 0064 2000     		movs	r0, r4
 631 0066 18E0     		b	.L32
 632              	.LVL53:
 633              	.L39:
 323:Middlewares/ST/STM32_USB_Device_Library/Core/Src/usbd_core.c ****         }
 634              		.loc 1 323 11 is_stmt 1 view .LVU149
 635 0068 9847     		blx	r3
 636              	.LVL54:
 323:Middlewares/ST/STM32_USB_Device_Library/Core/Src/usbd_core.c ****         }
 637              		.loc 1 323 11 is_stmt 0 view .LVU150
 638 006a F8E7     		b	.L33
 639              	.LVL55:
 640              	.L38:
 335:Middlewares/ST/STM32_USB_Device_Library/Core/Src/usbd_core.c ****         USBD_LL_StallEP(pdev, 0U);
 641              		.loc 1 335 9 is_stmt 1 view .LVU151
 335:Middlewares/ST/STM32_USB_Device_Library/Core/Src/usbd_core.c ****         USBD_LL_StallEP(pdev, 0U);
 642              		.loc 1 335 25 is_stmt 0 view .LVU152
 643 006c A523     		movs	r3, #165
 644 006e 9B00     		lsls	r3, r3, #2
 645 0070 0022     		movs	r2, #0
 646 0072 C250     		str	r2, [r0, r3]
 336:Middlewares/ST/STM32_USB_Device_Library/Core/Src/usbd_core.c ****       }
 647              		.loc 1 336 9 is_stmt 1 view .LVU153
 648 0074 0021     		movs	r1, #0
 649              	.LVL56:
 336:Middlewares/ST/STM32_USB_Device_Library/Core/Src/usbd_core.c ****       }
 650              		.loc 1 336 9 is_stmt 0 view .LVU154
 651 0076 FFF7FEFF 		bl	USBD_LL_StallEP
 652              	.LVL57:
 653              		.loc 1 351 10 view .LVU155
 654 007a 2000     		movs	r0, r4
 655 007c 0DE0     		b	.L32
 656              	.LVL58:
ARM GAS  /tmp/cczhRNl8.s 			page 19


 657              	.L27:
 340:Middlewares/ST/STM32_USB_Device_Library/Core/Src/usbd_core.c ****            (pdev->dev_state == USBD_STATE_CONFIGURED))
 658              		.loc 1 340 8 is_stmt 1 view .LVU156
 340:Middlewares/ST/STM32_USB_Device_Library/Core/Src/usbd_core.c ****            (pdev->dev_state == USBD_STATE_CONFIGURED))
 659              		.loc 1 340 17 is_stmt 0 view .LVU157
 660 007e AD23     		movs	r3, #173
 661 0080 9B00     		lsls	r3, r3, #2
 662 0082 C358     		ldr	r3, [r0, r3]
 340:Middlewares/ST/STM32_USB_Device_Library/Core/Src/usbd_core.c ****            (pdev->dev_state == USBD_STATE_CONFIGURED))
 663              		.loc 1 340 25 view .LVU158
 664 0084 9B69     		ldr	r3, [r3, #24]
 340:Middlewares/ST/STM32_USB_Device_Library/Core/Src/usbd_core.c ****            (pdev->dev_state == USBD_STATE_CONFIGURED))
 665              		.loc 1 340 11 view .LVU159
 666 0086 002B     		cmp	r3, #0
 667 0088 08D0     		beq	.L35
 341:Middlewares/ST/STM32_USB_Device_Library/Core/Src/usbd_core.c ****   {
 668              		.loc 1 341 17 discriminator 1 view .LVU160
 669 008a A722     		movs	r2, #167
 670 008c 9200     		lsls	r2, r2, #2
 671 008e 825C     		ldrb	r2, [r0, r2]
 340:Middlewares/ST/STM32_USB_Device_Library/Core/Src/usbd_core.c ****            (pdev->dev_state == USBD_STATE_CONFIGURED))
 672              		.loc 1 340 44 discriminator 1 view .LVU161
 673 0090 032A     		cmp	r2, #3
 674 0092 05D1     		bne	.L36
 343:Middlewares/ST/STM32_USB_Device_Library/Core/Src/usbd_core.c ****   }
 675              		.loc 1 343 5 is_stmt 1 view .LVU162
 676 0094 2100     		movs	r1, r4
 677              	.LVL59:
 343:Middlewares/ST/STM32_USB_Device_Library/Core/Src/usbd_core.c ****   }
 678              		.loc 1 343 5 is_stmt 0 view .LVU163
 679 0096 9847     		blx	r3
 680              	.LVL60:
 681              		.loc 1 351 10 view .LVU164
 682 0098 0020     		movs	r0, #0
 683              	.L32:
 352:Middlewares/ST/STM32_USB_Device_Library/Core/Src/usbd_core.c **** }
 684              		.loc 1 352 1 view .LVU165
 685              		@ sp needed
 686              	.LVL61:
 687              		.loc 1 352 1 view .LVU166
 688 009a 70BD     		pop	{r4, r5, r6, pc}
 689              	.LVL62:
 690              	.L35:
 348:Middlewares/ST/STM32_USB_Device_Library/Core/Src/usbd_core.c ****   }
 691              		.loc 1 348 12 view .LVU167
 692 009c 0220     		movs	r0, #2
 693              	.LVL63:
 348:Middlewares/ST/STM32_USB_Device_Library/Core/Src/usbd_core.c ****   }
 694              		.loc 1 348 12 view .LVU168
 695 009e FCE7     		b	.L32
 696              	.LVL64:
 697              	.L36:
 348:Middlewares/ST/STM32_USB_Device_Library/Core/Src/usbd_core.c ****   }
 698              		.loc 1 348 12 view .LVU169
 699 00a0 0220     		movs	r0, #2
 700              	.LVL65:
 348:Middlewares/ST/STM32_USB_Device_Library/Core/Src/usbd_core.c ****   }
ARM GAS  /tmp/cczhRNl8.s 			page 20


 701              		.loc 1 348 12 view .LVU170
 702 00a2 FAE7     		b	.L32
 703              		.cfi_endproc
 704              	.LFE52:
 706              		.global	__aeabi_uidivmod
 707              		.section	.text.USBD_LL_DataInStage,"ax",%progbits
 708              		.align	1
 709              		.global	USBD_LL_DataInStage
 710              		.syntax unified
 711              		.code	16
 712              		.thumb_func
 713              		.fpu softvfp
 715              	USBD_LL_DataInStage:
 716              	.LVL66:
 717              	.LFB53:
 353:Middlewares/ST/STM32_USB_Device_Library/Core/Src/usbd_core.c **** 
 354:Middlewares/ST/STM32_USB_Device_Library/Core/Src/usbd_core.c **** /**
 355:Middlewares/ST/STM32_USB_Device_Library/Core/Src/usbd_core.c **** * @brief  USBD_DataInStage
 356:Middlewares/ST/STM32_USB_Device_Library/Core/Src/usbd_core.c **** *         Handle data in stage
 357:Middlewares/ST/STM32_USB_Device_Library/Core/Src/usbd_core.c **** * @param  pdev: device instance
 358:Middlewares/ST/STM32_USB_Device_Library/Core/Src/usbd_core.c **** * @param  epnum: endpoint index
 359:Middlewares/ST/STM32_USB_Device_Library/Core/Src/usbd_core.c **** * @retval status
 360:Middlewares/ST/STM32_USB_Device_Library/Core/Src/usbd_core.c **** */
 361:Middlewares/ST/STM32_USB_Device_Library/Core/Src/usbd_core.c **** USBD_StatusTypeDef USBD_LL_DataInStage(USBD_HandleTypeDef *pdev,
 362:Middlewares/ST/STM32_USB_Device_Library/Core/Src/usbd_core.c ****                                        uint8_t epnum, uint8_t *pdata)
 363:Middlewares/ST/STM32_USB_Device_Library/Core/Src/usbd_core.c **** {
 718              		.loc 1 363 1 is_stmt 1 view -0
 719              		.cfi_startproc
 720              		@ args = 0, pretend = 0, frame = 0
 721              		@ frame_needed = 0, uses_anonymous_args = 0
 722              		.loc 1 363 1 is_stmt 0 view .LVU172
 723 0000 F8B5     		push	{r3, r4, r5, r6, r7, lr}
 724              	.LCFI8:
 725              		.cfi_def_cfa_offset 24
 726              		.cfi_offset 3, -24
 727              		.cfi_offset 4, -20
 728              		.cfi_offset 5, -16
 729              		.cfi_offset 6, -12
 730              		.cfi_offset 7, -8
 731              		.cfi_offset 14, -4
 732 0002 0500     		movs	r5, r0
 733 0004 0C00     		movs	r4, r1
 734 0006 1100     		movs	r1, r2
 735              	.LVL67:
 364:Middlewares/ST/STM32_USB_Device_Library/Core/Src/usbd_core.c ****   USBD_EndpointTypeDef *pep;
 736              		.loc 1 364 3 is_stmt 1 view .LVU173
 365:Middlewares/ST/STM32_USB_Device_Library/Core/Src/usbd_core.c **** 
 366:Middlewares/ST/STM32_USB_Device_Library/Core/Src/usbd_core.c ****   if (epnum == 0U)
 737              		.loc 1 366 3 view .LVU174
 738              		.loc 1 366 6 is_stmt 0 view .LVU175
 739 0008 002C     		cmp	r4, #0
 740 000a 5BD1     		bne	.L41
 367:Middlewares/ST/STM32_USB_Device_Library/Core/Src/usbd_core.c ****   {
 368:Middlewares/ST/STM32_USB_Device_Library/Core/Src/usbd_core.c ****     pep = &pdev->ep_in[0];
 741              		.loc 1 368 5 is_stmt 1 view .LVU176
 742              	.LVL68:
 369:Middlewares/ST/STM32_USB_Device_Library/Core/Src/usbd_core.c **** 
ARM GAS  /tmp/cczhRNl8.s 			page 21


 370:Middlewares/ST/STM32_USB_Device_Library/Core/Src/usbd_core.c ****     if (pdev->ep0_state == USBD_EP0_DATA_IN)
 743              		.loc 1 370 5 view .LVU177
 744              		.loc 1 370 13 is_stmt 0 view .LVU178
 745 000c A523     		movs	r3, #165
 746 000e 9B00     		lsls	r3, r3, #2
 747 0010 C358     		ldr	r3, [r0, r3]
 748              		.loc 1 370 8 view .LVU179
 749 0012 022B     		cmp	r3, #2
 750 0014 0ED0     		beq	.L52
 371:Middlewares/ST/STM32_USB_Device_Library/Core/Src/usbd_core.c ****     {
 372:Middlewares/ST/STM32_USB_Device_Library/Core/Src/usbd_core.c ****       if (pep->rem_length > pep->maxpacket)
 373:Middlewares/ST/STM32_USB_Device_Library/Core/Src/usbd_core.c ****       {
 374:Middlewares/ST/STM32_USB_Device_Library/Core/Src/usbd_core.c ****         pep->rem_length -= pep->maxpacket;
 375:Middlewares/ST/STM32_USB_Device_Library/Core/Src/usbd_core.c **** 
 376:Middlewares/ST/STM32_USB_Device_Library/Core/Src/usbd_core.c ****         USBD_CtlContinueSendData(pdev, pdata, (uint16_t)pep->rem_length);
 377:Middlewares/ST/STM32_USB_Device_Library/Core/Src/usbd_core.c **** 
 378:Middlewares/ST/STM32_USB_Device_Library/Core/Src/usbd_core.c ****         /* Prepare endpoint for premature end of transfer */
 379:Middlewares/ST/STM32_USB_Device_Library/Core/Src/usbd_core.c ****         USBD_LL_PrepareReceive(pdev, 0U, NULL, 0U);
 380:Middlewares/ST/STM32_USB_Device_Library/Core/Src/usbd_core.c ****       }
 381:Middlewares/ST/STM32_USB_Device_Library/Core/Src/usbd_core.c ****       else
 382:Middlewares/ST/STM32_USB_Device_Library/Core/Src/usbd_core.c ****       {
 383:Middlewares/ST/STM32_USB_Device_Library/Core/Src/usbd_core.c ****         /* last packet is MPS multiple, so send ZLP packet */
 384:Middlewares/ST/STM32_USB_Device_Library/Core/Src/usbd_core.c ****         if ((pep->total_length % pep->maxpacket == 0U) &&
 385:Middlewares/ST/STM32_USB_Device_Library/Core/Src/usbd_core.c ****             (pep->total_length >= pep->maxpacket) &&
 386:Middlewares/ST/STM32_USB_Device_Library/Core/Src/usbd_core.c ****             (pep->total_length < pdev->ep0_data_len))
 387:Middlewares/ST/STM32_USB_Device_Library/Core/Src/usbd_core.c ****         {
 388:Middlewares/ST/STM32_USB_Device_Library/Core/Src/usbd_core.c ****           USBD_CtlContinueSendData(pdev, NULL, 0U);
 389:Middlewares/ST/STM32_USB_Device_Library/Core/Src/usbd_core.c ****           pdev->ep0_data_len = 0U;
 390:Middlewares/ST/STM32_USB_Device_Library/Core/Src/usbd_core.c **** 
 391:Middlewares/ST/STM32_USB_Device_Library/Core/Src/usbd_core.c ****           /* Prepare endpoint for premature end of transfer */
 392:Middlewares/ST/STM32_USB_Device_Library/Core/Src/usbd_core.c ****           USBD_LL_PrepareReceive(pdev, 0U, NULL, 0U);
 393:Middlewares/ST/STM32_USB_Device_Library/Core/Src/usbd_core.c ****         }
 394:Middlewares/ST/STM32_USB_Device_Library/Core/Src/usbd_core.c ****         else
 395:Middlewares/ST/STM32_USB_Device_Library/Core/Src/usbd_core.c ****         {
 396:Middlewares/ST/STM32_USB_Device_Library/Core/Src/usbd_core.c ****           if ((pdev->pClass->EP0_TxSent != NULL) &&
 397:Middlewares/ST/STM32_USB_Device_Library/Core/Src/usbd_core.c ****               (pdev->dev_state == USBD_STATE_CONFIGURED))
 398:Middlewares/ST/STM32_USB_Device_Library/Core/Src/usbd_core.c ****           {
 399:Middlewares/ST/STM32_USB_Device_Library/Core/Src/usbd_core.c ****             pdev->pClass->EP0_TxSent(pdev);
 400:Middlewares/ST/STM32_USB_Device_Library/Core/Src/usbd_core.c ****           }
 401:Middlewares/ST/STM32_USB_Device_Library/Core/Src/usbd_core.c ****           USBD_LL_StallEP(pdev, 0x80U);
 402:Middlewares/ST/STM32_USB_Device_Library/Core/Src/usbd_core.c ****           USBD_CtlReceiveStatus(pdev);
 403:Middlewares/ST/STM32_USB_Device_Library/Core/Src/usbd_core.c ****         }
 404:Middlewares/ST/STM32_USB_Device_Library/Core/Src/usbd_core.c ****       }
 405:Middlewares/ST/STM32_USB_Device_Library/Core/Src/usbd_core.c ****     }
 406:Middlewares/ST/STM32_USB_Device_Library/Core/Src/usbd_core.c ****     else
 407:Middlewares/ST/STM32_USB_Device_Library/Core/Src/usbd_core.c ****     {
 408:Middlewares/ST/STM32_USB_Device_Library/Core/Src/usbd_core.c ****       if ((pdev->ep0_state == USBD_EP0_STATUS_IN) ||
 751              		.loc 1 408 7 is_stmt 1 view .LVU180
 752              		.loc 1 408 10 is_stmt 0 view .LVU181
 753 0016 042B     		cmp	r3, #4
 754 0018 01D0     		beq	.L47
 755              		.loc 1 408 51 discriminator 1 view .LVU182
 756 001a 002B     		cmp	r3, #0
 757 001c 03D1     		bne	.L44
 758              	.L47:
 409:Middlewares/ST/STM32_USB_Device_Library/Core/Src/usbd_core.c ****           (pdev->ep0_state == USBD_EP0_IDLE))
 410:Middlewares/ST/STM32_USB_Device_Library/Core/Src/usbd_core.c ****       {
ARM GAS  /tmp/cczhRNl8.s 			page 22


 411:Middlewares/ST/STM32_USB_Device_Library/Core/Src/usbd_core.c ****         USBD_LL_StallEP(pdev, 0x80U);
 759              		.loc 1 411 9 is_stmt 1 view .LVU183
 760 001e 8021     		movs	r1, #128
 761 0020 2800     		movs	r0, r5
 762              	.LVL69:
 763              		.loc 1 411 9 is_stmt 0 view .LVU184
 764 0022 FFF7FEFF 		bl	USBD_LL_StallEP
 765              	.LVL70:
 766              	.L44:
 412:Middlewares/ST/STM32_USB_Device_Library/Core/Src/usbd_core.c ****       }
 413:Middlewares/ST/STM32_USB_Device_Library/Core/Src/usbd_core.c ****     }
 414:Middlewares/ST/STM32_USB_Device_Library/Core/Src/usbd_core.c **** 
 415:Middlewares/ST/STM32_USB_Device_Library/Core/Src/usbd_core.c ****     if (pdev->dev_test_mode == 1U)
 767              		.loc 1 415 5 is_stmt 1 view .LVU185
 768              		.loc 1 415 13 is_stmt 0 view .LVU186
 769 0026 A823     		movs	r3, #168
 770 0028 9B00     		lsls	r3, r3, #2
 771 002a EB5C     		ldrb	r3, [r5, r3]
 772              		.loc 1 415 8 view .LVU187
 773 002c 012B     		cmp	r3, #1
 774 002e 43D0     		beq	.L53
 416:Middlewares/ST/STM32_USB_Device_Library/Core/Src/usbd_core.c ****     {
 417:Middlewares/ST/STM32_USB_Device_Library/Core/Src/usbd_core.c ****       USBD_RunTestMode(pdev);
 418:Middlewares/ST/STM32_USB_Device_Library/Core/Src/usbd_core.c ****       pdev->dev_test_mode = 0U;
 419:Middlewares/ST/STM32_USB_Device_Library/Core/Src/usbd_core.c ****     }
 420:Middlewares/ST/STM32_USB_Device_Library/Core/Src/usbd_core.c ****   }
 421:Middlewares/ST/STM32_USB_Device_Library/Core/Src/usbd_core.c ****   else if ((pdev->pClass->DataIn != NULL) &&
 422:Middlewares/ST/STM32_USB_Device_Library/Core/Src/usbd_core.c ****            (pdev->dev_state == USBD_STATE_CONFIGURED))
 423:Middlewares/ST/STM32_USB_Device_Library/Core/Src/usbd_core.c ****   {
 424:Middlewares/ST/STM32_USB_Device_Library/Core/Src/usbd_core.c ****     pdev->pClass->DataIn(pdev, epnum);
 425:Middlewares/ST/STM32_USB_Device_Library/Core/Src/usbd_core.c ****   }
 426:Middlewares/ST/STM32_USB_Device_Library/Core/Src/usbd_core.c ****   else
 427:Middlewares/ST/STM32_USB_Device_Library/Core/Src/usbd_core.c ****   {
 428:Middlewares/ST/STM32_USB_Device_Library/Core/Src/usbd_core.c ****     /* should never be in this condition */
 429:Middlewares/ST/STM32_USB_Device_Library/Core/Src/usbd_core.c ****     return USBD_FAIL;
 430:Middlewares/ST/STM32_USB_Device_Library/Core/Src/usbd_core.c ****   }
 431:Middlewares/ST/STM32_USB_Device_Library/Core/Src/usbd_core.c **** 
 432:Middlewares/ST/STM32_USB_Device_Library/Core/Src/usbd_core.c ****   return USBD_OK;
 775              		.loc 1 432 10 view .LVU188
 776 0030 2000     		movs	r0, r4
 777              	.LVL71:
 778              	.L48:
 433:Middlewares/ST/STM32_USB_Device_Library/Core/Src/usbd_core.c **** }
 779              		.loc 1 433 1 view .LVU189
 780              		@ sp needed
 781              	.LVL72:
 782              		.loc 1 433 1 view .LVU190
 783 0032 F8BD     		pop	{r3, r4, r5, r6, r7, pc}
 784              	.LVL73:
 785              	.L52:
 372:Middlewares/ST/STM32_USB_Device_Library/Core/Src/usbd_core.c ****       {
 786              		.loc 1 372 7 is_stmt 1 view .LVU191
 372:Middlewares/ST/STM32_USB_Device_Library/Core/Src/usbd_core.c ****       {
 787              		.loc 1 372 14 is_stmt 0 view .LVU192
 788 0034 026A     		ldr	r2, [r0, #32]
 372:Middlewares/ST/STM32_USB_Device_Library/Core/Src/usbd_core.c ****       {
 789              		.loc 1 372 32 view .LVU193
ARM GAS  /tmp/cczhRNl8.s 			page 23


 790 0036 466A     		ldr	r6, [r0, #36]
 372:Middlewares/ST/STM32_USB_Device_Library/Core/Src/usbd_core.c ****       {
 791              		.loc 1 372 10 view .LVU194
 792 0038 B242     		cmp	r2, r6
 793 003a 20D8     		bhi	.L54
 384:Middlewares/ST/STM32_USB_Device_Library/Core/Src/usbd_core.c ****             (pep->total_length >= pep->maxpacket) &&
 794              		.loc 1 384 9 is_stmt 1 view .LVU195
 384:Middlewares/ST/STM32_USB_Device_Library/Core/Src/usbd_core.c ****             (pep->total_length >= pep->maxpacket) &&
 795              		.loc 1 384 17 is_stmt 0 view .LVU196
 796 003c C769     		ldr	r7, [r0, #28]
 384:Middlewares/ST/STM32_USB_Device_Library/Core/Src/usbd_core.c ****             (pep->total_length >= pep->maxpacket) &&
 797              		.loc 1 384 32 view .LVU197
 798 003e 3100     		movs	r1, r6
 799              	.LVL74:
 384:Middlewares/ST/STM32_USB_Device_Library/Core/Src/usbd_core.c ****             (pep->total_length >= pep->maxpacket) &&
 800              		.loc 1 384 32 view .LVU198
 801 0040 3800     		movs	r0, r7
 802              	.LVL75:
 384:Middlewares/ST/STM32_USB_Device_Library/Core/Src/usbd_core.c ****             (pep->total_length >= pep->maxpacket) &&
 803              		.loc 1 384 32 view .LVU199
 804 0042 FFF7FEFF 		bl	__aeabi_uidivmod
 805              	.LVL76:
 384:Middlewares/ST/STM32_USB_Device_Library/Core/Src/usbd_core.c ****             (pep->total_length >= pep->maxpacket) &&
 806              		.loc 1 384 12 view .LVU200
 807 0046 0029     		cmp	r1, #0
 808 0048 06D1     		bne	.L45
 384:Middlewares/ST/STM32_USB_Device_Library/Core/Src/usbd_core.c ****             (pep->total_length >= pep->maxpacket) &&
 809              		.loc 1 384 56 discriminator 1 view .LVU201
 810 004a BE42     		cmp	r6, r7
 811 004c 04D8     		bhi	.L45
 386:Middlewares/ST/STM32_USB_Device_Library/Core/Src/usbd_core.c ****         {
 812              		.loc 1 386 38 view .LVU202
 813 004e A623     		movs	r3, #166
 814 0050 9B00     		lsls	r3, r3, #2
 815 0052 EB58     		ldr	r3, [r5, r3]
 385:Middlewares/ST/STM32_USB_Device_Library/Core/Src/usbd_core.c ****             (pep->total_length < pdev->ep0_data_len))
 816              		.loc 1 385 51 view .LVU203
 817 0054 9F42     		cmp	r7, r3
 818 0056 1ED3     		bcc	.L55
 819              	.L45:
 396:Middlewares/ST/STM32_USB_Device_Library/Core/Src/usbd_core.c ****               (pdev->dev_state == USBD_STATE_CONFIGURED))
 820              		.loc 1 396 11 is_stmt 1 view .LVU204
 396:Middlewares/ST/STM32_USB_Device_Library/Core/Src/usbd_core.c ****               (pdev->dev_state == USBD_STATE_CONFIGURED))
 821              		.loc 1 396 20 is_stmt 0 view .LVU205
 822 0058 AD23     		movs	r3, #173
 823 005a 9B00     		lsls	r3, r3, #2
 824 005c EB58     		ldr	r3, [r5, r3]
 396:Middlewares/ST/STM32_USB_Device_Library/Core/Src/usbd_core.c ****               (pdev->dev_state == USBD_STATE_CONFIGURED))
 825              		.loc 1 396 28 view .LVU206
 826 005e DB68     		ldr	r3, [r3, #12]
 396:Middlewares/ST/STM32_USB_Device_Library/Core/Src/usbd_core.c ****               (pdev->dev_state == USBD_STATE_CONFIGURED))
 827              		.loc 1 396 14 view .LVU207
 828 0060 002B     		cmp	r3, #0
 829 0062 04D0     		beq	.L46
 397:Middlewares/ST/STM32_USB_Device_Library/Core/Src/usbd_core.c ****           {
 830              		.loc 1 397 20 discriminator 1 view .LVU208
 831 0064 A722     		movs	r2, #167
ARM GAS  /tmp/cczhRNl8.s 			page 24


 832 0066 9200     		lsls	r2, r2, #2
 833 0068 AA5C     		ldrb	r2, [r5, r2]
 396:Middlewares/ST/STM32_USB_Device_Library/Core/Src/usbd_core.c ****               (pdev->dev_state == USBD_STATE_CONFIGURED))
 834              		.loc 1 396 50 discriminator 1 view .LVU209
 835 006a 032A     		cmp	r2, #3
 836 006c 21D0     		beq	.L56
 837              	.L46:
 401:Middlewares/ST/STM32_USB_Device_Library/Core/Src/usbd_core.c ****           USBD_CtlReceiveStatus(pdev);
 838              		.loc 1 401 11 is_stmt 1 view .LVU210
 839 006e 8021     		movs	r1, #128
 840 0070 2800     		movs	r0, r5
 841 0072 FFF7FEFF 		bl	USBD_LL_StallEP
 842              	.LVL77:
 402:Middlewares/ST/STM32_USB_Device_Library/Core/Src/usbd_core.c ****         }
 843              		.loc 1 402 11 view .LVU211
 844 0076 2800     		movs	r0, r5
 845 0078 FFF7FEFF 		bl	USBD_CtlReceiveStatus
 846              	.LVL78:
 847 007c D3E7     		b	.L44
 848              	.LVL79:
 849              	.L54:
 374:Middlewares/ST/STM32_USB_Device_Library/Core/Src/usbd_core.c **** 
 850              		.loc 1 374 9 view .LVU212
 374:Middlewares/ST/STM32_USB_Device_Library/Core/Src/usbd_core.c **** 
 851              		.loc 1 374 25 is_stmt 0 view .LVU213
 852 007e 921B     		subs	r2, r2, r6
 853 0080 0262     		str	r2, [r0, #32]
 376:Middlewares/ST/STM32_USB_Device_Library/Core/Src/usbd_core.c **** 
 854              		.loc 1 376 9 is_stmt 1 view .LVU214
 855 0082 92B2     		uxth	r2, r2
 856 0084 FFF7FEFF 		bl	USBD_CtlContinueSendData
 857              	.LVL80:
 379:Middlewares/ST/STM32_USB_Device_Library/Core/Src/usbd_core.c ****       }
 858              		.loc 1 379 9 view .LVU215
 859 0088 0023     		movs	r3, #0
 860 008a 0022     		movs	r2, #0
 861 008c 0021     		movs	r1, #0
 862 008e 2800     		movs	r0, r5
 863 0090 FFF7FEFF 		bl	USBD_LL_PrepareReceive
 864              	.LVL81:
 865 0094 C7E7     		b	.L44
 866              	.L55:
 388:Middlewares/ST/STM32_USB_Device_Library/Core/Src/usbd_core.c ****           pdev->ep0_data_len = 0U;
 867              		.loc 1 388 11 view .LVU216
 868 0096 0022     		movs	r2, #0
 869 0098 2800     		movs	r0, r5
 870 009a FFF7FEFF 		bl	USBD_CtlContinueSendData
 871              	.LVL82:
 389:Middlewares/ST/STM32_USB_Device_Library/Core/Src/usbd_core.c **** 
 872              		.loc 1 389 11 view .LVU217
 389:Middlewares/ST/STM32_USB_Device_Library/Core/Src/usbd_core.c **** 
 873              		.loc 1 389 30 is_stmt 0 view .LVU218
 874 009e A623     		movs	r3, #166
 875 00a0 9B00     		lsls	r3, r3, #2
 876 00a2 0022     		movs	r2, #0
 877 00a4 EA50     		str	r2, [r5, r3]
 392:Middlewares/ST/STM32_USB_Device_Library/Core/Src/usbd_core.c ****         }
ARM GAS  /tmp/cczhRNl8.s 			page 25


 878              		.loc 1 392 11 is_stmt 1 view .LVU219
 879 00a6 0023     		movs	r3, #0
 880 00a8 0021     		movs	r1, #0
 881 00aa 2800     		movs	r0, r5
 882 00ac FFF7FEFF 		bl	USBD_LL_PrepareReceive
 883              	.LVL83:
 884 00b0 B9E7     		b	.L44
 885              	.L56:
 399:Middlewares/ST/STM32_USB_Device_Library/Core/Src/usbd_core.c ****           }
 886              		.loc 1 399 13 view .LVU220
 887 00b2 2800     		movs	r0, r5
 888 00b4 9847     		blx	r3
 889              	.LVL84:
 890 00b6 DAE7     		b	.L46
 891              	.L53:
 417:Middlewares/ST/STM32_USB_Device_Library/Core/Src/usbd_core.c ****       pdev->dev_test_mode = 0U;
 892              		.loc 1 417 7 view .LVU221
 418:Middlewares/ST/STM32_USB_Device_Library/Core/Src/usbd_core.c ****     }
 893              		.loc 1 418 7 view .LVU222
 418:Middlewares/ST/STM32_USB_Device_Library/Core/Src/usbd_core.c ****     }
 894              		.loc 1 418 27 is_stmt 0 view .LVU223
 895 00b8 A823     		movs	r3, #168
 896 00ba 9B00     		lsls	r3, r3, #2
 897 00bc 0022     		movs	r2, #0
 898 00be EA54     		strb	r2, [r5, r3]
 432:Middlewares/ST/STM32_USB_Device_Library/Core/Src/usbd_core.c **** }
 899              		.loc 1 432 10 view .LVU224
 900 00c0 2000     		movs	r0, r4
 901 00c2 B6E7     		b	.L48
 902              	.LVL85:
 903              	.L41:
 421:Middlewares/ST/STM32_USB_Device_Library/Core/Src/usbd_core.c ****            (pdev->dev_state == USBD_STATE_CONFIGURED))
 904              		.loc 1 421 8 is_stmt 1 view .LVU225
 421:Middlewares/ST/STM32_USB_Device_Library/Core/Src/usbd_core.c ****            (pdev->dev_state == USBD_STATE_CONFIGURED))
 905              		.loc 1 421 17 is_stmt 0 view .LVU226
 906 00c4 AD23     		movs	r3, #173
 907 00c6 9B00     		lsls	r3, r3, #2
 908 00c8 C358     		ldr	r3, [r0, r3]
 421:Middlewares/ST/STM32_USB_Device_Library/Core/Src/usbd_core.c ****            (pdev->dev_state == USBD_STATE_CONFIGURED))
 909              		.loc 1 421 25 view .LVU227
 910 00ca 5B69     		ldr	r3, [r3, #20]
 421:Middlewares/ST/STM32_USB_Device_Library/Core/Src/usbd_core.c ****            (pdev->dev_state == USBD_STATE_CONFIGURED))
 911              		.loc 1 421 11 view .LVU228
 912 00cc 002B     		cmp	r3, #0
 913 00ce 08D0     		beq	.L50
 422:Middlewares/ST/STM32_USB_Device_Library/Core/Src/usbd_core.c ****   {
 914              		.loc 1 422 17 discriminator 1 view .LVU229
 915 00d0 A722     		movs	r2, #167
 916 00d2 9200     		lsls	r2, r2, #2
 917 00d4 825C     		ldrb	r2, [r0, r2]
 421:Middlewares/ST/STM32_USB_Device_Library/Core/Src/usbd_core.c ****            (pdev->dev_state == USBD_STATE_CONFIGURED))
 918              		.loc 1 421 43 discriminator 1 view .LVU230
 919 00d6 032A     		cmp	r2, #3
 920 00d8 05D1     		bne	.L51
 424:Middlewares/ST/STM32_USB_Device_Library/Core/Src/usbd_core.c ****   }
 921              		.loc 1 424 5 is_stmt 1 view .LVU231
 922 00da 2100     		movs	r1, r4
ARM GAS  /tmp/cczhRNl8.s 			page 26


 923              	.LVL86:
 424:Middlewares/ST/STM32_USB_Device_Library/Core/Src/usbd_core.c ****   }
 924              		.loc 1 424 5 is_stmt 0 view .LVU232
 925 00dc 9847     		blx	r3
 926              	.LVL87:
 432:Middlewares/ST/STM32_USB_Device_Library/Core/Src/usbd_core.c **** }
 927              		.loc 1 432 10 view .LVU233
 928 00de 0020     		movs	r0, #0
 424:Middlewares/ST/STM32_USB_Device_Library/Core/Src/usbd_core.c ****   }
 929              		.loc 1 424 5 view .LVU234
 930 00e0 A7E7     		b	.L48
 931              	.LVL88:
 932              	.L50:
 429:Middlewares/ST/STM32_USB_Device_Library/Core/Src/usbd_core.c ****   }
 933              		.loc 1 429 12 view .LVU235
 934 00e2 0220     		movs	r0, #2
 935              	.LVL89:
 429:Middlewares/ST/STM32_USB_Device_Library/Core/Src/usbd_core.c ****   }
 936              		.loc 1 429 12 view .LVU236
 937 00e4 A5E7     		b	.L48
 938              	.LVL90:
 939              	.L51:
 429:Middlewares/ST/STM32_USB_Device_Library/Core/Src/usbd_core.c ****   }
 940              		.loc 1 429 12 view .LVU237
 941 00e6 0220     		movs	r0, #2
 942              	.LVL91:
 429:Middlewares/ST/STM32_USB_Device_Library/Core/Src/usbd_core.c ****   }
 943              		.loc 1 429 12 view .LVU238
 944 00e8 A3E7     		b	.L48
 945              		.cfi_endproc
 946              	.LFE53:
 948              		.section	.text.USBD_LL_Reset,"ax",%progbits
 949              		.align	1
 950              		.global	USBD_LL_Reset
 951              		.syntax unified
 952              		.code	16
 953              		.thumb_func
 954              		.fpu softvfp
 956              	USBD_LL_Reset:
 957              	.LVL92:
 958              	.LFB54:
 434:Middlewares/ST/STM32_USB_Device_Library/Core/Src/usbd_core.c **** 
 435:Middlewares/ST/STM32_USB_Device_Library/Core/Src/usbd_core.c **** /**
 436:Middlewares/ST/STM32_USB_Device_Library/Core/Src/usbd_core.c **** * @brief  USBD_LL_Reset
 437:Middlewares/ST/STM32_USB_Device_Library/Core/Src/usbd_core.c **** *         Handle Reset event
 438:Middlewares/ST/STM32_USB_Device_Library/Core/Src/usbd_core.c **** * @param  pdev: device instance
 439:Middlewares/ST/STM32_USB_Device_Library/Core/Src/usbd_core.c **** * @retval status
 440:Middlewares/ST/STM32_USB_Device_Library/Core/Src/usbd_core.c **** */
 441:Middlewares/ST/STM32_USB_Device_Library/Core/Src/usbd_core.c **** 
 442:Middlewares/ST/STM32_USB_Device_Library/Core/Src/usbd_core.c **** USBD_StatusTypeDef USBD_LL_Reset(USBD_HandleTypeDef *pdev)
 443:Middlewares/ST/STM32_USB_Device_Library/Core/Src/usbd_core.c **** {
 959              		.loc 1 443 1 is_stmt 1 view -0
 960              		.cfi_startproc
 961              		@ args = 0, pretend = 0, frame = 0
 962              		@ frame_needed = 0, uses_anonymous_args = 0
 963              		.loc 1 443 1 is_stmt 0 view .LVU240
 964 0000 70B5     		push	{r4, r5, r6, lr}
ARM GAS  /tmp/cczhRNl8.s 			page 27


 965              	.LCFI9:
 966              		.cfi_def_cfa_offset 16
 967              		.cfi_offset 4, -16
 968              		.cfi_offset 5, -12
 969              		.cfi_offset 6, -8
 970              		.cfi_offset 14, -4
 971 0002 0400     		movs	r4, r0
 444:Middlewares/ST/STM32_USB_Device_Library/Core/Src/usbd_core.c ****   /* Open EP0 OUT */
 445:Middlewares/ST/STM32_USB_Device_Library/Core/Src/usbd_core.c ****   USBD_LL_OpenEP(pdev, 0x00U, USBD_EP_TYPE_CTRL, USB_MAX_EP0_SIZE);
 972              		.loc 1 445 3 is_stmt 1 view .LVU241
 973 0004 4023     		movs	r3, #64
 974 0006 0022     		movs	r2, #0
 975 0008 0021     		movs	r1, #0
 976 000a FFF7FEFF 		bl	USBD_LL_OpenEP
 977              	.LVL93:
 446:Middlewares/ST/STM32_USB_Device_Library/Core/Src/usbd_core.c ****   pdev->ep_out[0x00U & 0xFU].is_used = 1U;
 978              		.loc 1 446 3 view .LVU242
 979              		.loc 1 446 38 is_stmt 0 view .LVU243
 980 000e 0125     		movs	r5, #1
 981 0010 AC23     		movs	r3, #172
 982 0012 5B00     		lsls	r3, r3, #1
 983 0014 E550     		str	r5, [r4, r3]
 447:Middlewares/ST/STM32_USB_Device_Library/Core/Src/usbd_core.c **** 
 448:Middlewares/ST/STM32_USB_Device_Library/Core/Src/usbd_core.c ****   pdev->ep_out[0].maxpacket = USB_MAX_EP0_SIZE;
 984              		.loc 1 448 3 is_stmt 1 view .LVU244
 985              		.loc 1 448 29 is_stmt 0 view .LVU245
 986 0016 4026     		movs	r6, #64
 987 0018 0C33     		adds	r3, r3, #12
 988 001a E650     		str	r6, [r4, r3]
 449:Middlewares/ST/STM32_USB_Device_Library/Core/Src/usbd_core.c **** 
 450:Middlewares/ST/STM32_USB_Device_Library/Core/Src/usbd_core.c ****   /* Open EP0 IN */
 451:Middlewares/ST/STM32_USB_Device_Library/Core/Src/usbd_core.c ****   USBD_LL_OpenEP(pdev, 0x80U, USBD_EP_TYPE_CTRL, USB_MAX_EP0_SIZE);
 989              		.loc 1 451 3 is_stmt 1 view .LVU246
 990 001c 253B     		subs	r3, r3, #37
 991 001e FF3B     		subs	r3, r3, #255
 992 0020 0022     		movs	r2, #0
 993 0022 8021     		movs	r1, #128
 994 0024 2000     		movs	r0, r4
 995 0026 FFF7FEFF 		bl	USBD_LL_OpenEP
 996              	.LVL94:
 452:Middlewares/ST/STM32_USB_Device_Library/Core/Src/usbd_core.c ****   pdev->ep_in[0x80U & 0xFU].is_used = 1U;
 997              		.loc 1 452 3 view .LVU247
 998              		.loc 1 452 37 is_stmt 0 view .LVU248
 999 002a A561     		str	r5, [r4, #24]
 453:Middlewares/ST/STM32_USB_Device_Library/Core/Src/usbd_core.c **** 
 454:Middlewares/ST/STM32_USB_Device_Library/Core/Src/usbd_core.c ****   pdev->ep_in[0].maxpacket = USB_MAX_EP0_SIZE;
 1000              		.loc 1 454 3 is_stmt 1 view .LVU249
 1001              		.loc 1 454 28 is_stmt 0 view .LVU250
 1002 002c 6662     		str	r6, [r4, #36]
 455:Middlewares/ST/STM32_USB_Device_Library/Core/Src/usbd_core.c **** 
 456:Middlewares/ST/STM32_USB_Device_Library/Core/Src/usbd_core.c ****   /* Upon Reset call user call back */
 457:Middlewares/ST/STM32_USB_Device_Library/Core/Src/usbd_core.c ****   pdev->dev_state = USBD_STATE_DEFAULT;
 1003              		.loc 1 457 3 is_stmt 1 view .LVU251
 1004              		.loc 1 457 19 is_stmt 0 view .LVU252
 1005 002e A723     		movs	r3, #167
 1006 0030 9B00     		lsls	r3, r3, #2
 1007 0032 E554     		strb	r5, [r4, r3]
ARM GAS  /tmp/cczhRNl8.s 			page 28


 458:Middlewares/ST/STM32_USB_Device_Library/Core/Src/usbd_core.c ****   pdev->ep0_state = USBD_EP0_IDLE;
 1008              		.loc 1 458 3 is_stmt 1 view .LVU253
 1009              		.loc 1 458 19 is_stmt 0 view .LVU254
 1010 0034 0023     		movs	r3, #0
 1011 0036 A522     		movs	r2, #165
 1012 0038 9200     		lsls	r2, r2, #2
 1013 003a A350     		str	r3, [r4, r2]
 459:Middlewares/ST/STM32_USB_Device_Library/Core/Src/usbd_core.c ****   pdev->dev_config = 0U;
 1014              		.loc 1 459 3 is_stmt 1 view .LVU255
 1015              		.loc 1 459 20 is_stmt 0 view .LVU256
 1016 003c 6360     		str	r3, [r4, #4]
 460:Middlewares/ST/STM32_USB_Device_Library/Core/Src/usbd_core.c ****   pdev->dev_remote_wakeup = 0U;
 1017              		.loc 1 460 3 is_stmt 1 view .LVU257
 1018              		.loc 1 460 27 is_stmt 0 view .LVU258
 1019 003e 1032     		adds	r2, r2, #16
 1020 0040 A350     		str	r3, [r4, r2]
 461:Middlewares/ST/STM32_USB_Device_Library/Core/Src/usbd_core.c **** 
 462:Middlewares/ST/STM32_USB_Device_Library/Core/Src/usbd_core.c ****   if (pdev->pClassData)
 1021              		.loc 1 462 3 is_stmt 1 view .LVU259
 1022              		.loc 1 462 11 is_stmt 0 view .LVU260
 1023 0042 AE23     		movs	r3, #174
 1024 0044 9B00     		lsls	r3, r3, #2
 1025 0046 E358     		ldr	r3, [r4, r3]
 1026              		.loc 1 462 6 view .LVU261
 1027 0048 002B     		cmp	r3, #0
 1028 004a 06D0     		beq	.L58
 463:Middlewares/ST/STM32_USB_Device_Library/Core/Src/usbd_core.c ****   {
 464:Middlewares/ST/STM32_USB_Device_Library/Core/Src/usbd_core.c ****     pdev->pClass->DeInit(pdev, (uint8_t)pdev->dev_config);
 1029              		.loc 1 464 5 is_stmt 1 view .LVU262
 1030              		.loc 1 464 9 is_stmt 0 view .LVU263
 1031 004c AD23     		movs	r3, #173
 1032 004e 9B00     		lsls	r3, r3, #2
 1033 0050 E358     		ldr	r3, [r4, r3]
 1034              		.loc 1 464 17 view .LVU264
 1035 0052 5B68     		ldr	r3, [r3, #4]
 1036              		.loc 1 464 5 view .LVU265
 1037 0054 0021     		movs	r1, #0
 1038 0056 2000     		movs	r0, r4
 1039 0058 9847     		blx	r3
 1040              	.LVL95:
 1041              	.L58:
 465:Middlewares/ST/STM32_USB_Device_Library/Core/Src/usbd_core.c ****   }
 466:Middlewares/ST/STM32_USB_Device_Library/Core/Src/usbd_core.c **** 
 467:Middlewares/ST/STM32_USB_Device_Library/Core/Src/usbd_core.c ****   return USBD_OK;
 1042              		.loc 1 467 3 is_stmt 1 view .LVU266
 468:Middlewares/ST/STM32_USB_Device_Library/Core/Src/usbd_core.c **** }
 1043              		.loc 1 468 1 is_stmt 0 view .LVU267
 1044 005a 0020     		movs	r0, #0
 1045              		@ sp needed
 1046              	.LVL96:
 1047              		.loc 1 468 1 view .LVU268
 1048 005c 70BD     		pop	{r4, r5, r6, pc}
 1049              		.cfi_endproc
 1050              	.LFE54:
 1052              		.section	.text.USBD_LL_SetSpeed,"ax",%progbits
 1053              		.align	1
 1054              		.global	USBD_LL_SetSpeed
ARM GAS  /tmp/cczhRNl8.s 			page 29


 1055              		.syntax unified
 1056              		.code	16
 1057              		.thumb_func
 1058              		.fpu softvfp
 1060              	USBD_LL_SetSpeed:
 1061              	.LVL97:
 1062              	.LFB55:
 469:Middlewares/ST/STM32_USB_Device_Library/Core/Src/usbd_core.c **** 
 470:Middlewares/ST/STM32_USB_Device_Library/Core/Src/usbd_core.c **** /**
 471:Middlewares/ST/STM32_USB_Device_Library/Core/Src/usbd_core.c **** * @brief  USBD_LL_Reset
 472:Middlewares/ST/STM32_USB_Device_Library/Core/Src/usbd_core.c **** *         Handle Reset event
 473:Middlewares/ST/STM32_USB_Device_Library/Core/Src/usbd_core.c **** * @param  pdev: device instance
 474:Middlewares/ST/STM32_USB_Device_Library/Core/Src/usbd_core.c **** * @retval status
 475:Middlewares/ST/STM32_USB_Device_Library/Core/Src/usbd_core.c **** */
 476:Middlewares/ST/STM32_USB_Device_Library/Core/Src/usbd_core.c **** USBD_StatusTypeDef USBD_LL_SetSpeed(USBD_HandleTypeDef *pdev,
 477:Middlewares/ST/STM32_USB_Device_Library/Core/Src/usbd_core.c ****                                     USBD_SpeedTypeDef speed)
 478:Middlewares/ST/STM32_USB_Device_Library/Core/Src/usbd_core.c **** {
 1063              		.loc 1 478 1 is_stmt 1 view -0
 1064              		.cfi_startproc
 1065              		@ args = 0, pretend = 0, frame = 0
 1066              		@ frame_needed = 0, uses_anonymous_args = 0
 1067              		@ link register save eliminated.
 479:Middlewares/ST/STM32_USB_Device_Library/Core/Src/usbd_core.c ****   pdev->dev_speed = speed;
 1068              		.loc 1 479 3 view .LVU270
 1069              		.loc 1 479 19 is_stmt 0 view .LVU271
 1070 0000 0174     		strb	r1, [r0, #16]
 480:Middlewares/ST/STM32_USB_Device_Library/Core/Src/usbd_core.c **** 
 481:Middlewares/ST/STM32_USB_Device_Library/Core/Src/usbd_core.c ****   return USBD_OK;
 1071              		.loc 1 481 3 is_stmt 1 view .LVU272
 482:Middlewares/ST/STM32_USB_Device_Library/Core/Src/usbd_core.c **** }
 1072              		.loc 1 482 1 is_stmt 0 view .LVU273
 1073 0002 0020     		movs	r0, #0
 1074              	.LVL98:
 1075              		.loc 1 482 1 view .LVU274
 1076              		@ sp needed
 1077 0004 7047     		bx	lr
 1078              		.cfi_endproc
 1079              	.LFE55:
 1081              		.section	.text.USBD_LL_Suspend,"ax",%progbits
 1082              		.align	1
 1083              		.global	USBD_LL_Suspend
 1084              		.syntax unified
 1085              		.code	16
 1086              		.thumb_func
 1087              		.fpu softvfp
 1089              	USBD_LL_Suspend:
 1090              	.LVL99:
 1091              	.LFB56:
 483:Middlewares/ST/STM32_USB_Device_Library/Core/Src/usbd_core.c **** 
 484:Middlewares/ST/STM32_USB_Device_Library/Core/Src/usbd_core.c **** /**
 485:Middlewares/ST/STM32_USB_Device_Library/Core/Src/usbd_core.c **** * @brief  USBD_Suspend
 486:Middlewares/ST/STM32_USB_Device_Library/Core/Src/usbd_core.c **** *         Handle Suspend event
 487:Middlewares/ST/STM32_USB_Device_Library/Core/Src/usbd_core.c **** * @param  pdev: device instance
 488:Middlewares/ST/STM32_USB_Device_Library/Core/Src/usbd_core.c **** * @retval status
 489:Middlewares/ST/STM32_USB_Device_Library/Core/Src/usbd_core.c **** */
 490:Middlewares/ST/STM32_USB_Device_Library/Core/Src/usbd_core.c **** 
 491:Middlewares/ST/STM32_USB_Device_Library/Core/Src/usbd_core.c **** USBD_StatusTypeDef USBD_LL_Suspend(USBD_HandleTypeDef *pdev)
ARM GAS  /tmp/cczhRNl8.s 			page 30


 492:Middlewares/ST/STM32_USB_Device_Library/Core/Src/usbd_core.c **** {
 1092              		.loc 1 492 1 is_stmt 1 view -0
 1093              		.cfi_startproc
 1094              		@ args = 0, pretend = 0, frame = 0
 1095              		@ frame_needed = 0, uses_anonymous_args = 0
 1096              		@ link register save eliminated.
 493:Middlewares/ST/STM32_USB_Device_Library/Core/Src/usbd_core.c ****   pdev->dev_old_state =  pdev->dev_state;
 1097              		.loc 1 493 3 view .LVU276
 1098              		.loc 1 493 30 is_stmt 0 view .LVU277
 1099 0000 A723     		movs	r3, #167
 1100 0002 9B00     		lsls	r3, r3, #2
 1101 0004 C15C     		ldrb	r1, [r0, r3]
 1102              		.loc 1 493 23 view .LVU278
 1103 0006 034A     		ldr	r2, .L61
 1104 0008 8154     		strb	r1, [r0, r2]
 494:Middlewares/ST/STM32_USB_Device_Library/Core/Src/usbd_core.c ****   pdev->dev_state  = USBD_STATE_SUSPENDED;
 1105              		.loc 1 494 3 is_stmt 1 view .LVU279
 1106              		.loc 1 494 20 is_stmt 0 view .LVU280
 1107 000a 0422     		movs	r2, #4
 1108 000c C254     		strb	r2, [r0, r3]
 495:Middlewares/ST/STM32_USB_Device_Library/Core/Src/usbd_core.c **** 
 496:Middlewares/ST/STM32_USB_Device_Library/Core/Src/usbd_core.c ****   return USBD_OK;
 1109              		.loc 1 496 3 is_stmt 1 view .LVU281
 497:Middlewares/ST/STM32_USB_Device_Library/Core/Src/usbd_core.c **** }
 1110              		.loc 1 497 1 is_stmt 0 view .LVU282
 1111 000e 0020     		movs	r0, #0
 1112              	.LVL100:
 1113              		.loc 1 497 1 view .LVU283
 1114              		@ sp needed
 1115 0010 7047     		bx	lr
 1116              	.L62:
 1117 0012 C046     		.align	2
 1118              	.L61:
 1119 0014 9D020000 		.word	669
 1120              		.cfi_endproc
 1121              	.LFE56:
 1123              		.section	.text.USBD_LL_Resume,"ax",%progbits
 1124              		.align	1
 1125              		.global	USBD_LL_Resume
 1126              		.syntax unified
 1127              		.code	16
 1128              		.thumb_func
 1129              		.fpu softvfp
 1131              	USBD_LL_Resume:
 1132              	.LVL101:
 1133              	.LFB57:
 498:Middlewares/ST/STM32_USB_Device_Library/Core/Src/usbd_core.c **** 
 499:Middlewares/ST/STM32_USB_Device_Library/Core/Src/usbd_core.c **** /**
 500:Middlewares/ST/STM32_USB_Device_Library/Core/Src/usbd_core.c **** * @brief  USBD_Resume
 501:Middlewares/ST/STM32_USB_Device_Library/Core/Src/usbd_core.c **** *         Handle Resume event
 502:Middlewares/ST/STM32_USB_Device_Library/Core/Src/usbd_core.c **** * @param  pdev: device instance
 503:Middlewares/ST/STM32_USB_Device_Library/Core/Src/usbd_core.c **** * @retval status
 504:Middlewares/ST/STM32_USB_Device_Library/Core/Src/usbd_core.c **** */
 505:Middlewares/ST/STM32_USB_Device_Library/Core/Src/usbd_core.c **** 
 506:Middlewares/ST/STM32_USB_Device_Library/Core/Src/usbd_core.c **** USBD_StatusTypeDef USBD_LL_Resume(USBD_HandleTypeDef *pdev)
 507:Middlewares/ST/STM32_USB_Device_Library/Core/Src/usbd_core.c **** {
 1134              		.loc 1 507 1 is_stmt 1 view -0
ARM GAS  /tmp/cczhRNl8.s 			page 31


 1135              		.cfi_startproc
 1136              		@ args = 0, pretend = 0, frame = 0
 1137              		@ frame_needed = 0, uses_anonymous_args = 0
 1138              		@ link register save eliminated.
 508:Middlewares/ST/STM32_USB_Device_Library/Core/Src/usbd_core.c ****   if (pdev->dev_state == USBD_STATE_SUSPENDED)
 1139              		.loc 1 508 3 view .LVU285
 1140              		.loc 1 508 11 is_stmt 0 view .LVU286
 1141 0000 A723     		movs	r3, #167
 1142 0002 9B00     		lsls	r3, r3, #2
 1143 0004 C35C     		ldrb	r3, [r0, r3]
 1144              		.loc 1 508 6 view .LVU287
 1145 0006 042B     		cmp	r3, #4
 1146 0008 01D0     		beq	.L65
 1147              	.L64:
 509:Middlewares/ST/STM32_USB_Device_Library/Core/Src/usbd_core.c ****   {
 510:Middlewares/ST/STM32_USB_Device_Library/Core/Src/usbd_core.c ****     pdev->dev_state = pdev->dev_old_state;
 511:Middlewares/ST/STM32_USB_Device_Library/Core/Src/usbd_core.c ****   }
 512:Middlewares/ST/STM32_USB_Device_Library/Core/Src/usbd_core.c **** 
 513:Middlewares/ST/STM32_USB_Device_Library/Core/Src/usbd_core.c ****   return USBD_OK;
 1148              		.loc 1 513 3 is_stmt 1 view .LVU288
 514:Middlewares/ST/STM32_USB_Device_Library/Core/Src/usbd_core.c **** }
 1149              		.loc 1 514 1 is_stmt 0 view .LVU289
 1150 000a 0020     		movs	r0, #0
 1151              	.LVL102:
 1152              		.loc 1 514 1 view .LVU290
 1153              		@ sp needed
 1154 000c 7047     		bx	lr
 1155              	.LVL103:
 1156              	.L65:
 510:Middlewares/ST/STM32_USB_Device_Library/Core/Src/usbd_core.c ****   }
 1157              		.loc 1 510 5 is_stmt 1 view .LVU291
 510:Middlewares/ST/STM32_USB_Device_Library/Core/Src/usbd_core.c ****   }
 1158              		.loc 1 510 27 is_stmt 0 view .LVU292
 1159 000e 024B     		ldr	r3, .L66
 1160 0010 C25C     		ldrb	r2, [r0, r3]
 510:Middlewares/ST/STM32_USB_Device_Library/Core/Src/usbd_core.c ****   }
 1161              		.loc 1 510 21 view .LVU293
 1162 0012 013B     		subs	r3, r3, #1
 1163 0014 C254     		strb	r2, [r0, r3]
 1164 0016 F8E7     		b	.L64
 1165              	.L67:
 1166              		.align	2
 1167              	.L66:
 1168 0018 9D020000 		.word	669
 1169              		.cfi_endproc
 1170              	.LFE57:
 1172              		.section	.text.USBD_LL_SOF,"ax",%progbits
 1173              		.align	1
 1174              		.global	USBD_LL_SOF
 1175              		.syntax unified
 1176              		.code	16
 1177              		.thumb_func
 1178              		.fpu softvfp
 1180              	USBD_LL_SOF:
 1181              	.LVL104:
 1182              	.LFB58:
 515:Middlewares/ST/STM32_USB_Device_Library/Core/Src/usbd_core.c **** 
ARM GAS  /tmp/cczhRNl8.s 			page 32


 516:Middlewares/ST/STM32_USB_Device_Library/Core/Src/usbd_core.c **** /**
 517:Middlewares/ST/STM32_USB_Device_Library/Core/Src/usbd_core.c **** * @brief  USBD_SOF
 518:Middlewares/ST/STM32_USB_Device_Library/Core/Src/usbd_core.c **** *         Handle SOF event
 519:Middlewares/ST/STM32_USB_Device_Library/Core/Src/usbd_core.c **** * @param  pdev: device instance
 520:Middlewares/ST/STM32_USB_Device_Library/Core/Src/usbd_core.c **** * @retval status
 521:Middlewares/ST/STM32_USB_Device_Library/Core/Src/usbd_core.c **** */
 522:Middlewares/ST/STM32_USB_Device_Library/Core/Src/usbd_core.c **** 
 523:Middlewares/ST/STM32_USB_Device_Library/Core/Src/usbd_core.c **** USBD_StatusTypeDef USBD_LL_SOF(USBD_HandleTypeDef *pdev)
 524:Middlewares/ST/STM32_USB_Device_Library/Core/Src/usbd_core.c **** {
 1183              		.loc 1 524 1 is_stmt 1 view -0
 1184              		.cfi_startproc
 1185              		@ args = 0, pretend = 0, frame = 0
 1186              		@ frame_needed = 0, uses_anonymous_args = 0
 1187              		.loc 1 524 1 is_stmt 0 view .LVU295
 1188 0000 10B5     		push	{r4, lr}
 1189              	.LCFI10:
 1190              		.cfi_def_cfa_offset 8
 1191              		.cfi_offset 4, -8
 1192              		.cfi_offset 14, -4
 525:Middlewares/ST/STM32_USB_Device_Library/Core/Src/usbd_core.c ****   if (pdev->dev_state == USBD_STATE_CONFIGURED)
 1193              		.loc 1 525 3 is_stmt 1 view .LVU296
 1194              		.loc 1 525 11 is_stmt 0 view .LVU297
 1195 0002 A723     		movs	r3, #167
 1196 0004 9B00     		lsls	r3, r3, #2
 1197 0006 C35C     		ldrb	r3, [r0, r3]
 1198              		.loc 1 525 6 view .LVU298
 1199 0008 032B     		cmp	r3, #3
 1200 000a 01D0     		beq	.L70
 1201              	.LVL105:
 1202              	.L69:
 526:Middlewares/ST/STM32_USB_Device_Library/Core/Src/usbd_core.c ****   {
 527:Middlewares/ST/STM32_USB_Device_Library/Core/Src/usbd_core.c ****     if (pdev->pClass->SOF != NULL)
 528:Middlewares/ST/STM32_USB_Device_Library/Core/Src/usbd_core.c ****     {
 529:Middlewares/ST/STM32_USB_Device_Library/Core/Src/usbd_core.c ****       pdev->pClass->SOF(pdev);
 530:Middlewares/ST/STM32_USB_Device_Library/Core/Src/usbd_core.c ****     }
 531:Middlewares/ST/STM32_USB_Device_Library/Core/Src/usbd_core.c ****   }
 532:Middlewares/ST/STM32_USB_Device_Library/Core/Src/usbd_core.c **** 
 533:Middlewares/ST/STM32_USB_Device_Library/Core/Src/usbd_core.c ****   return USBD_OK;
 1203              		.loc 1 533 3 is_stmt 1 view .LVU299
 534:Middlewares/ST/STM32_USB_Device_Library/Core/Src/usbd_core.c **** }
 1204              		.loc 1 534 1 is_stmt 0 view .LVU300
 1205 000c 0020     		movs	r0, #0
 1206              		@ sp needed
 1207 000e 10BD     		pop	{r4, pc}
 1208              	.LVL106:
 1209              	.L70:
 527:Middlewares/ST/STM32_USB_Device_Library/Core/Src/usbd_core.c ****     {
 1210              		.loc 1 527 5 is_stmt 1 view .LVU301
 527:Middlewares/ST/STM32_USB_Device_Library/Core/Src/usbd_core.c ****     {
 1211              		.loc 1 527 13 is_stmt 0 view .LVU302
 1212 0010 AD23     		movs	r3, #173
 1213 0012 9B00     		lsls	r3, r3, #2
 1214 0014 C358     		ldr	r3, [r0, r3]
 527:Middlewares/ST/STM32_USB_Device_Library/Core/Src/usbd_core.c ****     {
 1215              		.loc 1 527 21 view .LVU303
 1216 0016 DB69     		ldr	r3, [r3, #28]
 527:Middlewares/ST/STM32_USB_Device_Library/Core/Src/usbd_core.c ****     {
ARM GAS  /tmp/cczhRNl8.s 			page 33


 1217              		.loc 1 527 8 view .LVU304
 1218 0018 002B     		cmp	r3, #0
 1219 001a F7D0     		beq	.L69
 529:Middlewares/ST/STM32_USB_Device_Library/Core/Src/usbd_core.c ****     }
 1220              		.loc 1 529 7 is_stmt 1 view .LVU305
 1221 001c 9847     		blx	r3
 1222              	.LVL107:
 529:Middlewares/ST/STM32_USB_Device_Library/Core/Src/usbd_core.c ****     }
 1223              		.loc 1 529 7 is_stmt 0 view .LVU306
 1224 001e F5E7     		b	.L69
 1225              		.cfi_endproc
 1226              	.LFE58:
 1228              		.section	.text.USBD_LL_IsoINIncomplete,"ax",%progbits
 1229              		.align	1
 1230              		.global	USBD_LL_IsoINIncomplete
 1231              		.syntax unified
 1232              		.code	16
 1233              		.thumb_func
 1234              		.fpu softvfp
 1236              	USBD_LL_IsoINIncomplete:
 1237              	.LVL108:
 1238              	.LFB59:
 535:Middlewares/ST/STM32_USB_Device_Library/Core/Src/usbd_core.c **** 
 536:Middlewares/ST/STM32_USB_Device_Library/Core/Src/usbd_core.c **** /**
 537:Middlewares/ST/STM32_USB_Device_Library/Core/Src/usbd_core.c **** * @brief  USBD_IsoINIncomplete
 538:Middlewares/ST/STM32_USB_Device_Library/Core/Src/usbd_core.c **** *         Handle iso in incomplete event
 539:Middlewares/ST/STM32_USB_Device_Library/Core/Src/usbd_core.c **** * @param  pdev: device instance
 540:Middlewares/ST/STM32_USB_Device_Library/Core/Src/usbd_core.c **** * @retval status
 541:Middlewares/ST/STM32_USB_Device_Library/Core/Src/usbd_core.c **** */
 542:Middlewares/ST/STM32_USB_Device_Library/Core/Src/usbd_core.c **** USBD_StatusTypeDef USBD_LL_IsoINIncomplete(USBD_HandleTypeDef *pdev,
 543:Middlewares/ST/STM32_USB_Device_Library/Core/Src/usbd_core.c ****                                            uint8_t epnum)
 544:Middlewares/ST/STM32_USB_Device_Library/Core/Src/usbd_core.c **** {
 1239              		.loc 1 544 1 is_stmt 1 view -0
 1240              		.cfi_startproc
 1241              		@ args = 0, pretend = 0, frame = 0
 1242              		@ frame_needed = 0, uses_anonymous_args = 0
 1243              		@ link register save eliminated.
 545:Middlewares/ST/STM32_USB_Device_Library/Core/Src/usbd_core.c ****   /* Prevent unused arguments compilation warning */
 546:Middlewares/ST/STM32_USB_Device_Library/Core/Src/usbd_core.c ****   UNUSED(pdev);
 1244              		.loc 1 546 3 view .LVU308
 547:Middlewares/ST/STM32_USB_Device_Library/Core/Src/usbd_core.c ****   UNUSED(epnum);
 1245              		.loc 1 547 3 view .LVU309
 548:Middlewares/ST/STM32_USB_Device_Library/Core/Src/usbd_core.c **** 
 549:Middlewares/ST/STM32_USB_Device_Library/Core/Src/usbd_core.c ****   return USBD_OK;
 1246              		.loc 1 549 3 view .LVU310
 550:Middlewares/ST/STM32_USB_Device_Library/Core/Src/usbd_core.c **** }
 1247              		.loc 1 550 1 is_stmt 0 view .LVU311
 1248 0000 0020     		movs	r0, #0
 1249              	.LVL109:
 1250              		.loc 1 550 1 view .LVU312
 1251              		@ sp needed
 1252 0002 7047     		bx	lr
 1253              		.cfi_endproc
 1254              	.LFE59:
 1256              		.section	.text.USBD_LL_IsoOUTIncomplete,"ax",%progbits
 1257              		.align	1
 1258              		.global	USBD_LL_IsoOUTIncomplete
ARM GAS  /tmp/cczhRNl8.s 			page 34


 1259              		.syntax unified
 1260              		.code	16
 1261              		.thumb_func
 1262              		.fpu softvfp
 1264              	USBD_LL_IsoOUTIncomplete:
 1265              	.LVL110:
 1266              	.LFB60:
 551:Middlewares/ST/STM32_USB_Device_Library/Core/Src/usbd_core.c **** 
 552:Middlewares/ST/STM32_USB_Device_Library/Core/Src/usbd_core.c **** /**
 553:Middlewares/ST/STM32_USB_Device_Library/Core/Src/usbd_core.c **** * @brief  USBD_IsoOUTIncomplete
 554:Middlewares/ST/STM32_USB_Device_Library/Core/Src/usbd_core.c **** *         Handle iso out incomplete event
 555:Middlewares/ST/STM32_USB_Device_Library/Core/Src/usbd_core.c **** * @param  pdev: device instance
 556:Middlewares/ST/STM32_USB_Device_Library/Core/Src/usbd_core.c **** * @retval status
 557:Middlewares/ST/STM32_USB_Device_Library/Core/Src/usbd_core.c **** */
 558:Middlewares/ST/STM32_USB_Device_Library/Core/Src/usbd_core.c **** USBD_StatusTypeDef USBD_LL_IsoOUTIncomplete(USBD_HandleTypeDef *pdev,
 559:Middlewares/ST/STM32_USB_Device_Library/Core/Src/usbd_core.c ****                                             uint8_t epnum)
 560:Middlewares/ST/STM32_USB_Device_Library/Core/Src/usbd_core.c **** {
 1267              		.loc 1 560 1 is_stmt 1 view -0
 1268              		.cfi_startproc
 1269              		@ args = 0, pretend = 0, frame = 0
 1270              		@ frame_needed = 0, uses_anonymous_args = 0
 1271              		@ link register save eliminated.
 561:Middlewares/ST/STM32_USB_Device_Library/Core/Src/usbd_core.c ****   /* Prevent unused arguments compilation warning */
 562:Middlewares/ST/STM32_USB_Device_Library/Core/Src/usbd_core.c ****   UNUSED(pdev);
 1272              		.loc 1 562 3 view .LVU314
 563:Middlewares/ST/STM32_USB_Device_Library/Core/Src/usbd_core.c ****   UNUSED(epnum);
 1273              		.loc 1 563 3 view .LVU315
 564:Middlewares/ST/STM32_USB_Device_Library/Core/Src/usbd_core.c **** 
 565:Middlewares/ST/STM32_USB_Device_Library/Core/Src/usbd_core.c ****   return USBD_OK;
 1274              		.loc 1 565 3 view .LVU316
 566:Middlewares/ST/STM32_USB_Device_Library/Core/Src/usbd_core.c **** }
 1275              		.loc 1 566 1 is_stmt 0 view .LVU317
 1276 0000 0020     		movs	r0, #0
 1277              	.LVL111:
 1278              		.loc 1 566 1 view .LVU318
 1279              		@ sp needed
 1280 0002 7047     		bx	lr
 1281              		.cfi_endproc
 1282              	.LFE60:
 1284              		.section	.text.USBD_LL_DevConnected,"ax",%progbits
 1285              		.align	1
 1286              		.global	USBD_LL_DevConnected
 1287              		.syntax unified
 1288              		.code	16
 1289              		.thumb_func
 1290              		.fpu softvfp
 1292              	USBD_LL_DevConnected:
 1293              	.LVL112:
 1294              	.LFB61:
 567:Middlewares/ST/STM32_USB_Device_Library/Core/Src/usbd_core.c **** 
 568:Middlewares/ST/STM32_USB_Device_Library/Core/Src/usbd_core.c **** /**
 569:Middlewares/ST/STM32_USB_Device_Library/Core/Src/usbd_core.c **** * @brief  USBD_DevConnected
 570:Middlewares/ST/STM32_USB_Device_Library/Core/Src/usbd_core.c **** *         Handle device connection event
 571:Middlewares/ST/STM32_USB_Device_Library/Core/Src/usbd_core.c **** * @param  pdev: device instance
 572:Middlewares/ST/STM32_USB_Device_Library/Core/Src/usbd_core.c **** * @retval status
 573:Middlewares/ST/STM32_USB_Device_Library/Core/Src/usbd_core.c **** */
 574:Middlewares/ST/STM32_USB_Device_Library/Core/Src/usbd_core.c **** USBD_StatusTypeDef USBD_LL_DevConnected(USBD_HandleTypeDef *pdev)
ARM GAS  /tmp/cczhRNl8.s 			page 35


 575:Middlewares/ST/STM32_USB_Device_Library/Core/Src/usbd_core.c **** {
 1295              		.loc 1 575 1 is_stmt 1 view -0
 1296              		.cfi_startproc
 1297              		@ args = 0, pretend = 0, frame = 0
 1298              		@ frame_needed = 0, uses_anonymous_args = 0
 1299              		@ link register save eliminated.
 576:Middlewares/ST/STM32_USB_Device_Library/Core/Src/usbd_core.c ****   /* Prevent unused argument compilation warning */
 577:Middlewares/ST/STM32_USB_Device_Library/Core/Src/usbd_core.c ****   UNUSED(pdev);
 1300              		.loc 1 577 3 view .LVU320
 578:Middlewares/ST/STM32_USB_Device_Library/Core/Src/usbd_core.c **** 
 579:Middlewares/ST/STM32_USB_Device_Library/Core/Src/usbd_core.c ****   return USBD_OK;
 1301              		.loc 1 579 3 view .LVU321
 580:Middlewares/ST/STM32_USB_Device_Library/Core/Src/usbd_core.c **** }
 1302              		.loc 1 580 1 is_stmt 0 view .LVU322
 1303 0000 0020     		movs	r0, #0
 1304              	.LVL113:
 1305              		.loc 1 580 1 view .LVU323
 1306              		@ sp needed
 1307 0002 7047     		bx	lr
 1308              		.cfi_endproc
 1309              	.LFE61:
 1311              		.section	.text.USBD_LL_DevDisconnected,"ax",%progbits
 1312              		.align	1
 1313              		.global	USBD_LL_DevDisconnected
 1314              		.syntax unified
 1315              		.code	16
 1316              		.thumb_func
 1317              		.fpu softvfp
 1319              	USBD_LL_DevDisconnected:
 1320              	.LVL114:
 1321              	.LFB62:
 581:Middlewares/ST/STM32_USB_Device_Library/Core/Src/usbd_core.c **** 
 582:Middlewares/ST/STM32_USB_Device_Library/Core/Src/usbd_core.c **** /**
 583:Middlewares/ST/STM32_USB_Device_Library/Core/Src/usbd_core.c **** * @brief  USBD_DevDisconnected
 584:Middlewares/ST/STM32_USB_Device_Library/Core/Src/usbd_core.c **** *         Handle device disconnection event
 585:Middlewares/ST/STM32_USB_Device_Library/Core/Src/usbd_core.c **** * @param  pdev: device instance
 586:Middlewares/ST/STM32_USB_Device_Library/Core/Src/usbd_core.c **** * @retval status
 587:Middlewares/ST/STM32_USB_Device_Library/Core/Src/usbd_core.c **** */
 588:Middlewares/ST/STM32_USB_Device_Library/Core/Src/usbd_core.c **** USBD_StatusTypeDef USBD_LL_DevDisconnected(USBD_HandleTypeDef *pdev)
 589:Middlewares/ST/STM32_USB_Device_Library/Core/Src/usbd_core.c **** {
 1322              		.loc 1 589 1 is_stmt 1 view -0
 1323              		.cfi_startproc
 1324              		@ args = 0, pretend = 0, frame = 0
 1325              		@ frame_needed = 0, uses_anonymous_args = 0
 1326              		.loc 1 589 1 is_stmt 0 view .LVU325
 1327 0000 10B5     		push	{r4, lr}
 1328              	.LCFI11:
 1329              		.cfi_def_cfa_offset 8
 1330              		.cfi_offset 4, -8
 1331              		.cfi_offset 14, -4
 590:Middlewares/ST/STM32_USB_Device_Library/Core/Src/usbd_core.c ****   /* Free Class Resources */
 591:Middlewares/ST/STM32_USB_Device_Library/Core/Src/usbd_core.c ****   pdev->dev_state = USBD_STATE_DEFAULT;
 1332              		.loc 1 591 3 is_stmt 1 view .LVU326
 1333              		.loc 1 591 19 is_stmt 0 view .LVU327
 1334 0002 A723     		movs	r3, #167
 1335 0004 9B00     		lsls	r3, r3, #2
 1336 0006 0122     		movs	r2, #1
ARM GAS  /tmp/cczhRNl8.s 			page 36


 1337 0008 C254     		strb	r2, [r0, r3]
 592:Middlewares/ST/STM32_USB_Device_Library/Core/Src/usbd_core.c ****   pdev->pClass->DeInit(pdev, (uint8_t)pdev->dev_config);
 1338              		.loc 1 592 3 is_stmt 1 view .LVU328
 1339              		.loc 1 592 7 is_stmt 0 view .LVU329
 1340 000a 1833     		adds	r3, r3, #24
 1341 000c C358     		ldr	r3, [r0, r3]
 1342              		.loc 1 592 15 view .LVU330
 1343 000e 5B68     		ldr	r3, [r3, #4]
 1344              		.loc 1 592 3 view .LVU331
 1345 0010 0179     		ldrb	r1, [r0, #4]
 1346 0012 9847     		blx	r3
 1347              	.LVL115:
 593:Middlewares/ST/STM32_USB_Device_Library/Core/Src/usbd_core.c **** 
 594:Middlewares/ST/STM32_USB_Device_Library/Core/Src/usbd_core.c ****   return USBD_OK;
 1348              		.loc 1 594 3 is_stmt 1 view .LVU332
 595:Middlewares/ST/STM32_USB_Device_Library/Core/Src/usbd_core.c **** }
 1349              		.loc 1 595 1 is_stmt 0 view .LVU333
 1350 0014 0020     		movs	r0, #0
 1351              		@ sp needed
 1352 0016 10BD     		pop	{r4, pc}
 1353              		.cfi_endproc
 1354              	.LFE62:
 1356              		.text
 1357              	.Letext0:
 1358              		.file 2 "/usr/include/newlib/machine/_default_types.h"
 1359              		.file 3 "/usr/lib/gcc/arm-none-eabi/9.2.1/include/stddef.h"
 1360              		.file 4 "/usr/include/newlib/sys/_types.h"
 1361              		.file 5 "/usr/include/newlib/sys/reent.h"
 1362              		.file 6 "/usr/include/newlib/sys/lock.h"
 1363              		.file 7 "/usr/include/newlib/sys/_stdint.h"
 1364              		.file 8 "/usr/include/newlib/stdlib.h"
 1365              		.file 9 "Drivers/CMSIS/Device/ST/STM32F0xx/Include/system_stm32f0xx.h"
 1366              		.file 10 "Drivers/STM32F0xx_HAL_Driver/Inc/stm32f0xx_hal.h"
 1367              		.file 11 "Middlewares/ST/STM32_USB_Device_Library/Core/Inc/usbd_def.h"
 1368              		.file 12 "Middlewares/ST/STM32_USB_Device_Library/Core/Inc/usbd_core.h"
 1369              		.file 13 "Middlewares/ST/STM32_USB_Device_Library/Core/Inc/usbd_ioreq.h"
 1370              		.file 14 "Middlewares/ST/STM32_USB_Device_Library/Core/Inc/usbd_ctlreq.h"
ARM GAS  /tmp/cczhRNl8.s 			page 37

